
espresso.elf:     file format elf32-littlearm

Sections:
Idx Name          Size      VMA       LMA       File off  Algn
  0 .isr_vector   000001c4  08000000  08000000  00010000  2**0
                  CONTENTS, ALLOC, LOAD, READONLY, DATA
  1 .text         00009438  080001d0  080001d0  000101d0  2**4
                  CONTENTS, ALLOC, LOAD, READONLY, CODE
  2 .rodata       00000444  08009608  08009608  00019608  2**3
                  CONTENTS, ALLOC, LOAD, READONLY, DATA
  3 .ARM.extab    00000000  08009a4c  08009a4c  00020364  2**0
                  CONTENTS
  4 .ARM          00000008  08009a4c  08009a4c  00019a4c  2**2
                  CONTENTS, ALLOC, LOAD, READONLY, DATA
  5 .preinit_array 00000000  08009a54  08009a54  00020364  2**0
                  CONTENTS, ALLOC, LOAD, DATA
  6 .init_array   00000004  08009a54  08009a54  00019a54  2**2
                  CONTENTS, ALLOC, LOAD, DATA
  7 .fini_array   00000004  08009a58  08009a58  00019a58  2**2
                  CONTENTS, ALLOC, LOAD, DATA
  8 .data         00000364  20000000  08009a5c  00020000  2**2
                  CONTENTS, ALLOC, LOAD, DATA
  9 .bss          00001ee8  20000364  08009dc0  00020364  2**2
                  ALLOC
 10 ._user_heap_stack 00000604  2000224c  08009dc0  0002224c  2**0
                  ALLOC
 11 .ARM.attributes 00000030  00000000  00000000  00020364  2**0
                  CONTENTS, READONLY
 12 .comment      00000053  00000000  00000000  00020394  2**0
                  CONTENTS, READONLY
 13 .debug_frame  000012e0  00000000  00000000  000203e8  2**2
                  CONTENTS, READONLY, DEBUGGING, OCTETS

Disassembly of section .text:

080001d0 <__do_global_dtors_aux>:
 80001d0:	b510      	push	{r4, lr}
 80001d2:	4c05      	ldr	r4, [pc, #20]	; (80001e8 <__do_global_dtors_aux+0x18>)
 80001d4:	7823      	ldrb	r3, [r4, #0]
 80001d6:	b933      	cbnz	r3, 80001e6 <__do_global_dtors_aux+0x16>
 80001d8:	4b04      	ldr	r3, [pc, #16]	; (80001ec <__do_global_dtors_aux+0x1c>)
 80001da:	b113      	cbz	r3, 80001e2 <__do_global_dtors_aux+0x12>
 80001dc:	4804      	ldr	r0, [pc, #16]	; (80001f0 <__do_global_dtors_aux+0x20>)
 80001de:	f3af 8000 	nop.w
 80001e2:	2301      	movs	r3, #1
 80001e4:	7023      	strb	r3, [r4, #0]
 80001e6:	bd10      	pop	{r4, pc}
 80001e8:	20000364 	.word	0x20000364
 80001ec:	00000000 	.word	0x00000000
 80001f0:	080095f0 	.word	0x080095f0

080001f4 <frame_dummy>:
 80001f4:	b508      	push	{r3, lr}
 80001f6:	4b03      	ldr	r3, [pc, #12]	; (8000204 <frame_dummy+0x10>)
 80001f8:	b11b      	cbz	r3, 8000202 <frame_dummy+0xe>
 80001fa:	4903      	ldr	r1, [pc, #12]	; (8000208 <frame_dummy+0x14>)
 80001fc:	4803      	ldr	r0, [pc, #12]	; (800020c <frame_dummy+0x18>)
 80001fe:	f3af 8000 	nop.w
 8000202:	bd08      	pop	{r3, pc}
 8000204:	00000000 	.word	0x00000000
 8000208:	20000368 	.word	0x20000368
 800020c:	080095f0 	.word	0x080095f0

08000210 <strlen>:
 8000210:	4603      	mov	r3, r0
 8000212:	f813 2b01 	ldrb.w	r2, [r3], #1
 8000216:	2a00      	cmp	r2, #0
 8000218:	d1fb      	bne.n	8000212 <strlen+0x2>
 800021a:	1a18      	subs	r0, r3, r0
 800021c:	3801      	subs	r0, #1
 800021e:	4770      	bx	lr

08000220 <memchr>:
 8000220:	f001 01ff 	and.w	r1, r1, #255	; 0xff
 8000224:	2a10      	cmp	r2, #16
 8000226:	db2b      	blt.n	8000280 <memchr+0x60>
 8000228:	f010 0f07 	tst.w	r0, #7
 800022c:	d008      	beq.n	8000240 <memchr+0x20>
 800022e:	f810 3b01 	ldrb.w	r3, [r0], #1
 8000232:	3a01      	subs	r2, #1
 8000234:	428b      	cmp	r3, r1
 8000236:	d02d      	beq.n	8000294 <memchr+0x74>
 8000238:	f010 0f07 	tst.w	r0, #7
 800023c:	b342      	cbz	r2, 8000290 <memchr+0x70>
 800023e:	d1f6      	bne.n	800022e <memchr+0xe>
 8000240:	b4f0      	push	{r4, r5, r6, r7}
 8000242:	ea41 2101 	orr.w	r1, r1, r1, lsl #8
 8000246:	ea41 4101 	orr.w	r1, r1, r1, lsl #16
 800024a:	f022 0407 	bic.w	r4, r2, #7
 800024e:	f07f 0700 	mvns.w	r7, #0
 8000252:	2300      	movs	r3, #0
 8000254:	e8f0 5602 	ldrd	r5, r6, [r0], #8
 8000258:	3c08      	subs	r4, #8
 800025a:	ea85 0501 	eor.w	r5, r5, r1
 800025e:	ea86 0601 	eor.w	r6, r6, r1
 8000262:	fa85 f547 	uadd8	r5, r5, r7
 8000266:	faa3 f587 	sel	r5, r3, r7
 800026a:	fa86 f647 	uadd8	r6, r6, r7
 800026e:	faa5 f687 	sel	r6, r5, r7
 8000272:	b98e      	cbnz	r6, 8000298 <memchr+0x78>
 8000274:	d1ee      	bne.n	8000254 <memchr+0x34>
 8000276:	bcf0      	pop	{r4, r5, r6, r7}
 8000278:	f001 01ff 	and.w	r1, r1, #255	; 0xff
 800027c:	f002 0207 	and.w	r2, r2, #7
 8000280:	b132      	cbz	r2, 8000290 <memchr+0x70>
 8000282:	f810 3b01 	ldrb.w	r3, [r0], #1
 8000286:	3a01      	subs	r2, #1
 8000288:	ea83 0301 	eor.w	r3, r3, r1
 800028c:	b113      	cbz	r3, 8000294 <memchr+0x74>
 800028e:	d1f8      	bne.n	8000282 <memchr+0x62>
 8000290:	2000      	movs	r0, #0
 8000292:	4770      	bx	lr
 8000294:	3801      	subs	r0, #1
 8000296:	4770      	bx	lr
 8000298:	2d00      	cmp	r5, #0
 800029a:	bf06      	itte	eq
 800029c:	4635      	moveq	r5, r6
 800029e:	3803      	subeq	r0, #3
 80002a0:	3807      	subne	r0, #7
 80002a2:	f015 0f01 	tst.w	r5, #1
 80002a6:	d107      	bne.n	80002b8 <memchr+0x98>
 80002a8:	3001      	adds	r0, #1
 80002aa:	f415 7f80 	tst.w	r5, #256	; 0x100
 80002ae:	bf02      	ittt	eq
 80002b0:	3001      	addeq	r0, #1
 80002b2:	f415 3fc0 	tsteq.w	r5, #98304	; 0x18000
 80002b6:	3001      	addeq	r0, #1
 80002b8:	bcf0      	pop	{r4, r5, r6, r7}
 80002ba:	3801      	subs	r0, #1
 80002bc:	4770      	bx	lr
 80002be:	bf00      	nop

080002c0 <__aeabi_drsub>:
 80002c0:	f081 4100 	eor.w	r1, r1, #2147483648	; 0x80000000
 80002c4:	e002      	b.n	80002cc <__adddf3>
 80002c6:	bf00      	nop

080002c8 <__aeabi_dsub>:
 80002c8:	f083 4300 	eor.w	r3, r3, #2147483648	; 0x80000000

080002cc <__adddf3>:
 80002cc:	b530      	push	{r4, r5, lr}
 80002ce:	ea4f 0441 	mov.w	r4, r1, lsl #1
 80002d2:	ea4f 0543 	mov.w	r5, r3, lsl #1
 80002d6:	ea94 0f05 	teq	r4, r5
 80002da:	bf08      	it	eq
 80002dc:	ea90 0f02 	teqeq	r0, r2
 80002e0:	bf1f      	itttt	ne
 80002e2:	ea54 0c00 	orrsne.w	ip, r4, r0
 80002e6:	ea55 0c02 	orrsne.w	ip, r5, r2
 80002ea:	ea7f 5c64 	mvnsne.w	ip, r4, asr #21
 80002ee:	ea7f 5c65 	mvnsne.w	ip, r5, asr #21
 80002f2:	f000 80e2 	beq.w	80004ba <__adddf3+0x1ee>
 80002f6:	ea4f 5454 	mov.w	r4, r4, lsr #21
 80002fa:	ebd4 5555 	rsbs	r5, r4, r5, lsr #21
 80002fe:	bfb8      	it	lt
 8000300:	426d      	neglt	r5, r5
 8000302:	dd0c      	ble.n	800031e <__adddf3+0x52>
 8000304:	442c      	add	r4, r5
 8000306:	ea80 0202 	eor.w	r2, r0, r2
 800030a:	ea81 0303 	eor.w	r3, r1, r3
 800030e:	ea82 0000 	eor.w	r0, r2, r0
 8000312:	ea83 0101 	eor.w	r1, r3, r1
 8000316:	ea80 0202 	eor.w	r2, r0, r2
 800031a:	ea81 0303 	eor.w	r3, r1, r3
 800031e:	2d36      	cmp	r5, #54	; 0x36
 8000320:	bf88      	it	hi
 8000322:	bd30      	pophi	{r4, r5, pc}
 8000324:	f011 4f00 	tst.w	r1, #2147483648	; 0x80000000
 8000328:	ea4f 3101 	mov.w	r1, r1, lsl #12
 800032c:	f44f 1c80 	mov.w	ip, #1048576	; 0x100000
 8000330:	ea4c 3111 	orr.w	r1, ip, r1, lsr #12
 8000334:	d002      	beq.n	800033c <__adddf3+0x70>
 8000336:	4240      	negs	r0, r0
 8000338:	eb61 0141 	sbc.w	r1, r1, r1, lsl #1
 800033c:	f013 4f00 	tst.w	r3, #2147483648	; 0x80000000
 8000340:	ea4f 3303 	mov.w	r3, r3, lsl #12
 8000344:	ea4c 3313 	orr.w	r3, ip, r3, lsr #12
 8000348:	d002      	beq.n	8000350 <__adddf3+0x84>
 800034a:	4252      	negs	r2, r2
 800034c:	eb63 0343 	sbc.w	r3, r3, r3, lsl #1
 8000350:	ea94 0f05 	teq	r4, r5
 8000354:	f000 80a7 	beq.w	80004a6 <__adddf3+0x1da>
 8000358:	f1a4 0401 	sub.w	r4, r4, #1
 800035c:	f1d5 0e20 	rsbs	lr, r5, #32
 8000360:	db0d      	blt.n	800037e <__adddf3+0xb2>
 8000362:	fa02 fc0e 	lsl.w	ip, r2, lr
 8000366:	fa22 f205 	lsr.w	r2, r2, r5
 800036a:	1880      	adds	r0, r0, r2
 800036c:	f141 0100 	adc.w	r1, r1, #0
 8000370:	fa03 f20e 	lsl.w	r2, r3, lr
 8000374:	1880      	adds	r0, r0, r2
 8000376:	fa43 f305 	asr.w	r3, r3, r5
 800037a:	4159      	adcs	r1, r3
 800037c:	e00e      	b.n	800039c <__adddf3+0xd0>
 800037e:	f1a5 0520 	sub.w	r5, r5, #32
 8000382:	f10e 0e20 	add.w	lr, lr, #32
 8000386:	2a01      	cmp	r2, #1
 8000388:	fa03 fc0e 	lsl.w	ip, r3, lr
 800038c:	bf28      	it	cs
 800038e:	f04c 0c02 	orrcs.w	ip, ip, #2
 8000392:	fa43 f305 	asr.w	r3, r3, r5
 8000396:	18c0      	adds	r0, r0, r3
 8000398:	eb51 71e3 	adcs.w	r1, r1, r3, asr #31
 800039c:	f001 4500 	and.w	r5, r1, #2147483648	; 0x80000000
 80003a0:	d507      	bpl.n	80003b2 <__adddf3+0xe6>
 80003a2:	f04f 0e00 	mov.w	lr, #0
 80003a6:	f1dc 0c00 	rsbs	ip, ip, #0
 80003aa:	eb7e 0000 	sbcs.w	r0, lr, r0
 80003ae:	eb6e 0101 	sbc.w	r1, lr, r1
 80003b2:	f5b1 1f80 	cmp.w	r1, #1048576	; 0x100000
 80003b6:	d31b      	bcc.n	80003f0 <__adddf3+0x124>
 80003b8:	f5b1 1f00 	cmp.w	r1, #2097152	; 0x200000
 80003bc:	d30c      	bcc.n	80003d8 <__adddf3+0x10c>
 80003be:	0849      	lsrs	r1, r1, #1
 80003c0:	ea5f 0030 	movs.w	r0, r0, rrx
 80003c4:	ea4f 0c3c 	mov.w	ip, ip, rrx
 80003c8:	f104 0401 	add.w	r4, r4, #1
 80003cc:	ea4f 5244 	mov.w	r2, r4, lsl #21
 80003d0:	f512 0f80 	cmn.w	r2, #4194304	; 0x400000
 80003d4:	f080 809a 	bcs.w	800050c <__adddf3+0x240>
 80003d8:	f1bc 4f00 	cmp.w	ip, #2147483648	; 0x80000000
 80003dc:	bf08      	it	eq
 80003de:	ea5f 0c50 	movseq.w	ip, r0, lsr #1
 80003e2:	f150 0000 	adcs.w	r0, r0, #0
 80003e6:	eb41 5104 	adc.w	r1, r1, r4, lsl #20
 80003ea:	ea41 0105 	orr.w	r1, r1, r5
 80003ee:	bd30      	pop	{r4, r5, pc}
 80003f0:	ea5f 0c4c 	movs.w	ip, ip, lsl #1
 80003f4:	4140      	adcs	r0, r0
 80003f6:	eb41 0101 	adc.w	r1, r1, r1
 80003fa:	3c01      	subs	r4, #1
 80003fc:	bf28      	it	cs
 80003fe:	f5b1 1f80 	cmpcs.w	r1, #1048576	; 0x100000
 8000402:	d2e9      	bcs.n	80003d8 <__adddf3+0x10c>
 8000404:	f091 0f00 	teq	r1, #0
 8000408:	bf04      	itt	eq
 800040a:	4601      	moveq	r1, r0
 800040c:	2000      	moveq	r0, #0
 800040e:	fab1 f381 	clz	r3, r1
 8000412:	bf08      	it	eq
 8000414:	3320      	addeq	r3, #32
 8000416:	f1a3 030b 	sub.w	r3, r3, #11
 800041a:	f1b3 0220 	subs.w	r2, r3, #32
 800041e:	da0c      	bge.n	800043a <__adddf3+0x16e>
 8000420:	320c      	adds	r2, #12
 8000422:	dd08      	ble.n	8000436 <__adddf3+0x16a>
 8000424:	f102 0c14 	add.w	ip, r2, #20
 8000428:	f1c2 020c 	rsb	r2, r2, #12
 800042c:	fa01 f00c 	lsl.w	r0, r1, ip
 8000430:	fa21 f102 	lsr.w	r1, r1, r2
 8000434:	e00c      	b.n	8000450 <__adddf3+0x184>
 8000436:	f102 0214 	add.w	r2, r2, #20
 800043a:	bfd8      	it	le
 800043c:	f1c2 0c20 	rsble	ip, r2, #32
 8000440:	fa01 f102 	lsl.w	r1, r1, r2
 8000444:	fa20 fc0c 	lsr.w	ip, r0, ip
 8000448:	bfdc      	itt	le
 800044a:	ea41 010c 	orrle.w	r1, r1, ip
 800044e:	4090      	lslle	r0, r2
 8000450:	1ae4      	subs	r4, r4, r3
 8000452:	bfa2      	ittt	ge
 8000454:	eb01 5104 	addge.w	r1, r1, r4, lsl #20
 8000458:	4329      	orrge	r1, r5
 800045a:	bd30      	popge	{r4, r5, pc}
 800045c:	ea6f 0404 	mvn.w	r4, r4
 8000460:	3c1f      	subs	r4, #31
 8000462:	da1c      	bge.n	800049e <__adddf3+0x1d2>
 8000464:	340c      	adds	r4, #12
 8000466:	dc0e      	bgt.n	8000486 <__adddf3+0x1ba>
 8000468:	f104 0414 	add.w	r4, r4, #20
 800046c:	f1c4 0220 	rsb	r2, r4, #32
 8000470:	fa20 f004 	lsr.w	r0, r0, r4
 8000474:	fa01 f302 	lsl.w	r3, r1, r2
 8000478:	ea40 0003 	orr.w	r0, r0, r3
 800047c:	fa21 f304 	lsr.w	r3, r1, r4
 8000480:	ea45 0103 	orr.w	r1, r5, r3
 8000484:	bd30      	pop	{r4, r5, pc}
 8000486:	f1c4 040c 	rsb	r4, r4, #12
 800048a:	f1c4 0220 	rsb	r2, r4, #32
 800048e:	fa20 f002 	lsr.w	r0, r0, r2
 8000492:	fa01 f304 	lsl.w	r3, r1, r4
 8000496:	ea40 0003 	orr.w	r0, r0, r3
 800049a:	4629      	mov	r1, r5
 800049c:	bd30      	pop	{r4, r5, pc}
 800049e:	fa21 f004 	lsr.w	r0, r1, r4
 80004a2:	4629      	mov	r1, r5
 80004a4:	bd30      	pop	{r4, r5, pc}
 80004a6:	f094 0f00 	teq	r4, #0
 80004aa:	f483 1380 	eor.w	r3, r3, #1048576	; 0x100000
 80004ae:	bf06      	itte	eq
 80004b0:	f481 1180 	eoreq.w	r1, r1, #1048576	; 0x100000
 80004b4:	3401      	addeq	r4, #1
 80004b6:	3d01      	subne	r5, #1
 80004b8:	e74e      	b.n	8000358 <__adddf3+0x8c>
 80004ba:	ea7f 5c64 	mvns.w	ip, r4, asr #21
 80004be:	bf18      	it	ne
 80004c0:	ea7f 5c65 	mvnsne.w	ip, r5, asr #21
 80004c4:	d029      	beq.n	800051a <__adddf3+0x24e>
 80004c6:	ea94 0f05 	teq	r4, r5
 80004ca:	bf08      	it	eq
 80004cc:	ea90 0f02 	teqeq	r0, r2
 80004d0:	d005      	beq.n	80004de <__adddf3+0x212>
 80004d2:	ea54 0c00 	orrs.w	ip, r4, r0
 80004d6:	bf04      	itt	eq
 80004d8:	4619      	moveq	r1, r3
 80004da:	4610      	moveq	r0, r2
 80004dc:	bd30      	pop	{r4, r5, pc}
 80004de:	ea91 0f03 	teq	r1, r3
 80004e2:	bf1e      	ittt	ne
 80004e4:	2100      	movne	r1, #0
 80004e6:	2000      	movne	r0, #0
 80004e8:	bd30      	popne	{r4, r5, pc}
 80004ea:	ea5f 5c54 	movs.w	ip, r4, lsr #21
 80004ee:	d105      	bne.n	80004fc <__adddf3+0x230>
 80004f0:	0040      	lsls	r0, r0, #1
 80004f2:	4149      	adcs	r1, r1
 80004f4:	bf28      	it	cs
 80004f6:	f041 4100 	orrcs.w	r1, r1, #2147483648	; 0x80000000
 80004fa:	bd30      	pop	{r4, r5, pc}
 80004fc:	f514 0480 	adds.w	r4, r4, #4194304	; 0x400000
 8000500:	bf3c      	itt	cc
 8000502:	f501 1180 	addcc.w	r1, r1, #1048576	; 0x100000
 8000506:	bd30      	popcc	{r4, r5, pc}
 8000508:	f001 4500 	and.w	r5, r1, #2147483648	; 0x80000000
 800050c:	f045 41fe 	orr.w	r1, r5, #2130706432	; 0x7f000000
 8000510:	f441 0170 	orr.w	r1, r1, #15728640	; 0xf00000
 8000514:	f04f 0000 	mov.w	r0, #0
 8000518:	bd30      	pop	{r4, r5, pc}
 800051a:	ea7f 5c64 	mvns.w	ip, r4, asr #21
 800051e:	bf1a      	itte	ne
 8000520:	4619      	movne	r1, r3
 8000522:	4610      	movne	r0, r2
 8000524:	ea7f 5c65 	mvnseq.w	ip, r5, asr #21
 8000528:	bf1c      	itt	ne
 800052a:	460b      	movne	r3, r1
 800052c:	4602      	movne	r2, r0
 800052e:	ea50 3401 	orrs.w	r4, r0, r1, lsl #12
 8000532:	bf06      	itte	eq
 8000534:	ea52 3503 	orrseq.w	r5, r2, r3, lsl #12
 8000538:	ea91 0f03 	teqeq	r1, r3
 800053c:	f441 2100 	orrne.w	r1, r1, #524288	; 0x80000
 8000540:	bd30      	pop	{r4, r5, pc}
 8000542:	bf00      	nop

08000544 <__aeabi_ui2d>:
 8000544:	f090 0f00 	teq	r0, #0
 8000548:	bf04      	itt	eq
 800054a:	2100      	moveq	r1, #0
 800054c:	4770      	bxeq	lr
 800054e:	b530      	push	{r4, r5, lr}
 8000550:	f44f 6480 	mov.w	r4, #1024	; 0x400
 8000554:	f104 0432 	add.w	r4, r4, #50	; 0x32
 8000558:	f04f 0500 	mov.w	r5, #0
 800055c:	f04f 0100 	mov.w	r1, #0
 8000560:	e750      	b.n	8000404 <__adddf3+0x138>
 8000562:	bf00      	nop

08000564 <__aeabi_i2d>:
 8000564:	f090 0f00 	teq	r0, #0
 8000568:	bf04      	itt	eq
 800056a:	2100      	moveq	r1, #0
 800056c:	4770      	bxeq	lr
 800056e:	b530      	push	{r4, r5, lr}
 8000570:	f44f 6480 	mov.w	r4, #1024	; 0x400
 8000574:	f104 0432 	add.w	r4, r4, #50	; 0x32
 8000578:	f010 4500 	ands.w	r5, r0, #2147483648	; 0x80000000
 800057c:	bf48      	it	mi
 800057e:	4240      	negmi	r0, r0
 8000580:	f04f 0100 	mov.w	r1, #0
 8000584:	e73e      	b.n	8000404 <__adddf3+0x138>
 8000586:	bf00      	nop

08000588 <__aeabi_f2d>:
 8000588:	0042      	lsls	r2, r0, #1
 800058a:	ea4f 01e2 	mov.w	r1, r2, asr #3
 800058e:	ea4f 0131 	mov.w	r1, r1, rrx
 8000592:	ea4f 7002 	mov.w	r0, r2, lsl #28
 8000596:	bf1f      	itttt	ne
 8000598:	f012 437f 	andsne.w	r3, r2, #4278190080	; 0xff000000
 800059c:	f093 4f7f 	teqne	r3, #4278190080	; 0xff000000
 80005a0:	f081 5160 	eorne.w	r1, r1, #939524096	; 0x38000000
 80005a4:	4770      	bxne	lr
 80005a6:	f032 427f 	bics.w	r2, r2, #4278190080	; 0xff000000
 80005aa:	bf08      	it	eq
 80005ac:	4770      	bxeq	lr
 80005ae:	f093 4f7f 	teq	r3, #4278190080	; 0xff000000
 80005b2:	bf04      	itt	eq
 80005b4:	f441 2100 	orreq.w	r1, r1, #524288	; 0x80000
 80005b8:	4770      	bxeq	lr
 80005ba:	b530      	push	{r4, r5, lr}
 80005bc:	f44f 7460 	mov.w	r4, #896	; 0x380
 80005c0:	f001 4500 	and.w	r5, r1, #2147483648	; 0x80000000
 80005c4:	f021 4100 	bic.w	r1, r1, #2147483648	; 0x80000000
 80005c8:	e71c      	b.n	8000404 <__adddf3+0x138>
 80005ca:	bf00      	nop

080005cc <__aeabi_ul2d>:
 80005cc:	ea50 0201 	orrs.w	r2, r0, r1
 80005d0:	bf08      	it	eq
 80005d2:	4770      	bxeq	lr
 80005d4:	b530      	push	{r4, r5, lr}
 80005d6:	f04f 0500 	mov.w	r5, #0
 80005da:	e00a      	b.n	80005f2 <__aeabi_l2d+0x16>

080005dc <__aeabi_l2d>:
 80005dc:	ea50 0201 	orrs.w	r2, r0, r1
 80005e0:	bf08      	it	eq
 80005e2:	4770      	bxeq	lr
 80005e4:	b530      	push	{r4, r5, lr}
 80005e6:	f011 4500 	ands.w	r5, r1, #2147483648	; 0x80000000
 80005ea:	d502      	bpl.n	80005f2 <__aeabi_l2d+0x16>
 80005ec:	4240      	negs	r0, r0
 80005ee:	eb61 0141 	sbc.w	r1, r1, r1, lsl #1
 80005f2:	f44f 6480 	mov.w	r4, #1024	; 0x400
 80005f6:	f104 0432 	add.w	r4, r4, #50	; 0x32
 80005fa:	ea5f 5c91 	movs.w	ip, r1, lsr #22
 80005fe:	f43f aed8 	beq.w	80003b2 <__adddf3+0xe6>
 8000602:	f04f 0203 	mov.w	r2, #3
 8000606:	ea5f 0cdc 	movs.w	ip, ip, lsr #3
 800060a:	bf18      	it	ne
 800060c:	3203      	addne	r2, #3
 800060e:	ea5f 0cdc 	movs.w	ip, ip, lsr #3
 8000612:	bf18      	it	ne
 8000614:	3203      	addne	r2, #3
 8000616:	eb02 02dc 	add.w	r2, r2, ip, lsr #3
 800061a:	f1c2 0320 	rsb	r3, r2, #32
 800061e:	fa00 fc03 	lsl.w	ip, r0, r3
 8000622:	fa20 f002 	lsr.w	r0, r0, r2
 8000626:	fa01 fe03 	lsl.w	lr, r1, r3
 800062a:	ea40 000e 	orr.w	r0, r0, lr
 800062e:	fa21 f102 	lsr.w	r1, r1, r2
 8000632:	4414      	add	r4, r2
 8000634:	e6bd      	b.n	80003b2 <__adddf3+0xe6>
 8000636:	bf00      	nop

08000638 <__aeabi_dmul>:
 8000638:	b570      	push	{r4, r5, r6, lr}
 800063a:	f04f 0cff 	mov.w	ip, #255	; 0xff
 800063e:	f44c 6ce0 	orr.w	ip, ip, #1792	; 0x700
 8000642:	ea1c 5411 	ands.w	r4, ip, r1, lsr #20
 8000646:	bf1d      	ittte	ne
 8000648:	ea1c 5513 	andsne.w	r5, ip, r3, lsr #20
 800064c:	ea94 0f0c 	teqne	r4, ip
 8000650:	ea95 0f0c 	teqne	r5, ip
 8000654:	f000 f8de 	bleq	8000814 <__aeabi_dmul+0x1dc>
 8000658:	442c      	add	r4, r5
 800065a:	ea81 0603 	eor.w	r6, r1, r3
 800065e:	ea21 514c 	bic.w	r1, r1, ip, lsl #21
 8000662:	ea23 534c 	bic.w	r3, r3, ip, lsl #21
 8000666:	ea50 3501 	orrs.w	r5, r0, r1, lsl #12
 800066a:	bf18      	it	ne
 800066c:	ea52 3503 	orrsne.w	r5, r2, r3, lsl #12
 8000670:	f441 1180 	orr.w	r1, r1, #1048576	; 0x100000
 8000674:	f443 1380 	orr.w	r3, r3, #1048576	; 0x100000
 8000678:	d038      	beq.n	80006ec <__aeabi_dmul+0xb4>
 800067a:	fba0 ce02 	umull	ip, lr, r0, r2
 800067e:	f04f 0500 	mov.w	r5, #0
 8000682:	fbe1 e502 	umlal	lr, r5, r1, r2
 8000686:	f006 4200 	and.w	r2, r6, #2147483648	; 0x80000000
 800068a:	fbe0 e503 	umlal	lr, r5, r0, r3
 800068e:	f04f 0600 	mov.w	r6, #0
 8000692:	fbe1 5603 	umlal	r5, r6, r1, r3
 8000696:	f09c 0f00 	teq	ip, #0
 800069a:	bf18      	it	ne
 800069c:	f04e 0e01 	orrne.w	lr, lr, #1
 80006a0:	f1a4 04ff 	sub.w	r4, r4, #255	; 0xff
 80006a4:	f5b6 7f00 	cmp.w	r6, #512	; 0x200
 80006a8:	f564 7440 	sbc.w	r4, r4, #768	; 0x300
 80006ac:	d204      	bcs.n	80006b8 <__aeabi_dmul+0x80>
 80006ae:	ea5f 0e4e 	movs.w	lr, lr, lsl #1
 80006b2:	416d      	adcs	r5, r5
 80006b4:	eb46 0606 	adc.w	r6, r6, r6
 80006b8:	ea42 21c6 	orr.w	r1, r2, r6, lsl #11
 80006bc:	ea41 5155 	orr.w	r1, r1, r5, lsr #21
 80006c0:	ea4f 20c5 	mov.w	r0, r5, lsl #11
 80006c4:	ea40 505e 	orr.w	r0, r0, lr, lsr #21
 80006c8:	ea4f 2ece 	mov.w	lr, lr, lsl #11
 80006cc:	f1b4 0cfd 	subs.w	ip, r4, #253	; 0xfd
 80006d0:	bf88      	it	hi
 80006d2:	f5bc 6fe0 	cmphi.w	ip, #1792	; 0x700
 80006d6:	d81e      	bhi.n	8000716 <__aeabi_dmul+0xde>
 80006d8:	f1be 4f00 	cmp.w	lr, #2147483648	; 0x80000000
 80006dc:	bf08      	it	eq
 80006de:	ea5f 0e50 	movseq.w	lr, r0, lsr #1
 80006e2:	f150 0000 	adcs.w	r0, r0, #0
 80006e6:	eb41 5104 	adc.w	r1, r1, r4, lsl #20
 80006ea:	bd70      	pop	{r4, r5, r6, pc}
 80006ec:	f006 4600 	and.w	r6, r6, #2147483648	; 0x80000000
 80006f0:	ea46 0101 	orr.w	r1, r6, r1
 80006f4:	ea40 0002 	orr.w	r0, r0, r2
 80006f8:	ea81 0103 	eor.w	r1, r1, r3
 80006fc:	ebb4 045c 	subs.w	r4, r4, ip, lsr #1
 8000700:	bfc2      	ittt	gt
 8000702:	ebd4 050c 	rsbsgt	r5, r4, ip
 8000706:	ea41 5104 	orrgt.w	r1, r1, r4, lsl #20
 800070a:	bd70      	popgt	{r4, r5, r6, pc}
 800070c:	f441 1180 	orr.w	r1, r1, #1048576	; 0x100000
 8000710:	f04f 0e00 	mov.w	lr, #0
 8000714:	3c01      	subs	r4, #1
 8000716:	f300 80ab 	bgt.w	8000870 <__aeabi_dmul+0x238>
 800071a:	f114 0f36 	cmn.w	r4, #54	; 0x36
 800071e:	bfde      	ittt	le
 8000720:	2000      	movle	r0, #0
 8000722:	f001 4100 	andle.w	r1, r1, #2147483648	; 0x80000000
 8000726:	bd70      	pople	{r4, r5, r6, pc}
 8000728:	f1c4 0400 	rsb	r4, r4, #0
 800072c:	3c20      	subs	r4, #32
 800072e:	da35      	bge.n	800079c <__aeabi_dmul+0x164>
 8000730:	340c      	adds	r4, #12
 8000732:	dc1b      	bgt.n	800076c <__aeabi_dmul+0x134>
 8000734:	f104 0414 	add.w	r4, r4, #20
 8000738:	f1c4 0520 	rsb	r5, r4, #32
 800073c:	fa00 f305 	lsl.w	r3, r0, r5
 8000740:	fa20 f004 	lsr.w	r0, r0, r4
 8000744:	fa01 f205 	lsl.w	r2, r1, r5
 8000748:	ea40 0002 	orr.w	r0, r0, r2
 800074c:	f001 4200 	and.w	r2, r1, #2147483648	; 0x80000000
 8000750:	f021 4100 	bic.w	r1, r1, #2147483648	; 0x80000000
 8000754:	eb10 70d3 	adds.w	r0, r0, r3, lsr #31
 8000758:	fa21 f604 	lsr.w	r6, r1, r4
 800075c:	eb42 0106 	adc.w	r1, r2, r6
 8000760:	ea5e 0e43 	orrs.w	lr, lr, r3, lsl #1
 8000764:	bf08      	it	eq
 8000766:	ea20 70d3 	biceq.w	r0, r0, r3, lsr #31
 800076a:	bd70      	pop	{r4, r5, r6, pc}
 800076c:	f1c4 040c 	rsb	r4, r4, #12
 8000770:	f1c4 0520 	rsb	r5, r4, #32
 8000774:	fa00 f304 	lsl.w	r3, r0, r4
 8000778:	fa20 f005 	lsr.w	r0, r0, r5
 800077c:	fa01 f204 	lsl.w	r2, r1, r4
 8000780:	ea40 0002 	orr.w	r0, r0, r2
 8000784:	f001 4100 	and.w	r1, r1, #2147483648	; 0x80000000
 8000788:	eb10 70d3 	adds.w	r0, r0, r3, lsr #31
 800078c:	f141 0100 	adc.w	r1, r1, #0
 8000790:	ea5e 0e43 	orrs.w	lr, lr, r3, lsl #1
 8000794:	bf08      	it	eq
 8000796:	ea20 70d3 	biceq.w	r0, r0, r3, lsr #31
 800079a:	bd70      	pop	{r4, r5, r6, pc}
 800079c:	f1c4 0520 	rsb	r5, r4, #32
 80007a0:	fa00 f205 	lsl.w	r2, r0, r5
 80007a4:	ea4e 0e02 	orr.w	lr, lr, r2
 80007a8:	fa20 f304 	lsr.w	r3, r0, r4
 80007ac:	fa01 f205 	lsl.w	r2, r1, r5
 80007b0:	ea43 0302 	orr.w	r3, r3, r2
 80007b4:	fa21 f004 	lsr.w	r0, r1, r4
 80007b8:	f001 4100 	and.w	r1, r1, #2147483648	; 0x80000000
 80007bc:	fa21 f204 	lsr.w	r2, r1, r4
 80007c0:	ea20 0002 	bic.w	r0, r0, r2
 80007c4:	eb00 70d3 	add.w	r0, r0, r3, lsr #31
 80007c8:	ea5e 0e43 	orrs.w	lr, lr, r3, lsl #1
 80007cc:	bf08      	it	eq
 80007ce:	ea20 70d3 	biceq.w	r0, r0, r3, lsr #31
 80007d2:	bd70      	pop	{r4, r5, r6, pc}
 80007d4:	f094 0f00 	teq	r4, #0
 80007d8:	d10f      	bne.n	80007fa <__aeabi_dmul+0x1c2>
 80007da:	f001 4600 	and.w	r6, r1, #2147483648	; 0x80000000
 80007de:	0040      	lsls	r0, r0, #1
 80007e0:	eb41 0101 	adc.w	r1, r1, r1
 80007e4:	f411 1f80 	tst.w	r1, #1048576	; 0x100000
 80007e8:	bf08      	it	eq
 80007ea:	3c01      	subeq	r4, #1
 80007ec:	d0f7      	beq.n	80007de <__aeabi_dmul+0x1a6>
 80007ee:	ea41 0106 	orr.w	r1, r1, r6
 80007f2:	f095 0f00 	teq	r5, #0
 80007f6:	bf18      	it	ne
 80007f8:	4770      	bxne	lr
 80007fa:	f003 4600 	and.w	r6, r3, #2147483648	; 0x80000000
 80007fe:	0052      	lsls	r2, r2, #1
 8000800:	eb43 0303 	adc.w	r3, r3, r3
 8000804:	f413 1f80 	tst.w	r3, #1048576	; 0x100000
 8000808:	bf08      	it	eq
 800080a:	3d01      	subeq	r5, #1
 800080c:	d0f7      	beq.n	80007fe <__aeabi_dmul+0x1c6>
 800080e:	ea43 0306 	orr.w	r3, r3, r6
 8000812:	4770      	bx	lr
 8000814:	ea94 0f0c 	teq	r4, ip
 8000818:	ea0c 5513 	and.w	r5, ip, r3, lsr #20
 800081c:	bf18      	it	ne
 800081e:	ea95 0f0c 	teqne	r5, ip
 8000822:	d00c      	beq.n	800083e <__aeabi_dmul+0x206>
 8000824:	ea50 0641 	orrs.w	r6, r0, r1, lsl #1
 8000828:	bf18      	it	ne
 800082a:	ea52 0643 	orrsne.w	r6, r2, r3, lsl #1
 800082e:	d1d1      	bne.n	80007d4 <__aeabi_dmul+0x19c>
 8000830:	ea81 0103 	eor.w	r1, r1, r3
 8000834:	f001 4100 	and.w	r1, r1, #2147483648	; 0x80000000
 8000838:	f04f 0000 	mov.w	r0, #0
 800083c:	bd70      	pop	{r4, r5, r6, pc}
 800083e:	ea50 0641 	orrs.w	r6, r0, r1, lsl #1
 8000842:	bf06      	itte	eq
 8000844:	4610      	moveq	r0, r2
 8000846:	4619      	moveq	r1, r3
 8000848:	ea52 0643 	orrsne.w	r6, r2, r3, lsl #1
 800084c:	d019      	beq.n	8000882 <__aeabi_dmul+0x24a>
 800084e:	ea94 0f0c 	teq	r4, ip
 8000852:	d102      	bne.n	800085a <__aeabi_dmul+0x222>
 8000854:	ea50 3601 	orrs.w	r6, r0, r1, lsl #12
 8000858:	d113      	bne.n	8000882 <__aeabi_dmul+0x24a>
 800085a:	ea95 0f0c 	teq	r5, ip
 800085e:	d105      	bne.n	800086c <__aeabi_dmul+0x234>
 8000860:	ea52 3603 	orrs.w	r6, r2, r3, lsl #12
 8000864:	bf1c      	itt	ne
 8000866:	4610      	movne	r0, r2
 8000868:	4619      	movne	r1, r3
 800086a:	d10a      	bne.n	8000882 <__aeabi_dmul+0x24a>
 800086c:	ea81 0103 	eor.w	r1, r1, r3
 8000870:	f001 4100 	and.w	r1, r1, #2147483648	; 0x80000000
 8000874:	f041 41fe 	orr.w	r1, r1, #2130706432	; 0x7f000000
 8000878:	f441 0170 	orr.w	r1, r1, #15728640	; 0xf00000
 800087c:	f04f 0000 	mov.w	r0, #0
 8000880:	bd70      	pop	{r4, r5, r6, pc}
 8000882:	f041 41fe 	orr.w	r1, r1, #2130706432	; 0x7f000000
 8000886:	f441 0178 	orr.w	r1, r1, #16252928	; 0xf80000
 800088a:	bd70      	pop	{r4, r5, r6, pc}

0800088c <__aeabi_ddiv>:
 800088c:	b570      	push	{r4, r5, r6, lr}
 800088e:	f04f 0cff 	mov.w	ip, #255	; 0xff
 8000892:	f44c 6ce0 	orr.w	ip, ip, #1792	; 0x700
 8000896:	ea1c 5411 	ands.w	r4, ip, r1, lsr #20
 800089a:	bf1d      	ittte	ne
 800089c:	ea1c 5513 	andsne.w	r5, ip, r3, lsr #20
 80008a0:	ea94 0f0c 	teqne	r4, ip
 80008a4:	ea95 0f0c 	teqne	r5, ip
 80008a8:	f000 f8a7 	bleq	80009fa <__aeabi_ddiv+0x16e>
 80008ac:	eba4 0405 	sub.w	r4, r4, r5
 80008b0:	ea81 0e03 	eor.w	lr, r1, r3
 80008b4:	ea52 3503 	orrs.w	r5, r2, r3, lsl #12
 80008b8:	ea4f 3101 	mov.w	r1, r1, lsl #12
 80008bc:	f000 8088 	beq.w	80009d0 <__aeabi_ddiv+0x144>
 80008c0:	ea4f 3303 	mov.w	r3, r3, lsl #12
 80008c4:	f04f 5580 	mov.w	r5, #268435456	; 0x10000000
 80008c8:	ea45 1313 	orr.w	r3, r5, r3, lsr #4
 80008cc:	ea43 6312 	orr.w	r3, r3, r2, lsr #24
 80008d0:	ea4f 2202 	mov.w	r2, r2, lsl #8
 80008d4:	ea45 1511 	orr.w	r5, r5, r1, lsr #4
 80008d8:	ea45 6510 	orr.w	r5, r5, r0, lsr #24
 80008dc:	ea4f 2600 	mov.w	r6, r0, lsl #8
 80008e0:	f00e 4100 	and.w	r1, lr, #2147483648	; 0x80000000
 80008e4:	429d      	cmp	r5, r3
 80008e6:	bf08      	it	eq
 80008e8:	4296      	cmpeq	r6, r2
 80008ea:	f144 04fd 	adc.w	r4, r4, #253	; 0xfd
 80008ee:	f504 7440 	add.w	r4, r4, #768	; 0x300
 80008f2:	d202      	bcs.n	80008fa <__aeabi_ddiv+0x6e>
 80008f4:	085b      	lsrs	r3, r3, #1
 80008f6:	ea4f 0232 	mov.w	r2, r2, rrx
 80008fa:	1ab6      	subs	r6, r6, r2
 80008fc:	eb65 0503 	sbc.w	r5, r5, r3
 8000900:	085b      	lsrs	r3, r3, #1
 8000902:	ea4f 0232 	mov.w	r2, r2, rrx
 8000906:	f44f 1080 	mov.w	r0, #1048576	; 0x100000
 800090a:	f44f 2c00 	mov.w	ip, #524288	; 0x80000
 800090e:	ebb6 0e02 	subs.w	lr, r6, r2
 8000912:	eb75 0e03 	sbcs.w	lr, r5, r3
 8000916:	bf22      	ittt	cs
 8000918:	1ab6      	subcs	r6, r6, r2
 800091a:	4675      	movcs	r5, lr
 800091c:	ea40 000c 	orrcs.w	r0, r0, ip
 8000920:	085b      	lsrs	r3, r3, #1
 8000922:	ea4f 0232 	mov.w	r2, r2, rrx
 8000926:	ebb6 0e02 	subs.w	lr, r6, r2
 800092a:	eb75 0e03 	sbcs.w	lr, r5, r3
 800092e:	bf22      	ittt	cs
 8000930:	1ab6      	subcs	r6, r6, r2
 8000932:	4675      	movcs	r5, lr
 8000934:	ea40 005c 	orrcs.w	r0, r0, ip, lsr #1
 8000938:	085b      	lsrs	r3, r3, #1
 800093a:	ea4f 0232 	mov.w	r2, r2, rrx
 800093e:	ebb6 0e02 	subs.w	lr, r6, r2
 8000942:	eb75 0e03 	sbcs.w	lr, r5, r3
 8000946:	bf22      	ittt	cs
 8000948:	1ab6      	subcs	r6, r6, r2
 800094a:	4675      	movcs	r5, lr
 800094c:	ea40 009c 	orrcs.w	r0, r0, ip, lsr #2
 8000950:	085b      	lsrs	r3, r3, #1
 8000952:	ea4f 0232 	mov.w	r2, r2, rrx
 8000956:	ebb6 0e02 	subs.w	lr, r6, r2
 800095a:	eb75 0e03 	sbcs.w	lr, r5, r3
 800095e:	bf22      	ittt	cs
 8000960:	1ab6      	subcs	r6, r6, r2
 8000962:	4675      	movcs	r5, lr
 8000964:	ea40 00dc 	orrcs.w	r0, r0, ip, lsr #3
 8000968:	ea55 0e06 	orrs.w	lr, r5, r6
 800096c:	d018      	beq.n	80009a0 <__aeabi_ddiv+0x114>
 800096e:	ea4f 1505 	mov.w	r5, r5, lsl #4
 8000972:	ea45 7516 	orr.w	r5, r5, r6, lsr #28
 8000976:	ea4f 1606 	mov.w	r6, r6, lsl #4
 800097a:	ea4f 03c3 	mov.w	r3, r3, lsl #3
 800097e:	ea43 7352 	orr.w	r3, r3, r2, lsr #29
 8000982:	ea4f 02c2 	mov.w	r2, r2, lsl #3
 8000986:	ea5f 1c1c 	movs.w	ip, ip, lsr #4
 800098a:	d1c0      	bne.n	800090e <__aeabi_ddiv+0x82>
 800098c:	f411 1f80 	tst.w	r1, #1048576	; 0x100000
 8000990:	d10b      	bne.n	80009aa <__aeabi_ddiv+0x11e>
 8000992:	ea41 0100 	orr.w	r1, r1, r0
 8000996:	f04f 0000 	mov.w	r0, #0
 800099a:	f04f 4c00 	mov.w	ip, #2147483648	; 0x80000000
 800099e:	e7b6      	b.n	800090e <__aeabi_ddiv+0x82>
 80009a0:	f411 1f80 	tst.w	r1, #1048576	; 0x100000
 80009a4:	bf04      	itt	eq
 80009a6:	4301      	orreq	r1, r0
 80009a8:	2000      	moveq	r0, #0
 80009aa:	f1b4 0cfd 	subs.w	ip, r4, #253	; 0xfd
 80009ae:	bf88      	it	hi
 80009b0:	f5bc 6fe0 	cmphi.w	ip, #1792	; 0x700
 80009b4:	f63f aeaf 	bhi.w	8000716 <__aeabi_dmul+0xde>
 80009b8:	ebb5 0c03 	subs.w	ip, r5, r3
 80009bc:	bf04      	itt	eq
 80009be:	ebb6 0c02 	subseq.w	ip, r6, r2
 80009c2:	ea5f 0c50 	movseq.w	ip, r0, lsr #1
 80009c6:	f150 0000 	adcs.w	r0, r0, #0
 80009ca:	eb41 5104 	adc.w	r1, r1, r4, lsl #20
 80009ce:	bd70      	pop	{r4, r5, r6, pc}
 80009d0:	f00e 4e00 	and.w	lr, lr, #2147483648	; 0x80000000
 80009d4:	ea4e 3111 	orr.w	r1, lr, r1, lsr #12
 80009d8:	eb14 045c 	adds.w	r4, r4, ip, lsr #1
 80009dc:	bfc2      	ittt	gt
 80009de:	ebd4 050c 	rsbsgt	r5, r4, ip
 80009e2:	ea41 5104 	orrgt.w	r1, r1, r4, lsl #20
 80009e6:	bd70      	popgt	{r4, r5, r6, pc}
 80009e8:	f441 1180 	orr.w	r1, r1, #1048576	; 0x100000
 80009ec:	f04f 0e00 	mov.w	lr, #0
 80009f0:	3c01      	subs	r4, #1
 80009f2:	e690      	b.n	8000716 <__aeabi_dmul+0xde>
 80009f4:	ea45 0e06 	orr.w	lr, r5, r6
 80009f8:	e68d      	b.n	8000716 <__aeabi_dmul+0xde>
 80009fa:	ea0c 5513 	and.w	r5, ip, r3, lsr #20
 80009fe:	ea94 0f0c 	teq	r4, ip
 8000a02:	bf08      	it	eq
 8000a04:	ea95 0f0c 	teqeq	r5, ip
 8000a08:	f43f af3b 	beq.w	8000882 <__aeabi_dmul+0x24a>
 8000a0c:	ea94 0f0c 	teq	r4, ip
 8000a10:	d10a      	bne.n	8000a28 <__aeabi_ddiv+0x19c>
 8000a12:	ea50 3401 	orrs.w	r4, r0, r1, lsl #12
 8000a16:	f47f af34 	bne.w	8000882 <__aeabi_dmul+0x24a>
 8000a1a:	ea95 0f0c 	teq	r5, ip
 8000a1e:	f47f af25 	bne.w	800086c <__aeabi_dmul+0x234>
 8000a22:	4610      	mov	r0, r2
 8000a24:	4619      	mov	r1, r3
 8000a26:	e72c      	b.n	8000882 <__aeabi_dmul+0x24a>
 8000a28:	ea95 0f0c 	teq	r5, ip
 8000a2c:	d106      	bne.n	8000a3c <__aeabi_ddiv+0x1b0>
 8000a2e:	ea52 3503 	orrs.w	r5, r2, r3, lsl #12
 8000a32:	f43f aefd 	beq.w	8000830 <__aeabi_dmul+0x1f8>
 8000a36:	4610      	mov	r0, r2
 8000a38:	4619      	mov	r1, r3
 8000a3a:	e722      	b.n	8000882 <__aeabi_dmul+0x24a>
 8000a3c:	ea50 0641 	orrs.w	r6, r0, r1, lsl #1
 8000a40:	bf18      	it	ne
 8000a42:	ea52 0643 	orrsne.w	r6, r2, r3, lsl #1
 8000a46:	f47f aec5 	bne.w	80007d4 <__aeabi_dmul+0x19c>
 8000a4a:	ea50 0441 	orrs.w	r4, r0, r1, lsl #1
 8000a4e:	f47f af0d 	bne.w	800086c <__aeabi_dmul+0x234>
 8000a52:	ea52 0543 	orrs.w	r5, r2, r3, lsl #1
 8000a56:	f47f aeeb 	bne.w	8000830 <__aeabi_dmul+0x1f8>
 8000a5a:	e712      	b.n	8000882 <__aeabi_dmul+0x24a>

08000a5c <__gedf2>:
 8000a5c:	f04f 3cff 	mov.w	ip, #4294967295
 8000a60:	e006      	b.n	8000a70 <__cmpdf2+0x4>
 8000a62:	bf00      	nop

08000a64 <__ledf2>:
 8000a64:	f04f 0c01 	mov.w	ip, #1
 8000a68:	e002      	b.n	8000a70 <__cmpdf2+0x4>
 8000a6a:	bf00      	nop

08000a6c <__cmpdf2>:
 8000a6c:	f04f 0c01 	mov.w	ip, #1
 8000a70:	f84d cd04 	str.w	ip, [sp, #-4]!
 8000a74:	ea4f 0c41 	mov.w	ip, r1, lsl #1
 8000a78:	ea7f 5c6c 	mvns.w	ip, ip, asr #21
 8000a7c:	ea4f 0c43 	mov.w	ip, r3, lsl #1
 8000a80:	bf18      	it	ne
 8000a82:	ea7f 5c6c 	mvnsne.w	ip, ip, asr #21
 8000a86:	d01b      	beq.n	8000ac0 <__cmpdf2+0x54>
 8000a88:	b001      	add	sp, #4
 8000a8a:	ea50 0c41 	orrs.w	ip, r0, r1, lsl #1
 8000a8e:	bf0c      	ite	eq
 8000a90:	ea52 0c43 	orrseq.w	ip, r2, r3, lsl #1
 8000a94:	ea91 0f03 	teqne	r1, r3
 8000a98:	bf02      	ittt	eq
 8000a9a:	ea90 0f02 	teqeq	r0, r2
 8000a9e:	2000      	moveq	r0, #0
 8000aa0:	4770      	bxeq	lr
 8000aa2:	f110 0f00 	cmn.w	r0, #0
 8000aa6:	ea91 0f03 	teq	r1, r3
 8000aaa:	bf58      	it	pl
 8000aac:	4299      	cmppl	r1, r3
 8000aae:	bf08      	it	eq
 8000ab0:	4290      	cmpeq	r0, r2
 8000ab2:	bf2c      	ite	cs
 8000ab4:	17d8      	asrcs	r0, r3, #31
 8000ab6:	ea6f 70e3 	mvncc.w	r0, r3, asr #31
 8000aba:	f040 0001 	orr.w	r0, r0, #1
 8000abe:	4770      	bx	lr
 8000ac0:	ea4f 0c41 	mov.w	ip, r1, lsl #1
 8000ac4:	ea7f 5c6c 	mvns.w	ip, ip, asr #21
 8000ac8:	d102      	bne.n	8000ad0 <__cmpdf2+0x64>
 8000aca:	ea50 3c01 	orrs.w	ip, r0, r1, lsl #12
 8000ace:	d107      	bne.n	8000ae0 <__cmpdf2+0x74>
 8000ad0:	ea4f 0c43 	mov.w	ip, r3, lsl #1
 8000ad4:	ea7f 5c6c 	mvns.w	ip, ip, asr #21
 8000ad8:	d1d6      	bne.n	8000a88 <__cmpdf2+0x1c>
 8000ada:	ea52 3c03 	orrs.w	ip, r2, r3, lsl #12
 8000ade:	d0d3      	beq.n	8000a88 <__cmpdf2+0x1c>
 8000ae0:	f85d 0b04 	ldr.w	r0, [sp], #4
 8000ae4:	4770      	bx	lr
 8000ae6:	bf00      	nop

08000ae8 <__aeabi_cdrcmple>:
 8000ae8:	4684      	mov	ip, r0
 8000aea:	4610      	mov	r0, r2
 8000aec:	4662      	mov	r2, ip
 8000aee:	468c      	mov	ip, r1
 8000af0:	4619      	mov	r1, r3
 8000af2:	4663      	mov	r3, ip
 8000af4:	e000      	b.n	8000af8 <__aeabi_cdcmpeq>
 8000af6:	bf00      	nop

08000af8 <__aeabi_cdcmpeq>:
 8000af8:	b501      	push	{r0, lr}
 8000afa:	f7ff ffb7 	bl	8000a6c <__cmpdf2>
 8000afe:	2800      	cmp	r0, #0
 8000b00:	bf48      	it	mi
 8000b02:	f110 0f00 	cmnmi.w	r0, #0
 8000b06:	bd01      	pop	{r0, pc}

08000b08 <__aeabi_dcmpeq>:
 8000b08:	f84d ed08 	str.w	lr, [sp, #-8]!
 8000b0c:	f7ff fff4 	bl	8000af8 <__aeabi_cdcmpeq>
 8000b10:	bf0c      	ite	eq
 8000b12:	2001      	moveq	r0, #1
 8000b14:	2000      	movne	r0, #0
 8000b16:	f85d fb08 	ldr.w	pc, [sp], #8
 8000b1a:	bf00      	nop

08000b1c <__aeabi_dcmplt>:
 8000b1c:	f84d ed08 	str.w	lr, [sp, #-8]!
 8000b20:	f7ff ffea 	bl	8000af8 <__aeabi_cdcmpeq>
 8000b24:	bf34      	ite	cc
 8000b26:	2001      	movcc	r0, #1
 8000b28:	2000      	movcs	r0, #0
 8000b2a:	f85d fb08 	ldr.w	pc, [sp], #8
 8000b2e:	bf00      	nop

08000b30 <__aeabi_dcmple>:
 8000b30:	f84d ed08 	str.w	lr, [sp, #-8]!
 8000b34:	f7ff ffe0 	bl	8000af8 <__aeabi_cdcmpeq>
 8000b38:	bf94      	ite	ls
 8000b3a:	2001      	movls	r0, #1
 8000b3c:	2000      	movhi	r0, #0
 8000b3e:	f85d fb08 	ldr.w	pc, [sp], #8
 8000b42:	bf00      	nop

08000b44 <__aeabi_dcmpge>:
 8000b44:	f84d ed08 	str.w	lr, [sp, #-8]!
 8000b48:	f7ff ffce 	bl	8000ae8 <__aeabi_cdrcmple>
 8000b4c:	bf94      	ite	ls
 8000b4e:	2001      	movls	r0, #1
 8000b50:	2000      	movhi	r0, #0
 8000b52:	f85d fb08 	ldr.w	pc, [sp], #8
 8000b56:	bf00      	nop

08000b58 <__aeabi_dcmpgt>:
 8000b58:	f84d ed08 	str.w	lr, [sp, #-8]!
 8000b5c:	f7ff ffc4 	bl	8000ae8 <__aeabi_cdrcmple>
 8000b60:	bf34      	ite	cc
 8000b62:	2001      	movcc	r0, #1
 8000b64:	2000      	movcs	r0, #0
 8000b66:	f85d fb08 	ldr.w	pc, [sp], #8
 8000b6a:	bf00      	nop

08000b6c <__aeabi_dcmpun>:
 8000b6c:	ea4f 0c41 	mov.w	ip, r1, lsl #1
 8000b70:	ea7f 5c6c 	mvns.w	ip, ip, asr #21
 8000b74:	d102      	bne.n	8000b7c <__aeabi_dcmpun+0x10>
 8000b76:	ea50 3c01 	orrs.w	ip, r0, r1, lsl #12
 8000b7a:	d10a      	bne.n	8000b92 <__aeabi_dcmpun+0x26>
 8000b7c:	ea4f 0c43 	mov.w	ip, r3, lsl #1
 8000b80:	ea7f 5c6c 	mvns.w	ip, ip, asr #21
 8000b84:	d102      	bne.n	8000b8c <__aeabi_dcmpun+0x20>
 8000b86:	ea52 3c03 	orrs.w	ip, r2, r3, lsl #12
 8000b8a:	d102      	bne.n	8000b92 <__aeabi_dcmpun+0x26>
 8000b8c:	f04f 0000 	mov.w	r0, #0
 8000b90:	4770      	bx	lr
 8000b92:	f04f 0001 	mov.w	r0, #1
 8000b96:	4770      	bx	lr

08000b98 <__aeabi_d2iz>:
 8000b98:	ea4f 0241 	mov.w	r2, r1, lsl #1
 8000b9c:	f512 1200 	adds.w	r2, r2, #2097152	; 0x200000
 8000ba0:	d215      	bcs.n	8000bce <__aeabi_d2iz+0x36>
 8000ba2:	d511      	bpl.n	8000bc8 <__aeabi_d2iz+0x30>
 8000ba4:	f46f 7378 	mvn.w	r3, #992	; 0x3e0
 8000ba8:	ebb3 5262 	subs.w	r2, r3, r2, asr #21
 8000bac:	d912      	bls.n	8000bd4 <__aeabi_d2iz+0x3c>
 8000bae:	ea4f 23c1 	mov.w	r3, r1, lsl #11
 8000bb2:	f043 4300 	orr.w	r3, r3, #2147483648	; 0x80000000
 8000bb6:	ea43 5350 	orr.w	r3, r3, r0, lsr #21
 8000bba:	f011 4f00 	tst.w	r1, #2147483648	; 0x80000000
 8000bbe:	fa23 f002 	lsr.w	r0, r3, r2
 8000bc2:	bf18      	it	ne
 8000bc4:	4240      	negne	r0, r0
 8000bc6:	4770      	bx	lr
 8000bc8:	f04f 0000 	mov.w	r0, #0
 8000bcc:	4770      	bx	lr
 8000bce:	ea50 3001 	orrs.w	r0, r0, r1, lsl #12
 8000bd2:	d105      	bne.n	8000be0 <__aeabi_d2iz+0x48>
 8000bd4:	f011 4000 	ands.w	r0, r1, #2147483648	; 0x80000000
 8000bd8:	bf08      	it	eq
 8000bda:	f06f 4000 	mvneq.w	r0, #2147483648	; 0x80000000
 8000bde:	4770      	bx	lr
 8000be0:	f04f 0000 	mov.w	r0, #0
 8000be4:	4770      	bx	lr
 8000be6:	bf00      	nop

08000be8 <__aeabi_d2f>:
 8000be8:	ea4f 0241 	mov.w	r2, r1, lsl #1
 8000bec:	f1b2 43e0 	subs.w	r3, r2, #1879048192	; 0x70000000
 8000bf0:	bf24      	itt	cs
 8000bf2:	f5b3 1c00 	subscs.w	ip, r3, #2097152	; 0x200000
 8000bf6:	f1dc 5cfe 	rsbscs	ip, ip, #532676608	; 0x1fc00000
 8000bfa:	d90d      	bls.n	8000c18 <__aeabi_d2f+0x30>
 8000bfc:	f001 4c00 	and.w	ip, r1, #2147483648	; 0x80000000
 8000c00:	ea4f 02c0 	mov.w	r2, r0, lsl #3
 8000c04:	ea4c 7050 	orr.w	r0, ip, r0, lsr #29
 8000c08:	f1b2 4f00 	cmp.w	r2, #2147483648	; 0x80000000
 8000c0c:	eb40 0083 	adc.w	r0, r0, r3, lsl #2
 8000c10:	bf08      	it	eq
 8000c12:	f020 0001 	biceq.w	r0, r0, #1
 8000c16:	4770      	bx	lr
 8000c18:	f011 4f80 	tst.w	r1, #1073741824	; 0x40000000
 8000c1c:	d121      	bne.n	8000c62 <__aeabi_d2f+0x7a>
 8000c1e:	f113 7238 	adds.w	r2, r3, #48234496	; 0x2e00000
 8000c22:	bfbc      	itt	lt
 8000c24:	f001 4000 	andlt.w	r0, r1, #2147483648	; 0x80000000
 8000c28:	4770      	bxlt	lr
 8000c2a:	f441 1180 	orr.w	r1, r1, #1048576	; 0x100000
 8000c2e:	ea4f 5252 	mov.w	r2, r2, lsr #21
 8000c32:	f1c2 0218 	rsb	r2, r2, #24
 8000c36:	f1c2 0c20 	rsb	ip, r2, #32
 8000c3a:	fa10 f30c 	lsls.w	r3, r0, ip
 8000c3e:	fa20 f002 	lsr.w	r0, r0, r2
 8000c42:	bf18      	it	ne
 8000c44:	f040 0001 	orrne.w	r0, r0, #1
 8000c48:	ea4f 23c1 	mov.w	r3, r1, lsl #11
 8000c4c:	ea4f 23d3 	mov.w	r3, r3, lsr #11
 8000c50:	fa03 fc0c 	lsl.w	ip, r3, ip
 8000c54:	ea40 000c 	orr.w	r0, r0, ip
 8000c58:	fa23 f302 	lsr.w	r3, r3, r2
 8000c5c:	ea4f 0343 	mov.w	r3, r3, lsl #1
 8000c60:	e7cc      	b.n	8000bfc <__aeabi_d2f+0x14>
 8000c62:	ea7f 5362 	mvns.w	r3, r2, asr #21
 8000c66:	d107      	bne.n	8000c78 <__aeabi_d2f+0x90>
 8000c68:	ea50 3301 	orrs.w	r3, r0, r1, lsl #12
 8000c6c:	bf1e      	ittt	ne
 8000c6e:	f04f 40fe 	movne.w	r0, #2130706432	; 0x7f000000
 8000c72:	f440 0040 	orrne.w	r0, r0, #12582912	; 0xc00000
 8000c76:	4770      	bxne	lr
 8000c78:	f001 4000 	and.w	r0, r1, #2147483648	; 0x80000000
 8000c7c:	f040 40fe 	orr.w	r0, r0, #2130706432	; 0x7f000000
 8000c80:	f440 0000 	orr.w	r0, r0, #8388608	; 0x800000
 8000c84:	4770      	bx	lr
 8000c86:	bf00      	nop

08000c88 <__aeabi_uldivmod>:
 8000c88:	b953      	cbnz	r3, 8000ca0 <__aeabi_uldivmod+0x18>
 8000c8a:	b94a      	cbnz	r2, 8000ca0 <__aeabi_uldivmod+0x18>
 8000c8c:	2900      	cmp	r1, #0
 8000c8e:	bf08      	it	eq
 8000c90:	2800      	cmpeq	r0, #0
 8000c92:	bf1c      	itt	ne
 8000c94:	f04f 31ff 	movne.w	r1, #4294967295
 8000c98:	f04f 30ff 	movne.w	r0, #4294967295
 8000c9c:	f000 b96e 	b.w	8000f7c <__aeabi_idiv0>
 8000ca0:	f1ad 0c08 	sub.w	ip, sp, #8
 8000ca4:	e96d ce04 	strd	ip, lr, [sp, #-16]!
 8000ca8:	f000 f806 	bl	8000cb8 <__udivmoddi4>
 8000cac:	f8dd e004 	ldr.w	lr, [sp, #4]
 8000cb0:	e9dd 2302 	ldrd	r2, r3, [sp, #8]
 8000cb4:	b004      	add	sp, #16
 8000cb6:	4770      	bx	lr

08000cb8 <__udivmoddi4>:
 8000cb8:	e92d 47f0 	stmdb	sp!, {r4, r5, r6, r7, r8, r9, sl, lr}
 8000cbc:	9d08      	ldr	r5, [sp, #32]
 8000cbe:	4604      	mov	r4, r0
 8000cc0:	468c      	mov	ip, r1
 8000cc2:	2b00      	cmp	r3, #0
 8000cc4:	f040 8083 	bne.w	8000dce <__udivmoddi4+0x116>
 8000cc8:	428a      	cmp	r2, r1
 8000cca:	4617      	mov	r7, r2
 8000ccc:	d947      	bls.n	8000d5e <__udivmoddi4+0xa6>
 8000cce:	fab2 f282 	clz	r2, r2
 8000cd2:	b142      	cbz	r2, 8000ce6 <__udivmoddi4+0x2e>
 8000cd4:	f1c2 0020 	rsb	r0, r2, #32
 8000cd8:	fa24 f000 	lsr.w	r0, r4, r0
 8000cdc:	4091      	lsls	r1, r2
 8000cde:	4097      	lsls	r7, r2
 8000ce0:	ea40 0c01 	orr.w	ip, r0, r1
 8000ce4:	4094      	lsls	r4, r2
 8000ce6:	ea4f 4817 	mov.w	r8, r7, lsr #16
 8000cea:	0c23      	lsrs	r3, r4, #16
 8000cec:	fbbc f6f8 	udiv	r6, ip, r8
 8000cf0:	fa1f fe87 	uxth.w	lr, r7
 8000cf4:	fb08 c116 	mls	r1, r8, r6, ip
 8000cf8:	ea43 4301 	orr.w	r3, r3, r1, lsl #16
 8000cfc:	fb06 f10e 	mul.w	r1, r6, lr
 8000d00:	4299      	cmp	r1, r3
 8000d02:	d909      	bls.n	8000d18 <__udivmoddi4+0x60>
 8000d04:	18fb      	adds	r3, r7, r3
 8000d06:	f106 30ff 	add.w	r0, r6, #4294967295
 8000d0a:	f080 8119 	bcs.w	8000f40 <__udivmoddi4+0x288>
 8000d0e:	4299      	cmp	r1, r3
 8000d10:	f240 8116 	bls.w	8000f40 <__udivmoddi4+0x288>
 8000d14:	3e02      	subs	r6, #2
 8000d16:	443b      	add	r3, r7
 8000d18:	1a5b      	subs	r3, r3, r1
 8000d1a:	b2a4      	uxth	r4, r4
 8000d1c:	fbb3 f0f8 	udiv	r0, r3, r8
 8000d20:	fb08 3310 	mls	r3, r8, r0, r3
 8000d24:	ea44 4403 	orr.w	r4, r4, r3, lsl #16
 8000d28:	fb00 fe0e 	mul.w	lr, r0, lr
 8000d2c:	45a6      	cmp	lr, r4
 8000d2e:	d909      	bls.n	8000d44 <__udivmoddi4+0x8c>
 8000d30:	193c      	adds	r4, r7, r4
 8000d32:	f100 33ff 	add.w	r3, r0, #4294967295
 8000d36:	f080 8105 	bcs.w	8000f44 <__udivmoddi4+0x28c>
 8000d3a:	45a6      	cmp	lr, r4
 8000d3c:	f240 8102 	bls.w	8000f44 <__udivmoddi4+0x28c>
 8000d40:	3802      	subs	r0, #2
 8000d42:	443c      	add	r4, r7
 8000d44:	ea40 4006 	orr.w	r0, r0, r6, lsl #16
 8000d48:	eba4 040e 	sub.w	r4, r4, lr
 8000d4c:	2600      	movs	r6, #0
 8000d4e:	b11d      	cbz	r5, 8000d58 <__udivmoddi4+0xa0>
 8000d50:	40d4      	lsrs	r4, r2
 8000d52:	2300      	movs	r3, #0
 8000d54:	e9c5 4300 	strd	r4, r3, [r5]
 8000d58:	4631      	mov	r1, r6
 8000d5a:	e8bd 87f0 	ldmia.w	sp!, {r4, r5, r6, r7, r8, r9, sl, pc}
 8000d5e:	b902      	cbnz	r2, 8000d62 <__udivmoddi4+0xaa>
 8000d60:	deff      	udf	#255	; 0xff
 8000d62:	fab2 f282 	clz	r2, r2
 8000d66:	2a00      	cmp	r2, #0
 8000d68:	d150      	bne.n	8000e0c <__udivmoddi4+0x154>
 8000d6a:	1bcb      	subs	r3, r1, r7
 8000d6c:	ea4f 4e17 	mov.w	lr, r7, lsr #16
 8000d70:	fa1f f887 	uxth.w	r8, r7
 8000d74:	2601      	movs	r6, #1
 8000d76:	fbb3 fcfe 	udiv	ip, r3, lr
 8000d7a:	0c21      	lsrs	r1, r4, #16
 8000d7c:	fb0e 331c 	mls	r3, lr, ip, r3
 8000d80:	ea41 4103 	orr.w	r1, r1, r3, lsl #16
 8000d84:	fb08 f30c 	mul.w	r3, r8, ip
 8000d88:	428b      	cmp	r3, r1
 8000d8a:	d907      	bls.n	8000d9c <__udivmoddi4+0xe4>
 8000d8c:	1879      	adds	r1, r7, r1
 8000d8e:	f10c 30ff 	add.w	r0, ip, #4294967295
 8000d92:	d202      	bcs.n	8000d9a <__udivmoddi4+0xe2>
 8000d94:	428b      	cmp	r3, r1
 8000d96:	f200 80e9 	bhi.w	8000f6c <__udivmoddi4+0x2b4>
 8000d9a:	4684      	mov	ip, r0
 8000d9c:	1ac9      	subs	r1, r1, r3
 8000d9e:	b2a3      	uxth	r3, r4
 8000da0:	fbb1 f0fe 	udiv	r0, r1, lr
 8000da4:	fb0e 1110 	mls	r1, lr, r0, r1
 8000da8:	ea43 4401 	orr.w	r4, r3, r1, lsl #16
 8000dac:	fb08 f800 	mul.w	r8, r8, r0
 8000db0:	45a0      	cmp	r8, r4
 8000db2:	d907      	bls.n	8000dc4 <__udivmoddi4+0x10c>
 8000db4:	193c      	adds	r4, r7, r4
 8000db6:	f100 33ff 	add.w	r3, r0, #4294967295
 8000dba:	d202      	bcs.n	8000dc2 <__udivmoddi4+0x10a>
 8000dbc:	45a0      	cmp	r8, r4
 8000dbe:	f200 80d9 	bhi.w	8000f74 <__udivmoddi4+0x2bc>
 8000dc2:	4618      	mov	r0, r3
 8000dc4:	eba4 0408 	sub.w	r4, r4, r8
 8000dc8:	ea40 400c 	orr.w	r0, r0, ip, lsl #16
 8000dcc:	e7bf      	b.n	8000d4e <__udivmoddi4+0x96>
 8000dce:	428b      	cmp	r3, r1
 8000dd0:	d909      	bls.n	8000de6 <__udivmoddi4+0x12e>
 8000dd2:	2d00      	cmp	r5, #0
 8000dd4:	f000 80b1 	beq.w	8000f3a <__udivmoddi4+0x282>
 8000dd8:	2600      	movs	r6, #0
 8000dda:	e9c5 0100 	strd	r0, r1, [r5]
 8000dde:	4630      	mov	r0, r6
 8000de0:	4631      	mov	r1, r6
 8000de2:	e8bd 87f0 	ldmia.w	sp!, {r4, r5, r6, r7, r8, r9, sl, pc}
 8000de6:	fab3 f683 	clz	r6, r3
 8000dea:	2e00      	cmp	r6, #0
 8000dec:	d14a      	bne.n	8000e84 <__udivmoddi4+0x1cc>
 8000dee:	428b      	cmp	r3, r1
 8000df0:	d302      	bcc.n	8000df8 <__udivmoddi4+0x140>
 8000df2:	4282      	cmp	r2, r0
 8000df4:	f200 80b8 	bhi.w	8000f68 <__udivmoddi4+0x2b0>
 8000df8:	1a84      	subs	r4, r0, r2
 8000dfa:	eb61 0103 	sbc.w	r1, r1, r3
 8000dfe:	2001      	movs	r0, #1
 8000e00:	468c      	mov	ip, r1
 8000e02:	2d00      	cmp	r5, #0
 8000e04:	d0a8      	beq.n	8000d58 <__udivmoddi4+0xa0>
 8000e06:	e9c5 4c00 	strd	r4, ip, [r5]
 8000e0a:	e7a5      	b.n	8000d58 <__udivmoddi4+0xa0>
 8000e0c:	f1c2 0320 	rsb	r3, r2, #32
 8000e10:	fa20 f603 	lsr.w	r6, r0, r3
 8000e14:	4097      	lsls	r7, r2
 8000e16:	fa01 f002 	lsl.w	r0, r1, r2
 8000e1a:	ea4f 4e17 	mov.w	lr, r7, lsr #16
 8000e1e:	40d9      	lsrs	r1, r3
 8000e20:	4330      	orrs	r0, r6
 8000e22:	0c03      	lsrs	r3, r0, #16
 8000e24:	fbb1 f6fe 	udiv	r6, r1, lr
 8000e28:	fa1f f887 	uxth.w	r8, r7
 8000e2c:	fb0e 1116 	mls	r1, lr, r6, r1
 8000e30:	ea43 4301 	orr.w	r3, r3, r1, lsl #16
 8000e34:	fb06 f108 	mul.w	r1, r6, r8
 8000e38:	4299      	cmp	r1, r3
 8000e3a:	fa04 f402 	lsl.w	r4, r4, r2
 8000e3e:	d909      	bls.n	8000e54 <__udivmoddi4+0x19c>
 8000e40:	18fb      	adds	r3, r7, r3
 8000e42:	f106 3cff 	add.w	ip, r6, #4294967295
 8000e46:	f080 808d 	bcs.w	8000f64 <__udivmoddi4+0x2ac>
 8000e4a:	4299      	cmp	r1, r3
 8000e4c:	f240 808a 	bls.w	8000f64 <__udivmoddi4+0x2ac>
 8000e50:	3e02      	subs	r6, #2
 8000e52:	443b      	add	r3, r7
 8000e54:	1a5b      	subs	r3, r3, r1
 8000e56:	b281      	uxth	r1, r0
 8000e58:	fbb3 f0fe 	udiv	r0, r3, lr
 8000e5c:	fb0e 3310 	mls	r3, lr, r0, r3
 8000e60:	ea41 4103 	orr.w	r1, r1, r3, lsl #16
 8000e64:	fb00 f308 	mul.w	r3, r0, r8
 8000e68:	428b      	cmp	r3, r1
 8000e6a:	d907      	bls.n	8000e7c <__udivmoddi4+0x1c4>
 8000e6c:	1879      	adds	r1, r7, r1
 8000e6e:	f100 3cff 	add.w	ip, r0, #4294967295
 8000e72:	d273      	bcs.n	8000f5c <__udivmoddi4+0x2a4>
 8000e74:	428b      	cmp	r3, r1
 8000e76:	d971      	bls.n	8000f5c <__udivmoddi4+0x2a4>
 8000e78:	3802      	subs	r0, #2
 8000e7a:	4439      	add	r1, r7
 8000e7c:	1acb      	subs	r3, r1, r3
 8000e7e:	ea40 4606 	orr.w	r6, r0, r6, lsl #16
 8000e82:	e778      	b.n	8000d76 <__udivmoddi4+0xbe>
 8000e84:	f1c6 0c20 	rsb	ip, r6, #32
 8000e88:	fa03 f406 	lsl.w	r4, r3, r6
 8000e8c:	fa22 f30c 	lsr.w	r3, r2, ip
 8000e90:	431c      	orrs	r4, r3
 8000e92:	fa20 f70c 	lsr.w	r7, r0, ip
 8000e96:	fa01 f306 	lsl.w	r3, r1, r6
 8000e9a:	ea4f 4e14 	mov.w	lr, r4, lsr #16
 8000e9e:	fa21 f10c 	lsr.w	r1, r1, ip
 8000ea2:	431f      	orrs	r7, r3
 8000ea4:	0c3b      	lsrs	r3, r7, #16
 8000ea6:	fbb1 f9fe 	udiv	r9, r1, lr
 8000eaa:	fa1f f884 	uxth.w	r8, r4
 8000eae:	fb0e 1119 	mls	r1, lr, r9, r1
 8000eb2:	ea43 4101 	orr.w	r1, r3, r1, lsl #16
 8000eb6:	fb09 fa08 	mul.w	sl, r9, r8
 8000eba:	458a      	cmp	sl, r1
 8000ebc:	fa02 f206 	lsl.w	r2, r2, r6
 8000ec0:	fa00 f306 	lsl.w	r3, r0, r6
 8000ec4:	d908      	bls.n	8000ed8 <__udivmoddi4+0x220>
 8000ec6:	1861      	adds	r1, r4, r1
 8000ec8:	f109 30ff 	add.w	r0, r9, #4294967295
 8000ecc:	d248      	bcs.n	8000f60 <__udivmoddi4+0x2a8>
 8000ece:	458a      	cmp	sl, r1
 8000ed0:	d946      	bls.n	8000f60 <__udivmoddi4+0x2a8>
 8000ed2:	f1a9 0902 	sub.w	r9, r9, #2
 8000ed6:	4421      	add	r1, r4
 8000ed8:	eba1 010a 	sub.w	r1, r1, sl
 8000edc:	b2bf      	uxth	r7, r7
 8000ede:	fbb1 f0fe 	udiv	r0, r1, lr
 8000ee2:	fb0e 1110 	mls	r1, lr, r0, r1
 8000ee6:	ea47 4701 	orr.w	r7, r7, r1, lsl #16
 8000eea:	fb00 f808 	mul.w	r8, r0, r8
 8000eee:	45b8      	cmp	r8, r7
 8000ef0:	d907      	bls.n	8000f02 <__udivmoddi4+0x24a>
 8000ef2:	19e7      	adds	r7, r4, r7
 8000ef4:	f100 31ff 	add.w	r1, r0, #4294967295
 8000ef8:	d22e      	bcs.n	8000f58 <__udivmoddi4+0x2a0>
 8000efa:	45b8      	cmp	r8, r7
 8000efc:	d92c      	bls.n	8000f58 <__udivmoddi4+0x2a0>
 8000efe:	3802      	subs	r0, #2
 8000f00:	4427      	add	r7, r4
 8000f02:	ea40 4009 	orr.w	r0, r0, r9, lsl #16
 8000f06:	eba7 0708 	sub.w	r7, r7, r8
 8000f0a:	fba0 8902 	umull	r8, r9, r0, r2
 8000f0e:	454f      	cmp	r7, r9
 8000f10:	46c6      	mov	lr, r8
 8000f12:	4649      	mov	r1, r9
 8000f14:	d31a      	bcc.n	8000f4c <__udivmoddi4+0x294>
 8000f16:	d017      	beq.n	8000f48 <__udivmoddi4+0x290>
 8000f18:	b15d      	cbz	r5, 8000f32 <__udivmoddi4+0x27a>
 8000f1a:	ebb3 020e 	subs.w	r2, r3, lr
 8000f1e:	eb67 0701 	sbc.w	r7, r7, r1
 8000f22:	fa07 fc0c 	lsl.w	ip, r7, ip
 8000f26:	40f2      	lsrs	r2, r6
 8000f28:	ea4c 0202 	orr.w	r2, ip, r2
 8000f2c:	40f7      	lsrs	r7, r6
 8000f2e:	e9c5 2700 	strd	r2, r7, [r5]
 8000f32:	2600      	movs	r6, #0
 8000f34:	4631      	mov	r1, r6
 8000f36:	e8bd 87f0 	ldmia.w	sp!, {r4, r5, r6, r7, r8, r9, sl, pc}
 8000f3a:	462e      	mov	r6, r5
 8000f3c:	4628      	mov	r0, r5
 8000f3e:	e70b      	b.n	8000d58 <__udivmoddi4+0xa0>
 8000f40:	4606      	mov	r6, r0
 8000f42:	e6e9      	b.n	8000d18 <__udivmoddi4+0x60>
 8000f44:	4618      	mov	r0, r3
 8000f46:	e6fd      	b.n	8000d44 <__udivmoddi4+0x8c>
 8000f48:	4543      	cmp	r3, r8
 8000f4a:	d2e5      	bcs.n	8000f18 <__udivmoddi4+0x260>
 8000f4c:	ebb8 0e02 	subs.w	lr, r8, r2
 8000f50:	eb69 0104 	sbc.w	r1, r9, r4
 8000f54:	3801      	subs	r0, #1
 8000f56:	e7df      	b.n	8000f18 <__udivmoddi4+0x260>
 8000f58:	4608      	mov	r0, r1
 8000f5a:	e7d2      	b.n	8000f02 <__udivmoddi4+0x24a>
 8000f5c:	4660      	mov	r0, ip
 8000f5e:	e78d      	b.n	8000e7c <__udivmoddi4+0x1c4>
 8000f60:	4681      	mov	r9, r0
 8000f62:	e7b9      	b.n	8000ed8 <__udivmoddi4+0x220>
 8000f64:	4666      	mov	r6, ip
 8000f66:	e775      	b.n	8000e54 <__udivmoddi4+0x19c>
 8000f68:	4630      	mov	r0, r6
 8000f6a:	e74a      	b.n	8000e02 <__udivmoddi4+0x14a>
 8000f6c:	f1ac 0c02 	sub.w	ip, ip, #2
 8000f70:	4439      	add	r1, r7
 8000f72:	e713      	b.n	8000d9c <__udivmoddi4+0xe4>
 8000f74:	3802      	subs	r0, #2
 8000f76:	443c      	add	r4, r7
 8000f78:	e724      	b.n	8000dc4 <__udivmoddi4+0x10c>
 8000f7a:	bf00      	nop

08000f7c <__aeabi_idiv0>:
 8000f7c:	4770      	bx	lr
 8000f7e:	bf00      	nop

08000f80 <MX_ADC1_Init>:
 8000f80:	b510      	push	{r4, lr}
 8000f82:	2210      	movs	r2, #16
 8000f84:	2400      	movs	r4, #0
 8000f86:	b088      	sub	sp, #32
 8000f88:	eb0d 0002 	add.w	r0, sp, r2
 8000f8c:	4621      	mov	r1, r4
 8000f8e:	e9cd 4401 	strd	r4, r4, [sp, #4]
 8000f92:	9403      	str	r4, [sp, #12]
 8000f94:	f005 fca0 	bl	80068d8 <memset>
 8000f98:	4818      	ldr	r0, [pc, #96]	; (8000ffc <MX_ADC1_Init+0x7c>)
 8000f9a:	4a19      	ldr	r2, [pc, #100]	; (8001000 <MX_ADC1_Init+0x80>)
 8000f9c:	6084      	str	r4, [r0, #8]
 8000f9e:	f44f 3380 	mov.w	r3, #65536	; 0x10000
 8000fa2:	e9c0 2300 	strd	r2, r3, [r0]
 8000fa6:	4b17      	ldr	r3, [pc, #92]	; (8001004 <MX_ADC1_Init+0x84>)
 8000fa8:	6283      	str	r3, [r0, #40]	; 0x28
 8000faa:	2301      	movs	r3, #1
 8000fac:	6104      	str	r4, [r0, #16]
 8000fae:	7604      	strb	r4, [r0, #24]
 8000fb0:	f880 4020 	strb.w	r4, [r0, #32]
 8000fb4:	62c4      	str	r4, [r0, #44]	; 0x2c
 8000fb6:	60c4      	str	r4, [r0, #12]
 8000fb8:	61c3      	str	r3, [r0, #28]
 8000fba:	f880 4030 	strb.w	r4, [r0, #48]	; 0x30
 8000fbe:	6143      	str	r3, [r0, #20]
 8000fc0:	f001 f9b4 	bl	800232c <HAL_ADC_Init>
 8000fc4:	b108      	cbz	r0, 8000fca <MX_ADC1_Init+0x4a>
 8000fc6:	f000 febb 	bl	8001d40 <Error_Handler>
 8000fca:	2316      	movs	r3, #22
 8000fcc:	480b      	ldr	r0, [pc, #44]	; (8000ffc <MX_ADC1_Init+0x7c>)
 8000fce:	9403      	str	r4, [sp, #12]
 8000fd0:	a901      	add	r1, sp, #4
 8000fd2:	e9cd 3401 	strd	r3, r4, [sp, #4]
 8000fd6:	f001 fbc5 	bl	8002764 <HAL_ADCEx_MultiModeConfigChannel>
 8000fda:	b108      	cbz	r0, 8000fe0 <MX_ADC1_Init+0x60>
 8000fdc:	f000 feb0 	bl	8001d40 <Error_Handler>
 8000fe0:	2301      	movs	r3, #1
 8000fe2:	4806      	ldr	r0, [pc, #24]	; (8000ffc <MX_ADC1_Init+0x7c>)
 8000fe4:	9306      	str	r3, [sp, #24]
 8000fe6:	a904      	add	r1, sp, #16
 8000fe8:	e9cd 3304 	strd	r3, r3, [sp, #16]
 8000fec:	f001 fb1e 	bl	800262c <HAL_ADC_ConfigChannel>
 8000ff0:	b108      	cbz	r0, 8000ff6 <MX_ADC1_Init+0x76>
 8000ff2:	f000 fea5 	bl	8001d40 <Error_Handler>
 8000ff6:	b008      	add	sp, #32
 8000ff8:	bd10      	pop	{r4, pc}
 8000ffa:	bf00      	nop
 8000ffc:	200005f8 	.word	0x200005f8
 8001000:	40012000 	.word	0x40012000
 8001004:	0f000001 	.word	0x0f000001

08001008 <MX_ADC2_Init>:
 8001008:	b530      	push	{r4, r5, lr}
 800100a:	b085      	sub	sp, #20
 800100c:	2210      	movs	r2, #16
 800100e:	2100      	movs	r1, #0
 8001010:	4668      	mov	r0, sp
 8001012:	f005 fc61 	bl	80068d8 <memset>
 8001016:	4811      	ldr	r0, [pc, #68]	; (800105c <MX_ADC2_Init+0x54>)
 8001018:	4a11      	ldr	r2, [pc, #68]	; (8001060 <MX_ADC2_Init+0x58>)
 800101a:	2400      	movs	r4, #0
 800101c:	2501      	movs	r5, #1
 800101e:	f44f 3380 	mov.w	r3, #65536	; 0x10000
 8001022:	e9c0 2300 	strd	r2, r3, [r0]
 8001026:	6084      	str	r4, [r0, #8]
 8001028:	6104      	str	r4, [r0, #16]
 800102a:	7604      	strb	r4, [r0, #24]
 800102c:	f880 4020 	strb.w	r4, [r0, #32]
 8001030:	60c4      	str	r4, [r0, #12]
 8001032:	61c5      	str	r5, [r0, #28]
 8001034:	f880 4030 	strb.w	r4, [r0, #48]	; 0x30
 8001038:	6145      	str	r5, [r0, #20]
 800103a:	f001 f977 	bl	800232c <HAL_ADC_Init>
 800103e:	b108      	cbz	r0, 8001044 <MX_ADC2_Init+0x3c>
 8001040:	f000 fe7e 	bl	8001d40 <Error_Handler>
 8001044:	4805      	ldr	r0, [pc, #20]	; (800105c <MX_ADC2_Init+0x54>)
 8001046:	9502      	str	r5, [sp, #8]
 8001048:	4669      	mov	r1, sp
 800104a:	e9cd 4500 	strd	r4, r5, [sp]
 800104e:	f001 faed 	bl	800262c <HAL_ADC_ConfigChannel>
 8001052:	b108      	cbz	r0, 8001058 <MX_ADC2_Init+0x50>
 8001054:	f000 fe74 	bl	8001d40 <Error_Handler>
 8001058:	b005      	add	sp, #20
 800105a:	bd30      	pop	{r4, r5, pc}
 800105c:	200005b0 	.word	0x200005b0
 8001060:	40012100 	.word	0x40012100

08001064 <MX_ADC3_Init>:
 8001064:	b51f      	push	{r0, r1, r2, r3, r4, lr}
 8001066:	2210      	movs	r2, #16
 8001068:	2100      	movs	r1, #0
 800106a:	4668      	mov	r0, sp
 800106c:	f005 fc34 	bl	80068d8 <memset>
 8001070:	4811      	ldr	r0, [pc, #68]	; (80010b8 <MX_ADC3_Init+0x54>)
 8001072:	4a12      	ldr	r2, [pc, #72]	; (80010bc <MX_ADC3_Init+0x58>)
 8001074:	f44f 3380 	mov.w	r3, #65536	; 0x10000
 8001078:	2401      	movs	r4, #1
 800107a:	e9c0 2300 	strd	r2, r3, [r0]
 800107e:	2300      	movs	r3, #0
 8001080:	6083      	str	r3, [r0, #8]
 8001082:	6103      	str	r3, [r0, #16]
 8001084:	7603      	strb	r3, [r0, #24]
 8001086:	f880 3020 	strb.w	r3, [r0, #32]
 800108a:	60c3      	str	r3, [r0, #12]
 800108c:	61c4      	str	r4, [r0, #28]
 800108e:	f880 3030 	strb.w	r3, [r0, #48]	; 0x30
 8001092:	6144      	str	r4, [r0, #20]
 8001094:	f001 f94a 	bl	800232c <HAL_ADC_Init>
 8001098:	b108      	cbz	r0, 800109e <MX_ADC3_Init+0x3a>
 800109a:	f000 fe51 	bl	8001d40 <Error_Handler>
 800109e:	230b      	movs	r3, #11
 80010a0:	4805      	ldr	r0, [pc, #20]	; (80010b8 <MX_ADC3_Init+0x54>)
 80010a2:	9402      	str	r4, [sp, #8]
 80010a4:	4669      	mov	r1, sp
 80010a6:	e9cd 3400 	strd	r3, r4, [sp]
 80010aa:	f001 fabf 	bl	800262c <HAL_ADC_ConfigChannel>
 80010ae:	b108      	cbz	r0, 80010b4 <MX_ADC3_Init+0x50>
 80010b0:	f000 fe46 	bl	8001d40 <Error_Handler>
 80010b4:	b004      	add	sp, #16
 80010b6:	bd10      	pop	{r4, pc}
 80010b8:	20000640 	.word	0x20000640
 80010bc:	40012200 	.word	0x40012200

080010c0 <HAL_ADC_MspInit>:
 80010c0:	b510      	push	{r4, lr}
 80010c2:	4604      	mov	r4, r0
 80010c4:	b08c      	sub	sp, #48	; 0x30
 80010c6:	2214      	movs	r2, #20
 80010c8:	2100      	movs	r1, #0
 80010ca:	a807      	add	r0, sp, #28
 80010cc:	f005 fc04 	bl	80068d8 <memset>
 80010d0:	6823      	ldr	r3, [r4, #0]
 80010d2:	4a30      	ldr	r2, [pc, #192]	; (8001194 <HAL_ADC_MspInit+0xd4>)
 80010d4:	4293      	cmp	r3, r2
 80010d6:	d120      	bne.n	800111a <HAL_ADC_MspInit+0x5a>
 80010d8:	4b2f      	ldr	r3, [pc, #188]	; (8001198 <HAL_ADC_MspInit+0xd8>)
 80010da:	2200      	movs	r2, #0
 80010dc:	9201      	str	r2, [sp, #4]
 80010de:	6c59      	ldr	r1, [r3, #68]	; 0x44
 80010e0:	f441 7180 	orr.w	r1, r1, #256	; 0x100
 80010e4:	6459      	str	r1, [r3, #68]	; 0x44
 80010e6:	6c59      	ldr	r1, [r3, #68]	; 0x44
 80010e8:	f401 7180 	and.w	r1, r1, #256	; 0x100
 80010ec:	9101      	str	r1, [sp, #4]
 80010ee:	9901      	ldr	r1, [sp, #4]
 80010f0:	9202      	str	r2, [sp, #8]
 80010f2:	6b19      	ldr	r1, [r3, #48]	; 0x30
 80010f4:	f041 0101 	orr.w	r1, r1, #1
 80010f8:	6319      	str	r1, [r3, #48]	; 0x30
 80010fa:	6b1b      	ldr	r3, [r3, #48]	; 0x30
 80010fc:	f003 0301 	and.w	r3, r3, #1
 8001100:	9302      	str	r3, [sp, #8]
 8001102:	9b02      	ldr	r3, [sp, #8]
 8001104:	2302      	movs	r3, #2
 8001106:	9307      	str	r3, [sp, #28]
 8001108:	2303      	movs	r3, #3
 800110a:	e9cd 3208 	strd	r3, r2, [sp, #32]
 800110e:	4823      	ldr	r0, [pc, #140]	; (800119c <HAL_ADC_MspInit+0xdc>)
 8001110:	a907      	add	r1, sp, #28
 8001112:	f001 fdb1 	bl	8002c78 <HAL_GPIO_Init>
 8001116:	b00c      	add	sp, #48	; 0x30
 8001118:	bd10      	pop	{r4, pc}
 800111a:	4a21      	ldr	r2, [pc, #132]	; (80011a0 <HAL_ADC_MspInit+0xe0>)
 800111c:	4293      	cmp	r3, r2
 800111e:	d117      	bne.n	8001150 <HAL_ADC_MspInit+0x90>
 8001120:	4b1d      	ldr	r3, [pc, #116]	; (8001198 <HAL_ADC_MspInit+0xd8>)
 8001122:	2200      	movs	r2, #0
 8001124:	9203      	str	r2, [sp, #12]
 8001126:	6c59      	ldr	r1, [r3, #68]	; 0x44
 8001128:	f441 7100 	orr.w	r1, r1, #512	; 0x200
 800112c:	6459      	str	r1, [r3, #68]	; 0x44
 800112e:	6c59      	ldr	r1, [r3, #68]	; 0x44
 8001130:	f401 7100 	and.w	r1, r1, #512	; 0x200
 8001134:	9103      	str	r1, [sp, #12]
 8001136:	9903      	ldr	r1, [sp, #12]
 8001138:	9204      	str	r2, [sp, #16]
 800113a:	6b19      	ldr	r1, [r3, #48]	; 0x30
 800113c:	f041 0101 	orr.w	r1, r1, #1
 8001140:	6319      	str	r1, [r3, #48]	; 0x30
 8001142:	6b1b      	ldr	r3, [r3, #48]	; 0x30
 8001144:	f003 0301 	and.w	r3, r3, #1
 8001148:	9304      	str	r3, [sp, #16]
 800114a:	9b04      	ldr	r3, [sp, #16]
 800114c:	2301      	movs	r3, #1
 800114e:	e7da      	b.n	8001106 <HAL_ADC_MspInit+0x46>
 8001150:	4a14      	ldr	r2, [pc, #80]	; (80011a4 <HAL_ADC_MspInit+0xe4>)
 8001152:	4293      	cmp	r3, r2
 8001154:	d1df      	bne.n	8001116 <HAL_ADC_MspInit+0x56>
 8001156:	4b10      	ldr	r3, [pc, #64]	; (8001198 <HAL_ADC_MspInit+0xd8>)
 8001158:	4813      	ldr	r0, [pc, #76]	; (80011a8 <HAL_ADC_MspInit+0xe8>)
 800115a:	2200      	movs	r2, #0
 800115c:	9205      	str	r2, [sp, #20]
 800115e:	6c59      	ldr	r1, [r3, #68]	; 0x44
 8001160:	f441 6180 	orr.w	r1, r1, #1024	; 0x400
 8001164:	6459      	str	r1, [r3, #68]	; 0x44
 8001166:	6c59      	ldr	r1, [r3, #68]	; 0x44
 8001168:	f401 6180 	and.w	r1, r1, #1024	; 0x400
 800116c:	9105      	str	r1, [sp, #20]
 800116e:	9905      	ldr	r1, [sp, #20]
 8001170:	9206      	str	r2, [sp, #24]
 8001172:	6b19      	ldr	r1, [r3, #48]	; 0x30
 8001174:	f041 0104 	orr.w	r1, r1, #4
 8001178:	6319      	str	r1, [r3, #48]	; 0x30
 800117a:	6b1b      	ldr	r3, [r3, #48]	; 0x30
 800117c:	9209      	str	r2, [sp, #36]	; 0x24
 800117e:	f003 0304 	and.w	r3, r3, #4
 8001182:	9306      	str	r3, [sp, #24]
 8001184:	2102      	movs	r1, #2
 8001186:	9b06      	ldr	r3, [sp, #24]
 8001188:	2303      	movs	r3, #3
 800118a:	e9cd 1307 	strd	r1, r3, [sp, #28]
 800118e:	a907      	add	r1, sp, #28
 8001190:	e7bf      	b.n	8001112 <HAL_ADC_MspInit+0x52>
 8001192:	bf00      	nop
 8001194:	40012000 	.word	0x40012000
 8001198:	40023800 	.word	0x40023800
 800119c:	40020000 	.word	0x40020000
 80011a0:	40012100 	.word	0x40012100
 80011a4:	40012200 	.word	0x40012200
 80011a8:	40020800 	.word	0x40020800

080011ac <MX_CAN1_Init>:
 80011ac:	480c      	ldr	r0, [pc, #48]	; (80011e0 <MX_CAN1_Init+0x34>)
 80011ae:	4a0d      	ldr	r2, [pc, #52]	; (80011e4 <MX_CAN1_Init+0x38>)
 80011b0:	b508      	push	{r3, lr}
 80011b2:	2303      	movs	r3, #3
 80011b4:	e9c0 2300 	strd	r2, r3, [r0]
 80011b8:	2300      	movs	r3, #0
 80011ba:	f44f 2130 	mov.w	r1, #720896	; 0xb0000
 80011be:	f44f 1280 	mov.w	r2, #1048576	; 0x100000
 80011c2:	6183      	str	r3, [r0, #24]
 80011c4:	8383      	strh	r3, [r0, #28]
 80011c6:	e9c0 3302 	strd	r3, r3, [r0, #8]
 80011ca:	e9c0 1204 	strd	r1, r2, [r0, #16]
 80011ce:	f001 faf1 	bl	80027b4 <HAL_CAN_Init>
 80011d2:	b118      	cbz	r0, 80011dc <MX_CAN1_Init+0x30>
 80011d4:	e8bd 4008 	ldmia.w	sp!, {r3, lr}
 80011d8:	f000 bdb2 	b.w	8001d40 <Error_Handler>
 80011dc:	bd08      	pop	{r3, pc}
 80011de:	bf00      	nop
 80011e0:	20000688 	.word	0x20000688
 80011e4:	40006400 	.word	0x40006400

080011e8 <HAL_CAN_MspInit>:
 80011e8:	b510      	push	{r4, lr}
 80011ea:	4604      	mov	r4, r0
 80011ec:	b088      	sub	sp, #32
 80011ee:	2214      	movs	r2, #20
 80011f0:	2100      	movs	r1, #0
 80011f2:	a803      	add	r0, sp, #12
 80011f4:	f005 fb70 	bl	80068d8 <memset>
 80011f8:	6822      	ldr	r2, [r4, #0]
 80011fa:	4b15      	ldr	r3, [pc, #84]	; (8001250 <HAL_CAN_MspInit+0x68>)
 80011fc:	429a      	cmp	r2, r3
 80011fe:	d124      	bne.n	800124a <HAL_CAN_MspInit+0x62>
 8001200:	f503 33ea 	add.w	r3, r3, #119808	; 0x1d400
 8001204:	2200      	movs	r2, #0
 8001206:	9201      	str	r2, [sp, #4]
 8001208:	6c19      	ldr	r1, [r3, #64]	; 0x40
 800120a:	f041 7100 	orr.w	r1, r1, #33554432	; 0x2000000
 800120e:	6419      	str	r1, [r3, #64]	; 0x40
 8001210:	6c19      	ldr	r1, [r3, #64]	; 0x40
 8001212:	f001 7100 	and.w	r1, r1, #33554432	; 0x2000000
 8001216:	9101      	str	r1, [sp, #4]
 8001218:	9901      	ldr	r1, [sp, #4]
 800121a:	9202      	str	r2, [sp, #8]
 800121c:	6b19      	ldr	r1, [r3, #48]	; 0x30
 800121e:	f041 0102 	orr.w	r1, r1, #2
 8001222:	6319      	str	r1, [r3, #48]	; 0x30
 8001224:	6b1b      	ldr	r3, [r3, #48]	; 0x30
 8001226:	9205      	str	r2, [sp, #20]
 8001228:	f003 0302 	and.w	r3, r3, #2
 800122c:	9302      	str	r3, [sp, #8]
 800122e:	f44f 7140 	mov.w	r1, #768	; 0x300
 8001232:	9b02      	ldr	r3, [sp, #8]
 8001234:	2302      	movs	r3, #2
 8001236:	e9cd 1303 	strd	r1, r3, [sp, #12]
 800123a:	2003      	movs	r0, #3
 800123c:	2309      	movs	r3, #9
 800123e:	e9cd 0306 	strd	r0, r3, [sp, #24]
 8001242:	a903      	add	r1, sp, #12
 8001244:	4803      	ldr	r0, [pc, #12]	; (8001254 <HAL_CAN_MspInit+0x6c>)
 8001246:	f001 fd17 	bl	8002c78 <HAL_GPIO_Init>
 800124a:	b008      	add	sp, #32
 800124c:	bd10      	pop	{r4, pc}
 800124e:	bf00      	nop
 8001250:	40006400 	.word	0x40006400
 8001254:	40020400 	.word	0x40020400

08001258 <can_rx_init>:
 8001258:	2300      	movs	r3, #0
 800125a:	f640 72ff 	movw	r2, #4095	; 0xfff
 800125e:	e9c0 3309 	strd	r3, r3, [r0, #36]	; 0x24
 8001262:	e9c0 230b 	strd	r2, r3, [r0, #44]	; 0x2c
 8001266:	6343      	str	r3, [r0, #52]	; 0x34
 8001268:	63c3      	str	r3, [r0, #60]	; 0x3c
 800126a:	2301      	movs	r3, #1
 800126c:	e9c0 3310 	strd	r3, r3, [r0, #64]	; 0x40
 8001270:	f100 0124 	add.w	r1, r0, #36	; 0x24
 8001274:	4801      	ldr	r0, [pc, #4]	; (800127c <can_rx_init+0x24>)
 8001276:	f001 bb19 	b.w	80028ac <HAL_CAN_ConfigFilter>
 800127a:	bf00      	nop
 800127c:	20000688 	.word	0x20000688

08001280 <can_tx_init>:
 8001280:	2308      	movs	r3, #8
 8001282:	61c3      	str	r3, [r0, #28]
 8001284:	2300      	movs	r3, #0
 8001286:	e9c0 3305 	strd	r3, r3, [r0, #20]
 800128a:	2301      	movs	r3, #1
 800128c:	60c3      	str	r3, [r0, #12]
 800128e:	4770      	bx	lr

08001290 <pack_cmd>:
 8001290:	e92d 41f0 	stmdb	sp!, {r4, r5, r6, r7, r8, lr}
 8001294:	ed2d 8b0c 	vpush	{d8-d13}
 8001298:	eeb0 8a60 	vmov.f32	s16, s1
 800129c:	eef0 0a40 	vmov.f32	s1, s0
 80012a0:	eeba 0a09 	vmov.f32	s0, #169	; 0xc1480000 -12.5
 80012a4:	4604      	mov	r4, r0
 80012a6:	eeb0 9a61 	vmov.f32	s18, s3
 80012aa:	eef0 8a42 	vmov.f32	s17, s4
 80012ae:	eef0 9a41 	vmov.f32	s19, s2
 80012b2:	f000 fd47 	bl	8001d44 <fast_fmaxf>
 80012b6:	eef2 0a09 	vmov.f32	s1, #41	; 0x41480000  12.5
 80012ba:	f000 fd4b 	bl	8001d54 <fast_fminf>
 80012be:	eddf ca47 	vldr	s25, [pc, #284]	; 80013dc <pack_cmd+0x14c>
 80012c2:	ed9f da47 	vldr	s26, [pc, #284]	; 80013e0 <pack_cmd+0x150>
 80012c6:	ed9f ca47 	vldr	s24, [pc, #284]	; 80013e4 <pack_cmd+0x154>
 80012ca:	ed9f ba47 	vldr	s22, [pc, #284]	; 80013e8 <pack_cmd+0x158>
 80012ce:	eddf ba47 	vldr	s23, [pc, #284]	; 80013ec <pack_cmd+0x15c>
 80012d2:	eef0 aa40 	vmov.f32	s21, s0
 80012d6:	eef0 0a48 	vmov.f32	s1, s16
 80012da:	eeb0 0a6c 	vmov.f32	s0, s25
 80012de:	f000 fd31 	bl	8001d44 <fast_fmaxf>
 80012e2:	eef0 0a4d 	vmov.f32	s1, s26
 80012e6:	f000 fd35 	bl	8001d54 <fast_fminf>
 80012ea:	ed9f 8a41 	vldr	s16, [pc, #260]	; 80013f0 <pack_cmd+0x160>
 80012ee:	eeb0 aa40 	vmov.f32	s20, s0
 80012f2:	eef0 0a69 	vmov.f32	s1, s19
 80012f6:	eeb0 0a48 	vmov.f32	s0, s16
 80012fa:	f000 fd23 	bl	8001d44 <fast_fmaxf>
 80012fe:	eef0 0a4c 	vmov.f32	s1, s24
 8001302:	f000 fd27 	bl	8001d54 <fast_fminf>
 8001306:	eef0 0a49 	vmov.f32	s1, s18
 800130a:	eef0 9a40 	vmov.f32	s19, s0
 800130e:	eeb0 0a48 	vmov.f32	s0, s16
 8001312:	f000 fd17 	bl	8001d44 <fast_fmaxf>
 8001316:	eef7 0a00 	vmov.f32	s1, #112	; 0x3f800000  1.0
 800131a:	f000 fd1b 	bl	8001d54 <fast_fminf>
 800131e:	eef0 0a68 	vmov.f32	s1, s17
 8001322:	eeb0 9a40 	vmov.f32	s18, s0
 8001326:	eeb0 0a4b 	vmov.f32	s0, s22
 800132a:	f000 fd0b 	bl	8001d44 <fast_fmaxf>
 800132e:	eef0 0a6b 	vmov.f32	s1, s23
 8001332:	f000 fd0f 	bl	8001d54 <fast_fminf>
 8001336:	eeb2 1a09 	vmov.f32	s2, #41	; 0x41480000  12.5
 800133a:	eef0 8a40 	vmov.f32	s17, s0
 800133e:	eefa 0a09 	vmov.f32	s1, #169	; 0xc1480000 -12.5
 8001342:	eeb0 0a6a 	vmov.f32	s0, s21
 8001346:	2010      	movs	r0, #16
 8001348:	f000 fd0c 	bl	8001d64 <float_to_uint>
 800134c:	eeb0 1a4d 	vmov.f32	s2, s26
 8001350:	4680      	mov	r8, r0
 8001352:	eef0 0a6c 	vmov.f32	s1, s25
 8001356:	eeb0 0a4a 	vmov.f32	s0, s20
 800135a:	200c      	movs	r0, #12
 800135c:	f000 fd02 	bl	8001d64 <float_to_uint>
 8001360:	eeb0 1a4c 	vmov.f32	s2, s24
 8001364:	4605      	mov	r5, r0
 8001366:	eef0 0a48 	vmov.f32	s1, s16
 800136a:	eeb0 0a69 	vmov.f32	s0, s19
 800136e:	200c      	movs	r0, #12
 8001370:	f000 fcf8 	bl	8001d64 <float_to_uint>
 8001374:	eef0 0a48 	vmov.f32	s1, s16
 8001378:	4607      	mov	r7, r0
 800137a:	eeb0 0a49 	vmov.f32	s0, s18
 800137e:	eeb7 1a00 	vmov.f32	s2, #112	; 0x3f800000  1.0
 8001382:	200c      	movs	r0, #12
 8001384:	f000 fcee 	bl	8001d64 <float_to_uint>
 8001388:	eeb0 1a6b 	vmov.f32	s2, s23
 800138c:	4606      	mov	r6, r0
 800138e:	eef0 0a4b 	vmov.f32	s1, s22
 8001392:	eeb0 0a68 	vmov.f32	s0, s17
 8001396:	200c      	movs	r0, #12
 8001398:	f000 fce4 	bl	8001d64 <float_to_uint>
 800139c:	f3c8 2307 	ubfx	r3, r8, #8, #8
 80013a0:	7063      	strb	r3, [r4, #1]
 80013a2:	f3c5 130b 	ubfx	r3, r5, #4, #12
 80013a6:	70e3      	strb	r3, [r4, #3]
 80013a8:	ecbd 8b0c 	vpop	{d8-d13}
 80013ac:	4b11      	ldr	r3, [pc, #68]	; (80013f4 <pack_cmd+0x164>)
 80013ae:	f884 8002 	strb.w	r8, [r4, #2]
 80013b2:	4602      	mov	r2, r0
 80013b4:	ea03 1505 	and.w	r5, r3, r5, lsl #4
 80013b8:	f3c7 2007 	ubfx	r0, r7, #8, #8
 80013bc:	4305      	orrs	r5, r0
 80013be:	ea03 1306 	and.w	r3, r3, r6, lsl #4
 80013c2:	f3c2 2007 	ubfx	r0, r2, #8, #8
 80013c6:	f3c6 110b 	ubfx	r1, r6, #4, #12
 80013ca:	4303      	orrs	r3, r0
 80013cc:	7125      	strb	r5, [r4, #4]
 80013ce:	7167      	strb	r7, [r4, #5]
 80013d0:	71a1      	strb	r1, [r4, #6]
 80013d2:	71e3      	strb	r3, [r4, #7]
 80013d4:	7222      	strb	r2, [r4, #8]
 80013d6:	e8bd 81f0 	ldmia.w	sp!, {r4, r5, r6, r7, r8, pc}
 80013da:	bf00      	nop
 80013dc:	c4160000 	.word	0xc4160000
 80013e0:	44160000 	.word	0x44160000
 80013e4:	43fa0000 	.word	0x43fa0000
 80013e8:	bf753f7c 	.word	0xbf753f7c
 80013ec:	3f753f7c 	.word	0x3f753f7c
 80013f0:	00000000 	.word	0x00000000
 80013f4:	000ffff0 	.word	0x000ffff0

080013f8 <unpack_reply>:
 80013f8:	b084      	sub	sp, #16
 80013fa:	b570      	push	{r4, r5, r6, lr}
 80013fc:	ed2d 8b02 	vpush	{d8}
 8001400:	ac06      	add	r4, sp, #24
 8001402:	e884 000f 	stmia.w	r4, {r0, r1, r2, r3}
 8001406:	f89d 301d 	ldrb.w	r3, [sp, #29]
 800140a:	f89d 501e 	ldrb.w	r5, [sp, #30]
 800140e:	f89d 001a 	ldrb.w	r0, [sp, #26]
 8001412:	f89d 201c 	ldrb.w	r2, [sp, #28]
 8001416:	9c19      	ldr	r4, [sp, #100]	; 0x64
 8001418:	091e      	lsrs	r6, r3, #4
 800141a:	021b      	lsls	r3, r3, #8
 800141c:	f403 6370 	and.w	r3, r3, #3840	; 0xf00
 8001420:	431d      	orrs	r5, r3
 8001422:	f89d 301b 	ldrb.w	r3, [sp, #27]
 8001426:	2110      	movs	r1, #16
 8001428:	ea43 2000 	orr.w	r0, r3, r0, lsl #8
 800142c:	eef2 0a09 	vmov.f32	s1, #41	; 0x41480000  12.5
 8001430:	eeba 0a09 	vmov.f32	s0, #169	; 0xc1480000 -12.5
 8001434:	ea46 1602 	orr.w	r6, r6, r2, lsl #4
 8001438:	f000 fca9 	bl	8001d8e <uint_to_float>
 800143c:	4630      	mov	r0, r6
 800143e:	eef0 8a40 	vmov.f32	s17, s0
 8001442:	eddf 0a0e 	vldr	s1, [pc, #56]	; 800147c <unpack_reply+0x84>
 8001446:	ed9f 0a0e 	vldr	s0, [pc, #56]	; 8001480 <unpack_reply+0x88>
 800144a:	210c      	movs	r1, #12
 800144c:	f000 fc9f 	bl	8001d8e <uint_to_float>
 8001450:	4628      	mov	r0, r5
 8001452:	eeb0 8a40 	vmov.f32	s16, s0
 8001456:	eddf 0a0b 	vldr	s1, [pc, #44]	; 8001484 <unpack_reply+0x8c>
 800145a:	ed9f 0a0b 	vldr	s0, [pc, #44]	; 8001488 <unpack_reply+0x90>
 800145e:	210c      	movs	r1, #12
 8001460:	f000 fc95 	bl	8001d8e <uint_to_float>
 8001464:	edc4 8a00 	vstr	s17, [r4]
 8001468:	ed84 8a01 	vstr	s16, [r4, #4]
 800146c:	ecbd 8b02 	vpop	{d8}
 8001470:	ed84 0a02 	vstr	s0, [r4, #8]
 8001474:	e8bd 4070 	ldmia.w	sp!, {r4, r5, r6, lr}
 8001478:	b004      	add	sp, #16
 800147a:	4770      	bx	lr
 800147c:	44160000 	.word	0x44160000
 8001480:	c4160000 	.word	0xc4160000
 8001484:	3f753f7c 	.word	0x3f753f7c
 8001488:	bf753f7c 	.word	0xbf753f7c

0800148c <update_commands>:
 800148c:	edd1 7a14 	vldr	s15, [r1, #80]	; 0x50
 8001490:	ed9f 7a04 	vldr	s14, [pc, #16]	; 80014a4 <update_commands+0x18>
 8001494:	6d4b      	ldr	r3, [r1, #84]	; 0x54
 8001496:	6783      	str	r3, [r0, #120]	; 0x78
 8001498:	ee67 7a87 	vmul.f32	s15, s15, s14
 800149c:	edc0 7a04 	vstr	s15, [r0, #16]
 80014a0:	4770      	bx	lr
 80014a2:	bf00      	nop
 80014a4:	47c35000 	.word	0x47c35000

080014a8 <spi_sample>:
 80014a8:	e92d 47f3 	stmdb	sp!, {r0, r1, r4, r5, r6, r7, r8, r9, sl, lr}
 80014ac:	4606      	mov	r6, r0
 80014ae:	f24d 2380 	movw	r3, #53888	; 0xd280
 80014b2:	f826 3f70 	strh.w	r3, [r6, #112]!
 80014b6:	4604      	mov	r4, r0
 80014b8:	2200      	movs	r2, #0
 80014ba:	4843      	ldr	r0, [pc, #268]	; (80015c8 <spi_sample+0x120>)
 80014bc:	f44f 6180 	mov.w	r1, #1024	; 0x400
 80014c0:	f001 fcae 	bl	8002e20 <HAL_GPIO_WritePin>
 80014c4:	f104 0872 	add.w	r8, r4, #114	; 0x72
 80014c8:	2364      	movs	r3, #100	; 0x64
 80014ca:	9300      	str	r3, [sp, #0]
 80014cc:	483f      	ldr	r0, [pc, #252]	; (80015cc <spi_sample+0x124>)
 80014ce:	2301      	movs	r3, #1
 80014d0:	4642      	mov	r2, r8
 80014d2:	4631      	mov	r1, r6
 80014d4:	f002 ff82 	bl	80043dc <HAL_SPI_TransmitReceive>
 80014d8:	4b3c      	ldr	r3, [pc, #240]	; (80015cc <spi_sample+0x124>)
 80014da:	461d      	mov	r5, r3
 80014dc:	f893 2051 	ldrb.w	r2, [r3, #81]	; 0x51
 80014e0:	2a02      	cmp	r2, #2
 80014e2:	d0fb      	beq.n	80014dc <spi_sample+0x34>
 80014e4:	2364      	movs	r3, #100	; 0x64
 80014e6:	f104 0771 	add.w	r7, r4, #113	; 0x71
 80014ea:	f104 0973 	add.w	r9, r4, #115	; 0x73
 80014ee:	9300      	str	r3, [sp, #0]
 80014f0:	4836      	ldr	r0, [pc, #216]	; (80015cc <spi_sample+0x124>)
 80014f2:	2301      	movs	r3, #1
 80014f4:	464a      	mov	r2, r9
 80014f6:	4639      	mov	r1, r7
 80014f8:	f002 ff70 	bl	80043dc <HAL_SPI_TransmitReceive>
 80014fc:	f895 3051 	ldrb.w	r3, [r5, #81]	; 0x51
 8001500:	2b02      	cmp	r3, #2
 8001502:	d0fb      	beq.n	80014fc <spi_sample+0x54>
 8001504:	4830      	ldr	r0, [pc, #192]	; (80015c8 <spi_sample+0x120>)
 8001506:	2201      	movs	r2, #1
 8001508:	f44f 6180 	mov.w	r1, #1024	; 0x400
 800150c:	f04f 0a01 	mov.w	sl, #1
 8001510:	f001 fc86 	bl	8002e20 <HAL_GPIO_WritePin>
 8001514:	482c      	ldr	r0, [pc, #176]	; (80015c8 <spi_sample+0x120>)
 8001516:	f8a4 a070 	strh.w	sl, [r4, #112]	; 0x70
 800151a:	2200      	movs	r2, #0
 800151c:	f44f 6180 	mov.w	r1, #1024	; 0x400
 8001520:	f001 fc7e 	bl	8002e20 <HAL_GPIO_WritePin>
 8001524:	2364      	movs	r3, #100	; 0x64
 8001526:	9300      	str	r3, [sp, #0]
 8001528:	4828      	ldr	r0, [pc, #160]	; (80015cc <spi_sample+0x124>)
 800152a:	4653      	mov	r3, sl
 800152c:	4642      	mov	r2, r8
 800152e:	4631      	mov	r1, r6
 8001530:	f002 ff54 	bl	80043dc <HAL_SPI_TransmitReceive>
 8001534:	f895 3051 	ldrb.w	r3, [r5, #81]	; 0x51
 8001538:	2b02      	cmp	r3, #2
 800153a:	d0fb      	beq.n	8001534 <spi_sample+0x8c>
 800153c:	2364      	movs	r3, #100	; 0x64
 800153e:	9300      	str	r3, [sp, #0]
 8001540:	4822      	ldr	r0, [pc, #136]	; (80015cc <spi_sample+0x124>)
 8001542:	2301      	movs	r3, #1
 8001544:	4642      	mov	r2, r8
 8001546:	4639      	mov	r1, r7
 8001548:	f002 ff48 	bl	80043dc <HAL_SPI_TransmitReceive>
 800154c:	f895 3051 	ldrb.w	r3, [r5, #81]	; 0x51
 8001550:	2b02      	cmp	r3, #2
 8001552:	d0fb      	beq.n	800154c <spi_sample+0xa4>
 8001554:	2364      	movs	r3, #100	; 0x64
 8001556:	9300      	str	r3, [sp, #0]
 8001558:	481c      	ldr	r0, [pc, #112]	; (80015cc <spi_sample+0x124>)
 800155a:	2301      	movs	r3, #1
 800155c:	464a      	mov	r2, r9
 800155e:	4639      	mov	r1, r7
 8001560:	f002 ff3c 	bl	80043dc <HAL_SPI_TransmitReceive>
 8001564:	f895 3051 	ldrb.w	r3, [r5, #81]	; 0x51
 8001568:	2b02      	cmp	r3, #2
 800156a:	d0fb      	beq.n	8001564 <spi_sample+0xbc>
 800156c:	4816      	ldr	r0, [pc, #88]	; (80015c8 <spi_sample+0x120>)
 800156e:	f44f 6180 	mov.w	r1, #1024	; 0x400
 8001572:	2201      	movs	r2, #1
 8001574:	f001 fc54 	bl	8002e20 <HAL_GPIO_WritePin>
 8001578:	f894 3073 	ldrb.w	r3, [r4, #115]	; 0x73
 800157c:	f894 2072 	ldrb.w	r2, [r4, #114]	; 0x72
 8001580:	ed9f 7a13 	vldr	s14, [pc, #76]	; 80015d0 <spi_sample+0x128>
 8001584:	eddf 6a13 	vldr	s13, [pc, #76]	; 80015d4 <spi_sample+0x12c>
 8001588:	ed9f 0a13 	vldr	s0, [pc, #76]	; 80015d8 <spi_sample+0x130>
 800158c:	085b      	lsrs	r3, r3, #1
 800158e:	ea43 13c2 	orr.w	r3, r3, r2, lsl #7
 8001592:	ee07 3a90 	vmov	s15, r3
 8001596:	eef8 7a67 	vcvt.f32.u32	s15, s15
 800159a:	ee67 7a87 	vmul.f32	s15, s15, s14
 800159e:	ee87 7aa6 	vdiv.f32	s14, s15, s13
 80015a2:	eddf 7a0e 	vldr	s15, [pc, #56]	; 80015dc <spi_sample+0x134>
 80015a6:	eea7 0a27 	vfma.f32	s0, s14, s15
 80015aa:	f007 ff01 	bl	80093b0 <sqrtf>
 80015ae:	eddf 7a0c 	vldr	s15, [pc, #48]	; 80015e0 <spi_sample+0x138>
 80015b2:	ed9f 7a0c 	vldr	s14, [pc, #48]	; 80015e4 <spi_sample+0x13c>
 80015b6:	ee30 0a67 	vsub.f32	s0, s0, s15
 80015ba:	eec0 7a07 	vdiv.f32	s15, s0, s14
 80015be:	edc4 7a1d 	vstr	s15, [r4, #116]	; 0x74
 80015c2:	b002      	add	sp, #8
 80015c4:	e8bd 87f0 	ldmia.w	sp!, {r4, r5, r6, r7, r8, r9, sl, pc}
 80015c8:	40020400 	.word	0x40020400
 80015cc:	2000087c 	.word	0x2000087c
 80015d0:	43d70000 	.word	0x43d70000
 80015d4:	46fffe00 	.word	0x46fffe00
 80015d8:	37938316 	.word	0x37938316
 80015dc:	b2c66d6f 	.word	0xb2c66d6f
 80015e0:	3b801132 	.word	0x3b801132
 80015e4:	b59b057f 	.word	0xb59b057f

080015e8 <can_sample>:
 80015e8:	b570      	push	{r4, r5, r6, lr}
 80015ea:	ed9f 1a1a 	vldr	s2, [pc, #104]	; 8001654 <can_sample+0x6c>
 80015ee:	4c1a      	ldr	r4, [pc, #104]	; (8001658 <can_sample+0x70>)
 80015f0:	ed90 2a1a 	vldr	s4, [r0, #104]	; 0x68
 80015f4:	edd0 1a19 	vldr	s3, [r0, #100]	; 0x64
 80015f8:	edd0 0a18 	vldr	s1, [r0, #96]	; 0x60
 80015fc:	4e17      	ldr	r6, [pc, #92]	; (800165c <can_sample+0x74>)
 80015fe:	b092      	sub	sp, #72	; 0x48
 8001600:	eeb0 0a41 	vmov.f32	s0, s2
 8001604:	4605      	mov	r5, r0
 8001606:	4620      	mov	r0, r4
 8001608:	f7ff fe42 	bl	8001290 <pack_cmd>
 800160c:	1c62      	adds	r2, r4, #1
 800160e:	f104 010c 	add.w	r1, r4, #12
 8001612:	4c13      	ldr	r4, [pc, #76]	; (8001660 <can_sample+0x78>)
 8001614:	ab11      	add	r3, sp, #68	; 0x44
 8001616:	4630      	mov	r0, r6
 8001618:	f001 f9fe 	bl	8002a18 <HAL_CAN_AddTxMessage>
 800161c:	3554      	adds	r5, #84	; 0x54
 800161e:	4623      	mov	r3, r4
 8001620:	1de2      	adds	r2, r4, #7
 8001622:	2100      	movs	r1, #0
 8001624:	4630      	mov	r0, r6
 8001626:	f001 fa47 	bl	8002ab8 <HAL_CAN_GetRxMessage>
 800162a:	1e66      	subs	r6, r4, #1
 800162c:	950f      	str	r5, [sp, #60]	; 0x3c
 800162e:	340f      	adds	r4, #15
 8001630:	cc0f      	ldmia	r4!, {r0, r1, r2, r3}
 8001632:	466d      	mov	r5, sp
 8001634:	c50f      	stmia	r5!, {r0, r1, r2, r3}
 8001636:	cc0f      	ldmia	r4!, {r0, r1, r2, r3}
 8001638:	c50f      	stmia	r5!, {r0, r1, r2, r3}
 800163a:	cc0f      	ldmia	r4!, {r0, r1, r2, r3}
 800163c:	c50f      	stmia	r5!, {r0, r1, r2, r3}
 800163e:	e894 0007 	ldmia.w	r4, {r0, r1, r2}
 8001642:	e885 0007 	stmia.w	r5, {r0, r1, r2}
 8001646:	e896 000f 	ldmia.w	r6, {r0, r1, r2, r3}
 800164a:	f7ff fed5 	bl	80013f8 <unpack_reply>
 800164e:	b012      	add	sp, #72	; 0x48
 8001650:	bd70      	pop	{r4, r5, r6, pc}
 8001652:	bf00      	nop
 8001654:	00000000 	.word	0x00000000
 8001658:	2000080c 	.word	0x2000080c
 800165c:	20000688 	.word	0x20000688
 8001660:	20000831 	.word	0x20000831

08001664 <pump_enable>:
 8001664:	b507      	push	{r0, r1, r2, lr}
 8001666:	490a      	ldr	r1, [pc, #40]	; (8001690 <pump_enable+0x2c>)
 8001668:	480a      	ldr	r0, [pc, #40]	; (8001694 <pump_enable+0x30>)
 800166a:	23ff      	movs	r3, #255	; 0xff
 800166c:	704b      	strb	r3, [r1, #1]
 800166e:	f64f 73ff 	movw	r3, #65535	; 0xffff
 8001672:	804b      	strh	r3, [r1, #2]
 8001674:	f04f 33ff 	mov.w	r3, #4294967295
 8001678:	604b      	str	r3, [r1, #4]
 800167a:	23fc      	movs	r3, #252	; 0xfc
 800167c:	720b      	strb	r3, [r1, #8]
 800167e:	1c4a      	adds	r2, r1, #1
 8001680:	ab01      	add	r3, sp, #4
 8001682:	310c      	adds	r1, #12
 8001684:	f001 f9c8 	bl	8002a18 <HAL_CAN_AddTxMessage>
 8001688:	b003      	add	sp, #12
 800168a:	f85d fb04 	ldr.w	pc, [sp], #4
 800168e:	bf00      	nop
 8001690:	2000080c 	.word	0x2000080c
 8001694:	20000688 	.word	0x20000688

08001698 <pressure_control>:
 8001698:	e92d 43f0 	stmdb	sp!, {r4, r5, r6, r7, r8, r9, lr}
 800169c:	ed2d 8b06 	vpush	{d8-d10}
 80016a0:	ed90 9a04 	vldr	s18, [r0, #16]
 80016a4:	ed90 8a05 	vldr	s16, [r0, #20]
 80016a8:	ed90 7a06 	vldr	s14, [r0, #24]
 80016ac:	eddf 7a4c 	vldr	s15, [pc, #304]	; 80017e0 <pressure_control+0x148>
 80016b0:	ed90 6a0d 	vldr	s12, [r0, #52]	; 0x34
 80016b4:	ed80 7a07 	vstr	s14, [r0, #28]
 80016b8:	ee39 8a48 	vsub.f32	s16, s18, s16
 80016bc:	edd0 6a09 	vldr	s13, [r0, #36]	; 0x24
 80016c0:	edd0 9a08 	vldr	s19, [r0, #32]
 80016c4:	6e83      	ldr	r3, [r0, #104]	; 0x68
 80016c6:	edc0 6a0a 	vstr	s13, [r0, #40]	; 0x28
 80016ca:	ee78 8a47 	vsub.f32	s17, s16, s14
 80016ce:	b089      	sub	sp, #36	; 0x24
 80016d0:	edc0 8a0c 	vstr	s17, [r0, #48]	; 0x30
 80016d4:	ee68 8aa7 	vmul.f32	s17, s17, s15
 80016d8:	eddf 7a42 	vldr	s15, [pc, #264]	; 80017e4 <pressure_control+0x14c>
 80016dc:	66c3      	str	r3, [r0, #108]	; 0x6c
 80016de:	eee6 8a27 	vfma.f32	s17, s12, s15
 80016e2:	4604      	mov	r4, r0
 80016e4:	eddf 7a40 	vldr	s15, [pc, #256]	; 80017e8 <pressure_control+0x150>
 80016e8:	ed80 8a06 	vstr	s16, [r0, #24]
 80016ec:	ee67 7ac7 	vnmul.f32	s15, s15, s14
 80016f0:	eeb2 7a04 	vmov.f32	s14, #36	; 0x41200000  10.0
 80016f4:	eee8 7a07 	vfma.f32	s15, s16, s14
 80016f8:	ed9f 7a3c 	vldr	s14, [pc, #240]	; 80017ec <pressure_control+0x154>
 80016fc:	edc0 8a0d 	vstr	s17, [r0, #52]	; 0x34
 8001700:	eee6 7a87 	vfma.f32	s15, s13, s14
 8001704:	ed9f 7a3a 	vldr	s14, [pc, #232]	; 80017f0 <pressure_control+0x158>
 8001708:	edc0 7a09 	vstr	s15, [r0, #36]	; 0x24
 800170c:	ee67 7a87 	vmul.f32	s15, s15, s14
 8001710:	eeb0 aa69 	vmov.f32	s20, s19
 8001714:	ee17 0a90 	vmov	r0, s15
 8001718:	eea8 aa07 	vfma.f32	s20, s16, s14
 800171c:	f7fe ff34 	bl	8000588 <__aeabi_f2d>
 8001720:	4606      	mov	r6, r0
 8001722:	ee18 0a90 	vmov	r0, s17
 8001726:	460f      	mov	r7, r1
 8001728:	f7fe ff2e 	bl	8000588 <__aeabi_f2d>
 800172c:	2200      	movs	r2, #0
 800172e:	2300      	movs	r3, #0
 8001730:	f7fe ff82 	bl	8000638 <__aeabi_dmul>
 8001734:	4680      	mov	r8, r0
 8001736:	ee1a 0a10 	vmov	r0, s20
 800173a:	4689      	mov	r9, r1
 800173c:	f7fe ff24 	bl	8000588 <__aeabi_f2d>
 8001740:	4602      	mov	r2, r0
 8001742:	460b      	mov	r3, r1
 8001744:	4640      	mov	r0, r8
 8001746:	4649      	mov	r1, r9
 8001748:	f7fe fdc0 	bl	80002cc <__adddf3>
 800174c:	4632      	mov	r2, r6
 800174e:	463b      	mov	r3, r7
 8001750:	f7fe fdbc 	bl	80002cc <__adddf3>
 8001754:	ed9f 7a27 	vldr	s14, [pc, #156]	; 80017f4 <pressure_control+0x15c>
 8001758:	eddf 7a27 	vldr	s15, [pc, #156]	; 80017f8 <pressure_control+0x160>
 800175c:	ee29 7a07 	vmul.f32	s14, s18, s14
 8001760:	4680      	mov	r8, r0
 8001762:	ee67 7a27 	vmul.f32	s15, s14, s15
 8001766:	4689      	mov	r9, r1
 8001768:	ee17 0a90 	vmov	r0, s15
 800176c:	f7fe ff0c 	bl	8000588 <__aeabi_f2d>
 8001770:	460b      	mov	r3, r1
 8001772:	4602      	mov	r2, r0
 8001774:	4649      	mov	r1, r9
 8001776:	4640      	mov	r0, r8
 8001778:	f7fe fda8 	bl	80002cc <__adddf3>
 800177c:	f7ff fa34 	bl	8000be8 <__aeabi_d2f>
 8001780:	eddf 7a1e 	vldr	s15, [pc, #120]	; 80017fc <pressure_control+0x164>
 8001784:	ed9f 7a1e 	vldr	s14, [pc, #120]	; 8001800 <pressure_control+0x168>
 8001788:	f8d4 30b8 	ldr.w	r3, [r4, #184]	; 0xb8
 800178c:	66a0      	str	r0, [r4, #104]	; 0x68
 800178e:	ee28 8a27 	vmul.f32	s16, s16, s15
 8001792:	4605      	mov	r5, r0
 8001794:	eec8 7a07 	vdiv.f32	s15, s16, s14
 8001798:	ee77 7aa9 	vadd.f32	s15, s15, s19
 800179c:	edc4 7a08 	vstr	s15, [r4, #32]
 80017a0:	b1c3      	cbz	r3, 80017d4 <pressure_control+0x13c>
 80017a2:	68e0      	ldr	r0, [r4, #12]
 80017a4:	f7fe fef0 	bl	8000588 <__aeabi_f2d>
 80017a8:	4602      	mov	r2, r0
 80017aa:	460b      	mov	r3, r1
 80017ac:	4628      	mov	r0, r5
 80017ae:	e9cd 2306 	strd	r2, r3, [sp, #24]
 80017b2:	e9cd 6704 	strd	r6, r7, [sp, #16]
 80017b6:	f7fe fee7 	bl	8000588 <__aeabi_f2d>
 80017ba:	e9cd 0102 	strd	r0, r1, [sp, #8]
 80017be:	ee19 0a10 	vmov	r0, s18
 80017c2:	f7fe fee1 	bl	8000588 <__aeabi_f2d>
 80017c6:	e9dd 2306 	ldrd	r2, r3, [sp, #24]
 80017ca:	e9cd 0100 	strd	r0, r1, [sp]
 80017ce:	480d      	ldr	r0, [pc, #52]	; (8001804 <pressure_control+0x16c>)
 80017d0:	f005 fcf4 	bl	80071bc <iprintf>
 80017d4:	b009      	add	sp, #36	; 0x24
 80017d6:	ecbd 8b06 	vpop	{d8-d10}
 80017da:	e8bd 83f0 	ldmia.w	sp!, {r4, r5, r6, r7, r8, r9, pc}
 80017de:	bf00      	nop
 80017e0:	3dcccccd 	.word	0x3dcccccd
 80017e4:	3f666666 	.word	0x3f666666
 80017e8:	411c0831 	.word	0x411c0831
 80017ec:	3f4096bc 	.word	0x3f4096bc
 80017f0:	34210fb0 	.word	0x34210fb0
 80017f4:	339c271b 	.word	0x339c271b
 80017f8:	00000000 	.word	0x00000000
 80017fc:	2eed7e99 	.word	0x2eed7e99
 8001800:	3ccccccd 	.word	0x3ccccccd
 8001804:	08009608 	.word	0x08009608

08001808 <update_flow_est>:
 8001808:	b510      	push	{r4, lr}
 800180a:	ed90 7a05 	vldr	s14, [r0, #20]
 800180e:	eddf 7a16 	vldr	s15, [pc, #88]	; 8001868 <update_flow_est+0x60>
 8001812:	ed9f 0a16 	vldr	s0, [pc, #88]	; 800186c <update_flow_est+0x64>
 8001816:	ed2d 8b02 	vpush	{d8}
 800181a:	eea7 0a27 	vfma.f32	s0, s14, s15
 800181e:	4604      	mov	r4, r0
 8001820:	ed90 8a16 	vldr	s16, [r0, #88]	; 0x58
 8001824:	f007 fdc4 	bl	80093b0 <sqrtf>
 8001828:	eddf 7a11 	vldr	s15, [pc, #68]	; 8001870 <update_flow_est+0x68>
 800182c:	ed9f 7a11 	vldr	s14, [pc, #68]	; 8001874 <update_flow_est+0x6c>
 8001830:	edd4 6a0f 	vldr	s13, [r4, #60]	; 0x3c
 8001834:	ee30 0a67 	vsub.f32	s0, s0, s15
 8001838:	eec0 7a07 	vdiv.f32	s15, s0, s14
 800183c:	ed9f 7a0e 	vldr	s14, [pc, #56]	; 8001878 <update_flow_est+0x70>
 8001840:	edc4 7a12 	vstr	s15, [r4, #72]	; 0x48
 8001844:	eed8 7a07 	vfnms.f32	s15, s16, s14
 8001848:	ecbd 8b02 	vpop	{d8}
 800184c:	ed9f 7a0b 	vldr	s14, [pc, #44]	; 800187c <update_flow_est+0x74>
 8001850:	edc4 7a0e 	vstr	s15, [r4, #56]	; 0x38
 8001854:	ee67 7a87 	vmul.f32	s15, s15, s14
 8001858:	ed9f 7a09 	vldr	s14, [pc, #36]	; 8001880 <update_flow_est+0x78>
 800185c:	eee6 7a87 	vfma.f32	s15, s13, s14
 8001860:	edc4 7a0f 	vstr	s15, [r4, #60]	; 0x3c
 8001864:	bd10      	pop	{r4, pc}
 8001866:	bf00      	nop
 8001868:	473cfacd 	.word	0x473cfacd
 800186c:	4fa247cd 	.word	0x4fa247cd
 8001870:	47901fe6 	.word	0x47901fe6
 8001874:	46bcfacd 	.word	0x46bcfacd
 8001878:	3d507c85 	.word	0x3d507c85
 800187c:	3dcccccd 	.word	0x3dcccccd
 8001880:	3f666666 	.word	0x3f666666

08001884 <group_temp_control>:
 8001884:	b510      	push	{r4, lr}
 8001886:	edd0 7a27 	vldr	s15, [r0, #156]	; 0x9c
 800188a:	ed9f 7a2b 	vldr	s14, [pc, #172]	; 8001938 <group_temp_control+0xb4>
 800188e:	edd0 0a2d 	vldr	s1, [r0, #180]	; 0xb4
 8001892:	ed9f 0a2a 	vldr	s0, [pc, #168]	; 800193c <group_temp_control+0xb8>
 8001896:	ed2d 8b04 	vpush	{d8-d9}
 800189a:	edd0 8a1e 	vldr	s17, [r0, #120]	; 0x78
 800189e:	ed9f 9a28 	vldr	s18, [pc, #160]	; 8001940 <group_temp_control+0xbc>
 80018a2:	edc0 8a28 	vstr	s17, [r0, #160]	; 0xa0
 80018a6:	ee78 8ae7 	vsub.f32	s17, s17, s15
 80018aa:	edd0 7a29 	vldr	s15, [r0, #164]	; 0xa4
 80018ae:	edc0 8a29 	vstr	s17, [r0, #164]	; 0xa4
 80018b2:	ee78 7ae7 	vsub.f32	s15, s17, s15
 80018b6:	4604      	mov	r4, r0
 80018b8:	ee67 7a87 	vmul.f32	s15, s15, s14
 80018bc:	ed9f 7a21 	vldr	s14, [pc, #132]	; 8001944 <group_temp_control+0xc0>
 80018c0:	ee87 8a87 	vdiv.f32	s16, s15, s14
 80018c4:	ed90 7a2b 	vldr	s14, [r0, #172]	; 0xac
 80018c8:	eddf 7a1f 	vldr	s15, [pc, #124]	; 8001948 <group_temp_control+0xc4>
 80018cc:	eea7 8a27 	vfma.f32	s16, s14, s15
 80018d0:	eddf 7a1e 	vldr	s15, [pc, #120]	; 800194c <group_temp_control+0xc8>
 80018d4:	ed80 8a2b 	vstr	s16, [r0, #172]	; 0xac
 80018d8:	eee8 0aa7 	vfma.f32	s1, s17, s15
 80018dc:	f007 fce0 	bl	80092a0 <fmaxf>
 80018e0:	eef0 0a49 	vmov.f32	s1, s18
 80018e4:	f007 fcf7 	bl	80092d6 <fminf>
 80018e8:	eef0 0a08 	vmov.f32	s1, #8	; 0x40400000  3.0
 80018ec:	ee28 8a20 	vmul.f32	s16, s16, s1
 80018f0:	eef2 7a0e 	vmov.f32	s15, #46	; 0x41700000  15.0
 80018f4:	eea8 8aa7 	vfma.f32	s16, s17, s15
 80018f8:	ed84 0a2d 	vstr	s0, [r4, #180]	; 0xb4
 80018fc:	ee30 0a08 	vadd.f32	s0, s0, s16
 8001900:	eec0 0a09 	vdiv.f32	s1, s0, s18
 8001904:	ed84 0a2c 	vstr	s0, [r4, #176]	; 0xb0
 8001908:	ed9f 0a11 	vldr	s0, [pc, #68]	; 8001950 <group_temp_control+0xcc>
 800190c:	f007 fcc8 	bl	80092a0 <fmaxf>
 8001910:	eef7 0a00 	vmov.f32	s1, #112	; 0x3f800000  1.0
 8001914:	f007 fcdf 	bl	80092d6 <fminf>
 8001918:	4b0e      	ldr	r3, [pc, #56]	; (8001954 <group_temp_control+0xd0>)
 800191a:	681b      	ldr	r3, [r3, #0]
 800191c:	edd3 7a0b 	vldr	s15, [r3, #44]	; 0x2c
 8001920:	eef8 7a67 	vcvt.f32.u32	s15, s15
 8001924:	ecbd 8b04 	vpop	{d8-d9}
 8001928:	ee27 0a80 	vmul.f32	s0, s15, s0
 800192c:	eebc 0ac0 	vcvt.u32.f32	s0, s0
 8001930:	ed83 0a0e 	vstr	s0, [r3, #56]	; 0x38
 8001934:	bd10      	pop	{r4, pc}
 8001936:	bf00      	nop
 8001938:	3dcccccd 	.word	0x3dcccccd
 800193c:	c2c80000 	.word	0xc2c80000
 8001940:	42c80000 	.word	0x42c80000
 8001944:	3a3cbe62 	.word	0x3a3cbe62
 8001948:	3f666666 	.word	0x3f666666
 800194c:	3a0d8eca 	.word	0x3a0d8eca
 8001950:	00000000 	.word	0x00000000
 8001954:	200008d4 	.word	0x200008d4

08001958 <calc_ntc_temp>:
 8001958:	b508      	push	{r3, lr}
 800195a:	ee80 0a80 	vdiv.f32	s0, s1, s0
 800195e:	ed2d 8b04 	vpush	{d8-d9}
 8001962:	ee21 9a81 	vmul.f32	s18, s3, s2
 8001966:	eef0 8a41 	vmov.f32	s17, s2
 800196a:	eeb0 8a61 	vmov.f32	s16, s3
 800196e:	f007 fce9 	bl	8009344 <logf>
 8001972:	eea8 8ac0 	vfms.f32	s16, s17, s0
 8001976:	eddf 7a04 	vldr	s15, [pc, #16]	; 8001988 <calc_ntc_temp+0x30>
 800197a:	ee89 0a08 	vdiv.f32	s0, s18, s16
 800197e:	ecbd 8b04 	vpop	{d8-d9}
 8001982:	ee30 0a67 	vsub.f32	s0, s0, s15
 8001986:	bd08      	pop	{r3, pc}
 8001988:	43888000 	.word	0x43888000

0800198c <analog_sample>:
 800198c:	b530      	push	{r4, r5, lr}
 800198e:	ed2d 8b02 	vpush	{d8}
 8001992:	4d3b      	ldr	r5, [pc, #236]	; (8001a80 <analog_sample+0xf4>)
 8001994:	b083      	sub	sp, #12
 8001996:	4604      	mov	r4, r0
 8001998:	4628      	mov	r0, r5
 800199a:	f000 fd6d 	bl	8002478 <HAL_ADC_Start>
 800199e:	f04f 31ff 	mov.w	r1, #4294967295
 80019a2:	4628      	mov	r0, r5
 80019a4:	f000 fdec 	bl	8002580 <HAL_ADC_PollForConversion>
 80019a8:	4628      	mov	r0, r5
 80019aa:	f000 fe3c 	bl	8002626 <HAL_ADC_GetValue>
 80019ae:	ee08 0a90 	vmov	s17, r0
 80019b2:	4834      	ldr	r0, [pc, #208]	; (8001a84 <analog_sample+0xf8>)
 80019b4:	f000 fe37 	bl	8002626 <HAL_ADC_GetValue>
 80019b8:	ee08 0a10 	vmov	s16, r0
 80019bc:	4832      	ldr	r0, [pc, #200]	; (8001a88 <analog_sample+0xfc>)
 80019be:	f000 fe32 	bl	8002626 <HAL_ADC_GetValue>
 80019c2:	eddf 7a32 	vldr	s15, [pc, #200]	; 8001a8c <analog_sample+0x100>
 80019c6:	ed9f 7a32 	vldr	s14, [pc, #200]	; 8001a90 <analog_sample+0x104>
 80019ca:	eddf 1a32 	vldr	s3, [pc, #200]	; 8001a94 <analog_sample+0x108>
 80019ce:	ed9f 1a32 	vldr	s2, [pc, #200]	; 8001a98 <analog_sample+0x10c>
 80019d2:	6020      	str	r0, [r4, #0]
 80019d4:	eeb8 8ac8 	vcvt.f32.s32	s16, s16
 80019d8:	eef8 8ae8 	vcvt.f32.s32	s17, s17
 80019dc:	ee28 8a27 	vmul.f32	s16, s16, s15
 80019e0:	ee68 8aa7 	vmul.f32	s17, s17, s15
 80019e4:	eec8 7a07 	vdiv.f32	s15, s16, s14
 80019e8:	ed9f 8a2c 	vldr	s16, [pc, #176]	; 8001a9c <analog_sample+0x110>
 80019ec:	edcd 1a01 	vstr	s3, [sp, #4]
 80019f0:	ee67 6a88 	vmul.f32	s13, s15, s16
 80019f4:	ee88 6a87 	vdiv.f32	s12, s17, s14
 80019f8:	eeb1 7a04 	vmov.f32	s14, #20	; 0x40a00000  5.0
 80019fc:	eec6 5a87 	vdiv.f32	s11, s13, s14
 8001a00:	eec7 6a87 	vdiv.f32	s13, s15, s14
 8001a04:	eef7 7a00 	vmov.f32	s15, #112	; 0x3f800000  1.0
 8001a08:	ee77 6ae6 	vsub.f32	s13, s15, s13
 8001a0c:	eef0 0a48 	vmov.f32	s1, s16
 8001a10:	eec5 8aa6 	vdiv.f32	s17, s11, s13
 8001a14:	ee66 6a08 	vmul.f32	s13, s12, s16
 8001a18:	ed8d 1a00 	vstr	s2, [sp]
 8001a1c:	ee86 0a87 	vdiv.f32	s0, s13, s14
 8001a20:	eec6 6a07 	vdiv.f32	s13, s12, s14
 8001a24:	ee77 7ae6 	vsub.f32	s15, s15, s13
 8001a28:	ee80 0a27 	vdiv.f32	s0, s0, s15
 8001a2c:	f7ff ff94 	bl	8001958 <calc_ntc_temp>
 8001a30:	eddd 1a01 	vldr	s3, [sp, #4]
 8001a34:	ed84 0a22 	vstr	s0, [r4, #136]	; 0x88
 8001a38:	ed9d 1a00 	vldr	s2, [sp]
 8001a3c:	eef0 0a48 	vmov.f32	s1, s16
 8001a40:	eeb0 0a68 	vmov.f32	s0, s17
 8001a44:	f7ff ff88 	bl	8001958 <calc_ntc_temp>
 8001a48:	e9d4 3200 	ldrd	r3, r2, [r4]
 8001a4c:	1a9b      	subs	r3, r3, r2
 8001a4e:	ee07 3a90 	vmov	s15, r3
 8001a52:	ed9f 7a13 	vldr	s14, [pc, #76]	; 8001aa0 <analog_sample+0x114>
 8001a56:	edd4 6a05 	vldr	s13, [r4, #20]
 8001a5a:	ed84 0a27 	vstr	s0, [r4, #156]	; 0x9c
 8001a5e:	eef8 7ae7 	vcvt.f32.s32	s15, s15
 8001a62:	ee67 7a87 	vmul.f32	s15, s15, s14
 8001a66:	ed9f 7a0f 	vldr	s14, [pc, #60]	; 8001aa4 <analog_sample+0x118>
 8001a6a:	edc4 7a03 	vstr	s15, [r4, #12]
 8001a6e:	eee6 7a87 	vfma.f32	s15, s13, s14
 8001a72:	edc4 7a05 	vstr	s15, [r4, #20]
 8001a76:	b003      	add	sp, #12
 8001a78:	ecbd 8b02 	vpop	{d8}
 8001a7c:	bd30      	pop	{r4, r5, pc}
 8001a7e:	bf00      	nop
 8001a80:	200005f8 	.word	0x200005f8
 8001a84:	200005b0 	.word	0x200005b0
 8001a88:	20000640 	.word	0x20000640
 8001a8c:	40533333 	.word	0x40533333
 8001a90:	457ff000 	.word	0x457ff000
 8001a94:	4576e000 	.word	0x4576e000
 8001a98:	43950000 	.word	0x43950000
 8001a9c:	47c35000 	.word	0x47c35000
 8001aa0:	43a6fdb8 	.word	0x43a6fdb8
 8001aa4:	00000000 	.word	0x00000000

08001aa8 <zero_sensors>:
 8001aa8:	b570      	push	{r4, r5, r6, lr}
 8001aaa:	4604      	mov	r4, r0
 8001aac:	f44f 767a 	mov.w	r6, #1000	; 0x3e8
 8001ab0:	2500      	movs	r5, #0
 8001ab2:	4620      	mov	r0, r4
 8001ab4:	f7ff ff6a 	bl	800198c <analog_sample>
 8001ab8:	6823      	ldr	r3, [r4, #0]
 8001aba:	3e01      	subs	r6, #1
 8001abc:	441d      	add	r5, r3
 8001abe:	d1f8      	bne.n	8001ab2 <zero_sensors+0xa>
 8001ac0:	f44f 737a 	mov.w	r3, #1000	; 0x3e8
 8001ac4:	fb95 f5f3 	sdiv	r5, r5, r3
 8001ac8:	6065      	str	r5, [r4, #4]
 8001aca:	bd70      	pop	{r4, r5, r6, pc}

08001acc <MX_GPIO_Init>:
 8001acc:	e92d 41f0 	stmdb	sp!, {r4, r5, r6, r7, r8, lr}
 8001ad0:	2214      	movs	r2, #20
 8001ad2:	b08a      	sub	sp, #40	; 0x28
 8001ad4:	eb0d 0002 	add.w	r0, sp, r2
 8001ad8:	2100      	movs	r1, #0
 8001ada:	f004 fefd 	bl	80068d8 <memset>
 8001ade:	2400      	movs	r4, #0
 8001ae0:	4b33      	ldr	r3, [pc, #204]	; (8001bb0 <MX_GPIO_Init+0xe4>)
 8001ae2:	9401      	str	r4, [sp, #4]
 8001ae4:	6b1a      	ldr	r2, [r3, #48]	; 0x30
 8001ae6:	f8df 80d4 	ldr.w	r8, [pc, #212]	; 8001bbc <MX_GPIO_Init+0xf0>
 8001aea:	4f32      	ldr	r7, [pc, #200]	; (8001bb4 <MX_GPIO_Init+0xe8>)
 8001aec:	4d32      	ldr	r5, [pc, #200]	; (8001bb8 <MX_GPIO_Init+0xec>)
 8001aee:	f042 0204 	orr.w	r2, r2, #4
 8001af2:	631a      	str	r2, [r3, #48]	; 0x30
 8001af4:	6b1a      	ldr	r2, [r3, #48]	; 0x30
 8001af6:	f002 0204 	and.w	r2, r2, #4
 8001afa:	9201      	str	r2, [sp, #4]
 8001afc:	9a01      	ldr	r2, [sp, #4]
 8001afe:	9402      	str	r4, [sp, #8]
 8001b00:	6b1a      	ldr	r2, [r3, #48]	; 0x30
 8001b02:	f042 0280 	orr.w	r2, r2, #128	; 0x80
 8001b06:	631a      	str	r2, [r3, #48]	; 0x30
 8001b08:	6b1a      	ldr	r2, [r3, #48]	; 0x30
 8001b0a:	f002 0280 	and.w	r2, r2, #128	; 0x80
 8001b0e:	9202      	str	r2, [sp, #8]
 8001b10:	9a02      	ldr	r2, [sp, #8]
 8001b12:	9403      	str	r4, [sp, #12]
 8001b14:	6b1a      	ldr	r2, [r3, #48]	; 0x30
 8001b16:	f042 0201 	orr.w	r2, r2, #1
 8001b1a:	631a      	str	r2, [r3, #48]	; 0x30
 8001b1c:	6b1a      	ldr	r2, [r3, #48]	; 0x30
 8001b1e:	f002 0201 	and.w	r2, r2, #1
 8001b22:	9203      	str	r2, [sp, #12]
 8001b24:	9a03      	ldr	r2, [sp, #12]
 8001b26:	9404      	str	r4, [sp, #16]
 8001b28:	6b1a      	ldr	r2, [r3, #48]	; 0x30
 8001b2a:	f042 0202 	orr.w	r2, r2, #2
 8001b2e:	631a      	str	r2, [r3, #48]	; 0x30
 8001b30:	6b1b      	ldr	r3, [r3, #48]	; 0x30
 8001b32:	f003 0302 	and.w	r3, r3, #2
 8001b36:	9304      	str	r3, [sp, #16]
 8001b38:	4622      	mov	r2, r4
 8001b3a:	4640      	mov	r0, r8
 8001b3c:	f44f 7108 	mov.w	r1, #544	; 0x220
 8001b40:	9b04      	ldr	r3, [sp, #16]
 8001b42:	f001 f96d 	bl	8002e20 <HAL_GPIO_WritePin>
 8001b46:	4622      	mov	r2, r4
 8001b48:	4638      	mov	r0, r7
 8001b4a:	f44f 6188 	mov.w	r1, #1088	; 0x440
 8001b4e:	f001 f967 	bl	8002e20 <HAL_GPIO_WritePin>
 8001b52:	4622      	mov	r2, r4
 8001b54:	4628      	mov	r0, r5
 8001b56:	2180      	movs	r1, #128	; 0x80
 8001b58:	f001 f962 	bl	8002e20 <HAL_GPIO_WritePin>
 8001b5c:	f44f 5300 	mov.w	r3, #8192	; 0x2000
 8001b60:	a905      	add	r1, sp, #20
 8001b62:	4628      	mov	r0, r5
 8001b64:	2601      	movs	r6, #1
 8001b66:	e9cd 3405 	strd	r3, r4, [sp, #20]
 8001b6a:	9407      	str	r4, [sp, #28]
 8001b6c:	f001 f884 	bl	8002c78 <HAL_GPIO_Init>
 8001b70:	f44f 7308 	mov.w	r3, #544	; 0x220
 8001b74:	a905      	add	r1, sp, #20
 8001b76:	4640      	mov	r0, r8
 8001b78:	e9cd 3605 	strd	r3, r6, [sp, #20]
 8001b7c:	e9cd 4407 	strd	r4, r4, [sp, #28]
 8001b80:	f001 f87a 	bl	8002c78 <HAL_GPIO_Init>
 8001b84:	f44f 6388 	mov.w	r3, #1088	; 0x440
 8001b88:	a905      	add	r1, sp, #20
 8001b8a:	4638      	mov	r0, r7
 8001b8c:	e9cd 3605 	strd	r3, r6, [sp, #20]
 8001b90:	e9cd 4407 	strd	r4, r4, [sp, #28]
 8001b94:	f001 f870 	bl	8002c78 <HAL_GPIO_Init>
 8001b98:	2380      	movs	r3, #128	; 0x80
 8001b9a:	a905      	add	r1, sp, #20
 8001b9c:	4628      	mov	r0, r5
 8001b9e:	e9cd 3605 	strd	r3, r6, [sp, #20]
 8001ba2:	e9cd 4407 	strd	r4, r4, [sp, #28]
 8001ba6:	f001 f867 	bl	8002c78 <HAL_GPIO_Init>
 8001baa:	b00a      	add	sp, #40	; 0x28
 8001bac:	e8bd 81f0 	ldmia.w	sp!, {r4, r5, r6, r7, r8, pc}
 8001bb0:	40023800 	.word	0x40023800
 8001bb4:	40020400 	.word	0x40020400
 8001bb8:	40020800 	.word	0x40020800
 8001bbc:	40020000 	.word	0x40020000

08001bc0 <SystemClock_Config>:
 8001bc0:	b570      	push	{r4, r5, r6, lr}
 8001bc2:	b0ac      	sub	sp, #176	; 0xb0
 8001bc4:	2210      	movs	r2, #16
 8001bc6:	2100      	movs	r1, #0
 8001bc8:	a80a      	add	r0, sp, #40	; 0x28
 8001bca:	f004 fe85 	bl	80068d8 <memset>
 8001bce:	2214      	movs	r2, #20
 8001bd0:	2100      	movs	r1, #0
 8001bd2:	a803      	add	r0, sp, #12
 8001bd4:	f004 fe80 	bl	80068d8 <memset>
 8001bd8:	225c      	movs	r2, #92	; 0x5c
 8001bda:	2100      	movs	r1, #0
 8001bdc:	a815      	add	r0, sp, #84	; 0x54
 8001bde:	f004 fe7b 	bl	80068d8 <memset>
 8001be2:	4b2c      	ldr	r3, [pc, #176]	; (8001c94 <SystemClock_Config+0xd4>)
 8001be4:	2100      	movs	r1, #0
 8001be6:	9101      	str	r1, [sp, #4]
 8001be8:	6c1a      	ldr	r2, [r3, #64]	; 0x40
 8001bea:	f042 5280 	orr.w	r2, r2, #268435456	; 0x10000000
 8001bee:	641a      	str	r2, [r3, #64]	; 0x40
 8001bf0:	6c1b      	ldr	r3, [r3, #64]	; 0x40
 8001bf2:	f003 5380 	and.w	r3, r3, #268435456	; 0x10000000
 8001bf6:	9301      	str	r3, [sp, #4]
 8001bf8:	9b01      	ldr	r3, [sp, #4]
 8001bfa:	4b27      	ldr	r3, [pc, #156]	; (8001c98 <SystemClock_Config+0xd8>)
 8001bfc:	9102      	str	r1, [sp, #8]
 8001bfe:	681a      	ldr	r2, [r3, #0]
 8001c00:	f442 4240 	orr.w	r2, r2, #49152	; 0xc000
 8001c04:	601a      	str	r2, [r3, #0]
 8001c06:	681b      	ldr	r3, [r3, #0]
 8001c08:	f403 4340 	and.w	r3, r3, #49152	; 0xc000
 8001c0c:	9302      	str	r3, [sp, #8]
 8001c0e:	9b02      	ldr	r3, [sp, #8]
 8001c10:	2601      	movs	r6, #1
 8001c12:	f44f 23a0 	mov.w	r3, #327680	; 0x50000
 8001c16:	2402      	movs	r4, #2
 8001c18:	e9cd 6308 	strd	r6, r3, [sp, #32]
 8001c1c:	f44f 0380 	mov.w	r3, #4194304	; 0x400000
 8001c20:	e9cd 430e 	strd	r4, r3, [sp, #56]	; 0x38
 8001c24:	2504      	movs	r5, #4
 8001c26:	23b4      	movs	r3, #180	; 0xb4
 8001c28:	a808      	add	r0, sp, #32
 8001c2a:	e9cd 5310 	strd	r5, r3, [sp, #64]	; 0x40
 8001c2e:	e9cd 4412 	strd	r4, r4, [sp, #72]	; 0x48
 8001c32:	9414      	str	r4, [sp, #80]	; 0x50
 8001c34:	f002 f930 	bl	8003e98 <HAL_RCC_OscConfig>
 8001c38:	b108      	cbz	r0, 8001c3e <SystemClock_Config+0x7e>
 8001c3a:	b672      	cpsid	i
 8001c3c:	e7fe      	b.n	8001c3c <SystemClock_Config+0x7c>
 8001c3e:	f001 fdd9 	bl	80037f4 <HAL_PWREx_EnableOverDrive>
 8001c42:	b108      	cbz	r0, 8001c48 <SystemClock_Config+0x88>
 8001c44:	b672      	cpsid	i
 8001c46:	e7fe      	b.n	8001c46 <SystemClock_Config+0x86>
 8001c48:	230f      	movs	r3, #15
 8001c4a:	e9cd 3403 	strd	r3, r4, [sp, #12]
 8001c4e:	9005      	str	r0, [sp, #20]
 8001c50:	f44f 52a0 	mov.w	r2, #5120	; 0x1400
 8001c54:	f44f 5380 	mov.w	r3, #4096	; 0x1000
 8001c58:	2105      	movs	r1, #5
 8001c5a:	a803      	add	r0, sp, #12
 8001c5c:	e9cd 2306 	strd	r2, r3, [sp, #24]
 8001c60:	f001 fe04 	bl	800386c <HAL_RCC_ClockConfig>
 8001c64:	b108      	cbz	r0, 8001c6a <SystemClock_Config+0xaa>
 8001c66:	b672      	cpsid	i
 8001c68:	e7fe      	b.n	8001c68 <SystemClock_Config+0xa8>
 8001c6a:	f44f 7380 	mov.w	r3, #256	; 0x100
 8001c6e:	9315      	str	r3, [sp, #84]	; 0x54
 8001c70:	2360      	movs	r3, #96	; 0x60
 8001c72:	931c      	str	r3, [sp, #112]	; 0x70
 8001c74:	a815      	add	r0, sp, #84	; 0x54
 8001c76:	f04f 6300 	mov.w	r3, #134217728	; 0x8000000
 8001c7a:	e9cd 541d 	strd	r5, r4, [sp, #116]	; 0x74
 8001c7e:	951b      	str	r5, [sp, #108]	; 0x6c
 8001c80:	9620      	str	r6, [sp, #128]	; 0x80
 8001c82:	932a      	str	r3, [sp, #168]	; 0xa8
 8001c84:	f001 feb4 	bl	80039f0 <HAL_RCCEx_PeriphCLKConfig>
 8001c88:	b108      	cbz	r0, 8001c8e <SystemClock_Config+0xce>
 8001c8a:	b672      	cpsid	i
 8001c8c:	e7fe      	b.n	8001c8c <SystemClock_Config+0xcc>
 8001c8e:	b02c      	add	sp, #176	; 0xb0
 8001c90:	bd70      	pop	{r4, r5, r6, pc}
 8001c92:	bf00      	nop
 8001c94:	40023800 	.word	0x40023800
 8001c98:	40007000 	.word	0x40007000

08001c9c <main>:
 8001c9c:	b508      	push	{r3, lr}
 8001c9e:	f000 fb05 	bl	80022ac <HAL_Init>
 8001ca2:	f7ff ff8d 	bl	8001bc0 <SystemClock_Config>
 8001ca6:	f7ff ff11 	bl	8001acc <MX_GPIO_Init>
 8001caa:	f000 fa4f 	bl	800214c <MX_USART2_UART_Init>
 8001cae:	f000 f883 	bl	8001db8 <MX_SPI3_Init>
 8001cb2:	f000 fa09 	bl	80020c8 <MX_TIM3_Init>
 8001cb6:	f7ff f963 	bl	8000f80 <MX_ADC1_Init>
 8001cba:	f7ff f9a5 	bl	8001008 <MX_ADC2_Init>
 8001cbe:	f7ff f9d1 	bl	8001064 <MX_ADC3_Init>
 8001cc2:	f7ff fa73 	bl	80011ac <MX_CAN1_Init>
 8001cc6:	f004 fb55 	bl	8006374 <MX_USB_DEVICE_Init>
 8001cca:	4815      	ldr	r0, [pc, #84]	; (8001d20 <main+0x84>)
 8001ccc:	f000 fbd4 	bl	8002478 <HAL_ADC_Start>
 8001cd0:	4814      	ldr	r0, [pc, #80]	; (8001d24 <main+0x88>)
 8001cd2:	f000 fbd1 	bl	8002478 <HAL_ADC_Start>
 8001cd6:	4814      	ldr	r0, [pc, #80]	; (8001d28 <main+0x8c>)
 8001cd8:	f000 fbce 	bl	8002478 <HAL_ADC_Start>
 8001cdc:	4813      	ldr	r0, [pc, #76]	; (8001d2c <main+0x90>)
 8001cde:	f7ff fee3 	bl	8001aa8 <zero_sensors>
 8001ce2:	4813      	ldr	r0, [pc, #76]	; (8001d30 <main+0x94>)
 8001ce4:	f7ff fab8 	bl	8001258 <can_rx_init>
 8001ce8:	4812      	ldr	r0, [pc, #72]	; (8001d34 <main+0x98>)
 8001cea:	f7ff fac9 	bl	8001280 <can_tx_init>
 8001cee:	4812      	ldr	r0, [pc, #72]	; (8001d38 <main+0x9c>)
 8001cf0:	f000 fe64 	bl	80029bc <HAL_CAN_Start>
 8001cf4:	2100      	movs	r1, #0
 8001cf6:	4811      	ldr	r0, [pc, #68]	; (8001d3c <main+0xa0>)
 8001cf8:	f002 ff68 	bl	8004bcc <HAL_TIM_PWM_Start>
 8001cfc:	2104      	movs	r1, #4
 8001cfe:	480f      	ldr	r0, [pc, #60]	; (8001d3c <main+0xa0>)
 8001d00:	f002 ff64 	bl	8004bcc <HAL_TIM_PWM_Start>
 8001d04:	f44f 707a 	mov.w	r0, #1000	; 0x3e8
 8001d08:	f000 fafc 	bl	8002304 <HAL_Delay>
 8001d0c:	f7ff fcaa 	bl	8001664 <pump_enable>
 8001d10:	2064      	movs	r0, #100	; 0x64
 8001d12:	f000 faf7 	bl	8002304 <HAL_Delay>
 8001d16:	4809      	ldr	r0, [pc, #36]	; (8001d3c <main+0xa0>)
 8001d18:	f002 fcde 	bl	80046d8 <HAL_TIM_Base_Start_IT>
 8001d1c:	e7fe      	b.n	8001d1c <main+0x80>
 8001d1e:	bf00      	nop
 8001d20:	200005f8 	.word	0x200005f8
 8001d24:	200005b0 	.word	0x200005b0
 8001d28:	20000640 	.word	0x20000640
 8001d2c:	20000750 	.word	0x20000750
 8001d30:	20000830 	.word	0x20000830
 8001d34:	2000080c 	.word	0x2000080c
 8001d38:	20000688 	.word	0x20000688
 8001d3c:	200008d4 	.word	0x200008d4

08001d40 <Error_Handler>:
 8001d40:	b672      	cpsid	i
 8001d42:	e7fe      	b.n	8001d42 <Error_Handler+0x2>

08001d44 <fast_fmaxf>:
 8001d44:	eeb4 0ae0 	vcmpe.f32	s0, s1
 8001d48:	eef1 fa10 	vmrs	APSR_nzcv, fpscr
 8001d4c:	bfd8      	it	le
 8001d4e:	eeb0 0a60 	vmovle.f32	s0, s1
 8001d52:	4770      	bx	lr

08001d54 <fast_fminf>:
 8001d54:	eeb4 0ae0 	vcmpe.f32	s0, s1
 8001d58:	eef1 fa10 	vmrs	APSR_nzcv, fpscr
 8001d5c:	bf58      	it	pl
 8001d5e:	eeb0 0a60 	vmovpl.f32	s0, s1
 8001d62:	4770      	bx	lr

08001d64 <float_to_uint>:
 8001d64:	2301      	movs	r3, #1
 8001d66:	fa03 f000 	lsl.w	r0, r3, r0
 8001d6a:	3801      	subs	r0, #1
 8001d6c:	ee07 0a90 	vmov	s15, r0
 8001d70:	ee30 0a60 	vsub.f32	s0, s0, s1
 8001d74:	eef8 7ae7 	vcvt.f32.s32	s15, s15
 8001d78:	ee71 0a60 	vsub.f32	s1, s2, s1
 8001d7c:	ee67 7a80 	vmul.f32	s15, s15, s0
 8001d80:	ee87 7aa0 	vdiv.f32	s14, s15, s1
 8001d84:	eefd 7ac7 	vcvt.s32.f32	s15, s14
 8001d88:	ee17 0a90 	vmov	r0, s15
 8001d8c:	4770      	bx	lr

08001d8e <uint_to_float>:
 8001d8e:	ee07 0a90 	vmov	s15, r0
 8001d92:	2301      	movs	r3, #1
 8001d94:	eef8 7ae7 	vcvt.f32.s32	s15, s15
 8001d98:	ee70 0ac0 	vsub.f32	s1, s1, s0
 8001d9c:	fa03 f101 	lsl.w	r1, r3, r1
 8001da0:	3901      	subs	r1, #1
 8001da2:	ee67 0aa0 	vmul.f32	s1, s15, s1
 8001da6:	ee07 1a90 	vmov	s15, r1
 8001daa:	eef8 7ae7 	vcvt.f32.s32	s15, s15
 8001dae:	ee80 7aa7 	vdiv.f32	s14, s1, s15
 8001db2:	ee37 0a00 	vadd.f32	s0, s14, s0
 8001db6:	4770      	bx	lr

08001db8 <MX_SPI3_Init>:
 8001db8:	480f      	ldr	r0, [pc, #60]	; (8001df8 <MX_SPI3_Init+0x40>)
 8001dba:	4a10      	ldr	r2, [pc, #64]	; (8001dfc <MX_SPI3_Init+0x44>)
 8001dbc:	b508      	push	{r3, lr}
 8001dbe:	f44f 7382 	mov.w	r3, #260	; 0x104
 8001dc2:	e9c0 2300 	strd	r2, r3, [r0]
 8001dc6:	2101      	movs	r1, #1
 8001dc8:	f44f 7200 	mov.w	r2, #512	; 0x200
 8001dcc:	2300      	movs	r3, #0
 8001dce:	e9c0 1205 	strd	r1, r2, [r0, #20]
 8001dd2:	2218      	movs	r2, #24
 8001dd4:	e9c0 3302 	strd	r3, r3, [r0, #8]
 8001dd8:	e9c0 2307 	strd	r2, r3, [r0, #28]
 8001ddc:	e9c0 3309 	strd	r3, r3, [r0, #36]	; 0x24
 8001de0:	6103      	str	r3, [r0, #16]
 8001de2:	230a      	movs	r3, #10
 8001de4:	62c3      	str	r3, [r0, #44]	; 0x2c
 8001de6:	f002 fa9d 	bl	8004324 <HAL_SPI_Init>
 8001dea:	b118      	cbz	r0, 8001df4 <MX_SPI3_Init+0x3c>
 8001dec:	e8bd 4008 	ldmia.w	sp!, {r3, lr}
 8001df0:	f7ff bfa6 	b.w	8001d40 <Error_Handler>
 8001df4:	bd08      	pop	{r3, pc}
 8001df6:	bf00      	nop
 8001df8:	2000087c 	.word	0x2000087c
 8001dfc:	40003c00 	.word	0x40003c00

08001e00 <HAL_SPI_MspInit>:
 8001e00:	b510      	push	{r4, lr}
 8001e02:	4604      	mov	r4, r0
 8001e04:	b088      	sub	sp, #32
 8001e06:	2214      	movs	r2, #20
 8001e08:	2100      	movs	r1, #0
 8001e0a:	a803      	add	r0, sp, #12
 8001e0c:	f004 fd64 	bl	80068d8 <memset>
 8001e10:	6822      	ldr	r2, [r4, #0]
 8001e12:	4b14      	ldr	r3, [pc, #80]	; (8001e64 <HAL_SPI_MspInit+0x64>)
 8001e14:	429a      	cmp	r2, r3
 8001e16:	d123      	bne.n	8001e60 <HAL_SPI_MspInit+0x60>
 8001e18:	f503 33fe 	add.w	r3, r3, #130048	; 0x1fc00
 8001e1c:	2200      	movs	r2, #0
 8001e1e:	9201      	str	r2, [sp, #4]
 8001e20:	6c19      	ldr	r1, [r3, #64]	; 0x40
 8001e22:	f441 4100 	orr.w	r1, r1, #32768	; 0x8000
 8001e26:	6419      	str	r1, [r3, #64]	; 0x40
 8001e28:	6c19      	ldr	r1, [r3, #64]	; 0x40
 8001e2a:	f401 4100 	and.w	r1, r1, #32768	; 0x8000
 8001e2e:	9101      	str	r1, [sp, #4]
 8001e30:	9901      	ldr	r1, [sp, #4]
 8001e32:	9202      	str	r2, [sp, #8]
 8001e34:	6b19      	ldr	r1, [r3, #48]	; 0x30
 8001e36:	f041 0102 	orr.w	r1, r1, #2
 8001e3a:	6319      	str	r1, [r3, #48]	; 0x30
 8001e3c:	6b1b      	ldr	r3, [r3, #48]	; 0x30
 8001e3e:	9205      	str	r2, [sp, #20]
 8001e40:	f003 0302 	and.w	r3, r3, #2
 8001e44:	9302      	str	r3, [sp, #8]
 8001e46:	2138      	movs	r1, #56	; 0x38
 8001e48:	9b02      	ldr	r3, [sp, #8]
 8001e4a:	2302      	movs	r3, #2
 8001e4c:	e9cd 1303 	strd	r1, r3, [sp, #12]
 8001e50:	2003      	movs	r0, #3
 8001e52:	2306      	movs	r3, #6
 8001e54:	e9cd 0306 	strd	r0, r3, [sp, #24]
 8001e58:	a903      	add	r1, sp, #12
 8001e5a:	4803      	ldr	r0, [pc, #12]	; (8001e68 <HAL_SPI_MspInit+0x68>)
 8001e5c:	f000 ff0c 	bl	8002c78 <HAL_GPIO_Init>
 8001e60:	b008      	add	sp, #32
 8001e62:	bd10      	pop	{r4, pc}
 8001e64:	40003c00 	.word	0x40003c00
 8001e68:	40020400 	.word	0x40020400

08001e6c <HAL_MspInit>:
 8001e6c:	b082      	sub	sp, #8
 8001e6e:	4b0d      	ldr	r3, [pc, #52]	; (8001ea4 <HAL_MspInit+0x38>)
 8001e70:	2100      	movs	r1, #0
 8001e72:	9100      	str	r1, [sp, #0]
 8001e74:	6c5a      	ldr	r2, [r3, #68]	; 0x44
 8001e76:	f442 4280 	orr.w	r2, r2, #16384	; 0x4000
 8001e7a:	645a      	str	r2, [r3, #68]	; 0x44
 8001e7c:	6c5a      	ldr	r2, [r3, #68]	; 0x44
 8001e7e:	f402 4280 	and.w	r2, r2, #16384	; 0x4000
 8001e82:	9200      	str	r2, [sp, #0]
 8001e84:	9a00      	ldr	r2, [sp, #0]
 8001e86:	9101      	str	r1, [sp, #4]
 8001e88:	6c1a      	ldr	r2, [r3, #64]	; 0x40
 8001e8a:	f042 5280 	orr.w	r2, r2, #268435456	; 0x10000000
 8001e8e:	641a      	str	r2, [r3, #64]	; 0x40
 8001e90:	6c1b      	ldr	r3, [r3, #64]	; 0x40
 8001e92:	f003 5380 	and.w	r3, r3, #268435456	; 0x10000000
 8001e96:	9301      	str	r3, [sp, #4]
 8001e98:	9b01      	ldr	r3, [sp, #4]
 8001e9a:	2007      	movs	r0, #7
 8001e9c:	b002      	add	sp, #8
 8001e9e:	f000 be83 	b.w	8002ba8 <HAL_NVIC_SetPriorityGrouping>
 8001ea2:	bf00      	nop
 8001ea4:	40023800 	.word	0x40023800

08001ea8 <NMI_Handler>:
 8001ea8:	e7fe      	b.n	8001ea8 <NMI_Handler>

08001eaa <HardFault_Handler>:
 8001eaa:	e7fe      	b.n	8001eaa <HardFault_Handler>

08001eac <MemManage_Handler>:
 8001eac:	e7fe      	b.n	8001eac <MemManage_Handler>

08001eae <BusFault_Handler>:
 8001eae:	e7fe      	b.n	8001eae <BusFault_Handler>

08001eb0 <UsageFault_Handler>:
 8001eb0:	e7fe      	b.n	8001eb0 <UsageFault_Handler>

08001eb2 <SVC_Handler>:
 8001eb2:	4770      	bx	lr

08001eb4 <DebugMon_Handler>:
 8001eb4:	4770      	bx	lr

08001eb6 <PendSV_Handler>:
 8001eb6:	4770      	bx	lr

08001eb8 <SysTick_Handler>:
 8001eb8:	f000 ba12 	b.w	80022e0 <HAL_IncTick>

08001ebc <TIM3_IRQHandler>:
 8001ebc:	b538      	push	{r3, r4, r5, lr}
 8001ebe:	4c21      	ldr	r4, [pc, #132]	; (8001f44 <TIM3_IRQHandler+0x88>)
 8001ec0:	ed9f 7a21 	vldr	s14, [pc, #132]	; 8001f48 <TIM3_IRQHandler+0x8c>
 8001ec4:	edd4 7a02 	vldr	s15, [r4, #8]
 8001ec8:	4d20      	ldr	r5, [pc, #128]	; (8001f4c <TIM3_IRQHandler+0x90>)
 8001eca:	ee77 7a87 	vadd.f32	s15, s15, s14
 8001ece:	4629      	mov	r1, r5
 8001ed0:	4620      	mov	r0, r4
 8001ed2:	edc4 7a02 	vstr	s15, [r4, #8]
 8001ed6:	f7ff fad9 	bl	800148c <update_commands>
 8001eda:	4620      	mov	r0, r4
 8001edc:	f7ff fae4 	bl	80014a8 <spi_sample>
 8001ee0:	4620      	mov	r0, r4
 8001ee2:	f7ff fd53 	bl	800198c <analog_sample>
 8001ee6:	4620      	mov	r0, r4
 8001ee8:	f7ff fb7e 	bl	80015e8 <can_sample>
 8001eec:	4620      	mov	r0, r4
 8001eee:	f7ff fbd3 	bl	8001698 <pressure_control>
 8001ef2:	4620      	mov	r0, r4
 8001ef4:	f7ff fc88 	bl	8001808 <update_flow_est>
 8001ef8:	4620      	mov	r0, r4
 8001efa:	f7ff fcc3 	bl	8001884 <group_temp_control>
 8001efe:	68a3      	ldr	r3, [r4, #8]
 8001f00:	602b      	str	r3, [r5, #0]
 8001f02:	6be3      	ldr	r3, [r4, #60]	; 0x3c
 8001f04:	60ab      	str	r3, [r5, #8]
 8001f06:	6f63      	ldr	r3, [r4, #116]	; 0x74
 8001f08:	60eb      	str	r3, [r5, #12]
 8001f0a:	f8d4 3088 	ldr.w	r3, [r4, #136]	; 0x88
 8001f0e:	edd4 7a05 	vldr	s15, [r4, #20]
 8001f12:	612b      	str	r3, [r5, #16]
 8001f14:	ed9f 7a0e 	vldr	s14, [pc, #56]	; 8001f50 <TIM3_IRQHandler+0x94>
 8001f18:	f8d4 309c 	ldr.w	r3, [r4, #156]	; 0x9c
 8001f1c:	616b      	str	r3, [r5, #20]
 8001f1e:	6da3      	ldr	r3, [r4, #88]	; 0x58
 8001f20:	61ab      	str	r3, [r5, #24]
 8001f22:	ee67 7a87 	vmul.f32	s15, s15, s14
 8001f26:	6ea3      	ldr	r3, [r4, #104]	; 0x68
 8001f28:	61eb      	str	r3, [r5, #28]
 8001f2a:	4628      	mov	r0, r5
 8001f2c:	6de3      	ldr	r3, [r4, #92]	; 0x5c
 8001f2e:	edc5 7a01 	vstr	s15, [r5, #4]
 8001f32:	2150      	movs	r1, #80	; 0x50
 8001f34:	622b      	str	r3, [r5, #32]
 8001f36:	f004 fa75 	bl	8006424 <CDC_Transmit_FS>
 8001f3a:	e8bd 4038 	ldmia.w	sp!, {r3, r4, r5, lr}
 8001f3e:	4805      	ldr	r0, [pc, #20]	; (8001f54 <TIM3_IRQHandler+0x98>)
 8001f40:	f002 bc09 	b.w	8004756 <HAL_TIM_IRQHandler>
 8001f44:	20000750 	.word	0x20000750
 8001f48:	3a3cbe62 	.word	0x3a3cbe62
 8001f4c:	200006b0 	.word	0x200006b0
 8001f50:	3727c5ac 	.word	0x3727c5ac
 8001f54:	200008d4 	.word	0x200008d4

08001f58 <OTG_FS_IRQHandler>:
 8001f58:	4801      	ldr	r0, [pc, #4]	; (8001f60 <OTG_FS_IRQHandler+0x8>)
 8001f5a:	f001 b811 	b.w	8002f80 <HAL_PCD_IRQHandler>
 8001f5e:	bf00      	nop
 8001f60:	20001e34 	.word	0x20001e34

08001f64 <_getpid>:
 8001f64:	2001      	movs	r0, #1
 8001f66:	4770      	bx	lr

08001f68 <_kill>:
 8001f68:	b508      	push	{r3, lr}
 8001f6a:	f004 fc7d 	bl	8006868 <__errno>
 8001f6e:	2316      	movs	r3, #22
 8001f70:	6003      	str	r3, [r0, #0]
 8001f72:	f04f 30ff 	mov.w	r0, #4294967295
 8001f76:	bd08      	pop	{r3, pc}

08001f78 <_exit>:
 8001f78:	b508      	push	{r3, lr}
 8001f7a:	f004 fc75 	bl	8006868 <__errno>
 8001f7e:	2316      	movs	r3, #22
 8001f80:	6003      	str	r3, [r0, #0]
 8001f82:	e7fe      	b.n	8001f82 <_exit+0xa>

08001f84 <_read>:
 8001f84:	b570      	push	{r4, r5, r6, lr}
 8001f86:	460e      	mov	r6, r1
 8001f88:	4614      	mov	r4, r2
 8001f8a:	2500      	movs	r5, #0
 8001f8c:	42a5      	cmp	r5, r4
 8001f8e:	db01      	blt.n	8001f94 <_read+0x10>
 8001f90:	4620      	mov	r0, r4
 8001f92:	bd70      	pop	{r4, r5, r6, pc}
 8001f94:	f3af 8000 	nop.w
 8001f98:	5570      	strb	r0, [r6, r5]
 8001f9a:	3501      	adds	r5, #1
 8001f9c:	e7f6      	b.n	8001f8c <_read+0x8>

08001f9e <_write>:
 8001f9e:	b570      	push	{r4, r5, r6, lr}
 8001fa0:	460e      	mov	r6, r1
 8001fa2:	4614      	mov	r4, r2
 8001fa4:	2500      	movs	r5, #0
 8001fa6:	42a5      	cmp	r5, r4
 8001fa8:	db01      	blt.n	8001fae <_write+0x10>
 8001faa:	4620      	mov	r0, r4
 8001fac:	bd70      	pop	{r4, r5, r6, pc}
 8001fae:	5d70      	ldrb	r0, [r6, r5]
 8001fb0:	f000 f91e 	bl	80021f0 <__io_putchar>
 8001fb4:	3501      	adds	r5, #1
 8001fb6:	e7f6      	b.n	8001fa6 <_write+0x8>

08001fb8 <_close>:
 8001fb8:	f04f 30ff 	mov.w	r0, #4294967295
 8001fbc:	4770      	bx	lr

08001fbe <_fstat>:
 8001fbe:	f44f 5300 	mov.w	r3, #8192	; 0x2000
 8001fc2:	604b      	str	r3, [r1, #4]
 8001fc4:	2000      	movs	r0, #0
 8001fc6:	4770      	bx	lr

08001fc8 <_isatty>:
 8001fc8:	2001      	movs	r0, #1
 8001fca:	4770      	bx	lr

08001fcc <_lseek>:
 8001fcc:	2000      	movs	r0, #0
 8001fce:	4770      	bx	lr

08001fd0 <_sbrk>:
 8001fd0:	4b0b      	ldr	r3, [pc, #44]	; (8002000 <_sbrk+0x30>)
 8001fd2:	6819      	ldr	r1, [r3, #0]
 8001fd4:	b510      	push	{r4, lr}
 8001fd6:	4602      	mov	r2, r0
 8001fd8:	b909      	cbnz	r1, 8001fde <_sbrk+0xe>
 8001fda:	490a      	ldr	r1, [pc, #40]	; (8002004 <_sbrk+0x34>)
 8001fdc:	6019      	str	r1, [r3, #0]
 8001fde:	6818      	ldr	r0, [r3, #0]
 8001fe0:	4909      	ldr	r1, [pc, #36]	; (8002008 <_sbrk+0x38>)
 8001fe2:	4c0a      	ldr	r4, [pc, #40]	; (800200c <_sbrk+0x3c>)
 8001fe4:	4402      	add	r2, r0
 8001fe6:	1b09      	subs	r1, r1, r4
 8001fe8:	428a      	cmp	r2, r1
 8001fea:	d906      	bls.n	8001ffa <_sbrk+0x2a>
 8001fec:	f004 fc3c 	bl	8006868 <__errno>
 8001ff0:	230c      	movs	r3, #12
 8001ff2:	6003      	str	r3, [r0, #0]
 8001ff4:	f04f 30ff 	mov.w	r0, #4294967295
 8001ff8:	bd10      	pop	{r4, pc}
 8001ffa:	601a      	str	r2, [r3, #0]
 8001ffc:	e7fc      	b.n	8001ff8 <_sbrk+0x28>
 8001ffe:	bf00      	nop
 8002000:	20000380 	.word	0x20000380
 8002004:	20002250 	.word	0x20002250
 8002008:	20020000 	.word	0x20020000
 800200c:	00000400 	.word	0x00000400

08002010 <SystemInit>:
 8002010:	4b05      	ldr	r3, [pc, #20]	; (8002028 <SystemInit+0x18>)
 8002012:	f8d3 2088 	ldr.w	r2, [r3, #136]	; 0x88
 8002016:	f442 0270 	orr.w	r2, r2, #15728640	; 0xf00000
 800201a:	f8c3 2088 	str.w	r2, [r3, #136]	; 0x88
 800201e:	f04f 6200 	mov.w	r2, #134217728	; 0x8000000
 8002022:	609a      	str	r2, [r3, #8]
 8002024:	4770      	bx	lr
 8002026:	bf00      	nop
 8002028:	e000ed00 	.word	0xe000ed00

0800202c <HAL_TIM_PWM_MspInit>:
 800202c:	b507      	push	{r0, r1, r2, lr}
 800202e:	4b0f      	ldr	r3, [pc, #60]	; (800206c <HAL_TIM_PWM_MspInit+0x40>)
 8002030:	6802      	ldr	r2, [r0, #0]
 8002032:	429a      	cmp	r2, r3
 8002034:	d116      	bne.n	8002064 <HAL_TIM_PWM_MspInit+0x38>
 8002036:	2200      	movs	r2, #0
 8002038:	f503 330d 	add.w	r3, r3, #144384	; 0x23400
 800203c:	9201      	str	r2, [sp, #4]
 800203e:	6c19      	ldr	r1, [r3, #64]	; 0x40
 8002040:	f041 0102 	orr.w	r1, r1, #2
 8002044:	6419      	str	r1, [r3, #64]	; 0x40
 8002046:	6c1b      	ldr	r3, [r3, #64]	; 0x40
 8002048:	f003 0302 	and.w	r3, r3, #2
 800204c:	9301      	str	r3, [sp, #4]
 800204e:	4611      	mov	r1, r2
 8002050:	201d      	movs	r0, #29
 8002052:	9b01      	ldr	r3, [sp, #4]
 8002054:	f000 fdba 	bl	8002bcc <HAL_NVIC_SetPriority>
 8002058:	201d      	movs	r0, #29
 800205a:	b003      	add	sp, #12
 800205c:	f85d eb04 	ldr.w	lr, [sp], #4
 8002060:	f000 bde6 	b.w	8002c30 <HAL_NVIC_EnableIRQ>
 8002064:	b003      	add	sp, #12
 8002066:	f85d fb04 	ldr.w	pc, [sp], #4
 800206a:	bf00      	nop
 800206c:	40000400 	.word	0x40000400

08002070 <HAL_TIM_MspPostInit>:
 8002070:	b510      	push	{r4, lr}
 8002072:	4604      	mov	r4, r0
 8002074:	b086      	sub	sp, #24
 8002076:	2214      	movs	r2, #20
 8002078:	2100      	movs	r1, #0
 800207a:	a801      	add	r0, sp, #4
 800207c:	f004 fc2c 	bl	80068d8 <memset>
 8002080:	6822      	ldr	r2, [r4, #0]
 8002082:	4b0e      	ldr	r3, [pc, #56]	; (80020bc <HAL_TIM_MspPostInit+0x4c>)
 8002084:	429a      	cmp	r2, r3
 8002086:	d116      	bne.n	80020b6 <HAL_TIM_MspPostInit+0x46>
 8002088:	4a0d      	ldr	r2, [pc, #52]	; (80020c0 <HAL_TIM_MspPostInit+0x50>)
 800208a:	480e      	ldr	r0, [pc, #56]	; (80020c4 <HAL_TIM_MspPostInit+0x54>)
 800208c:	2300      	movs	r3, #0
 800208e:	9300      	str	r3, [sp, #0]
 8002090:	6b11      	ldr	r1, [r2, #48]	; 0x30
 8002092:	f041 0101 	orr.w	r1, r1, #1
 8002096:	6311      	str	r1, [r2, #48]	; 0x30
 8002098:	6b12      	ldr	r2, [r2, #48]	; 0x30
 800209a:	f002 0201 	and.w	r2, r2, #1
 800209e:	9200      	str	r2, [sp, #0]
 80020a0:	21c0      	movs	r1, #192	; 0xc0
 80020a2:	9a00      	ldr	r2, [sp, #0]
 80020a4:	2202      	movs	r2, #2
 80020a6:	e9cd 1201 	strd	r1, r2, [sp, #4]
 80020aa:	a901      	add	r1, sp, #4
 80020ac:	e9cd 3303 	strd	r3, r3, [sp, #12]
 80020b0:	9205      	str	r2, [sp, #20]
 80020b2:	f000 fde1 	bl	8002c78 <HAL_GPIO_Init>
 80020b6:	b006      	add	sp, #24
 80020b8:	bd10      	pop	{r4, pc}
 80020ba:	bf00      	nop
 80020bc:	40000400 	.word	0x40000400
 80020c0:	40023800 	.word	0x40023800
 80020c4:	40020000 	.word	0x40020000

080020c8 <MX_TIM3_Init>:
 80020c8:	b510      	push	{r4, lr}
 80020ca:	2400      	movs	r4, #0
 80020cc:	b08a      	sub	sp, #40	; 0x28
 80020ce:	221c      	movs	r2, #28
 80020d0:	4621      	mov	r1, r4
 80020d2:	a803      	add	r0, sp, #12
 80020d4:	e9cd 4401 	strd	r4, r4, [sp, #4]
 80020d8:	f004 fbfe 	bl	80068d8 <memset>
 80020dc:	4819      	ldr	r0, [pc, #100]	; (8002144 <MX_TIM3_Init+0x7c>)
 80020de:	4b1a      	ldr	r3, [pc, #104]	; (8002148 <MX_TIM3_Init+0x80>)
 80020e0:	6084      	str	r4, [r0, #8]
 80020e2:	e9c0 3400 	strd	r3, r4, [r0]
 80020e6:	f64f 73ff 	movw	r3, #65535	; 0xffff
 80020ea:	e9c0 3403 	strd	r3, r4, [r0, #12]
 80020ee:	2380      	movs	r3, #128	; 0x80
 80020f0:	6183      	str	r3, [r0, #24]
 80020f2:	f002 fc39 	bl	8004968 <HAL_TIM_PWM_Init>
 80020f6:	b108      	cbz	r0, 80020fc <MX_TIM3_Init+0x34>
 80020f8:	f7ff fe22 	bl	8001d40 <Error_Handler>
 80020fc:	4811      	ldr	r0, [pc, #68]	; (8002144 <MX_TIM3_Init+0x7c>)
 80020fe:	a901      	add	r1, sp, #4
 8002100:	e9cd 4401 	strd	r4, r4, [sp, #4]
 8002104:	f002 fd64 	bl	8004bd0 <HAL_TIMEx_MasterConfigSynchronization>
 8002108:	b108      	cbz	r0, 800210e <MX_TIM3_Init+0x46>
 800210a:	f7ff fe19 	bl	8001d40 <Error_Handler>
 800210e:	2200      	movs	r2, #0
 8002110:	2360      	movs	r3, #96	; 0x60
 8002112:	480c      	ldr	r0, [pc, #48]	; (8002144 <MX_TIM3_Init+0x7c>)
 8002114:	9205      	str	r2, [sp, #20]
 8002116:	a903      	add	r1, sp, #12
 8002118:	e9cd 3203 	strd	r3, r2, [sp, #12]
 800211c:	9207      	str	r2, [sp, #28]
 800211e:	f002 fc85 	bl	8004a2c <HAL_TIM_PWM_ConfigChannel>
 8002122:	b108      	cbz	r0, 8002128 <MX_TIM3_Init+0x60>
 8002124:	f7ff fe0c 	bl	8001d40 <Error_Handler>
 8002128:	4806      	ldr	r0, [pc, #24]	; (8002144 <MX_TIM3_Init+0x7c>)
 800212a:	2204      	movs	r2, #4
 800212c:	a903      	add	r1, sp, #12
 800212e:	f002 fc7d 	bl	8004a2c <HAL_TIM_PWM_ConfigChannel>
 8002132:	b108      	cbz	r0, 8002138 <MX_TIM3_Init+0x70>
 8002134:	f7ff fe04 	bl	8001d40 <Error_Handler>
 8002138:	4802      	ldr	r0, [pc, #8]	; (8002144 <MX_TIM3_Init+0x7c>)
 800213a:	f7ff ff99 	bl	8002070 <HAL_TIM_MspPostInit>
 800213e:	b00a      	add	sp, #40	; 0x28
 8002140:	bd10      	pop	{r4, pc}
 8002142:	bf00      	nop
 8002144:	200008d4 	.word	0x200008d4
 8002148:	40000400 	.word	0x40000400

0800214c <MX_USART2_UART_Init>:
 800214c:	480b      	ldr	r0, [pc, #44]	; (800217c <MX_USART2_UART_Init+0x30>)
 800214e:	4a0c      	ldr	r2, [pc, #48]	; (8002180 <MX_USART2_UART_Init+0x34>)
 8002150:	b508      	push	{r3, lr}
 8002152:	f44f 2361 	mov.w	r3, #921600	; 0xe1000
 8002156:	e9c0 2300 	strd	r2, r3, [r0]
 800215a:	2300      	movs	r3, #0
 800215c:	220c      	movs	r2, #12
 800215e:	e9c0 3302 	strd	r3, r3, [r0, #8]
 8002162:	e9c0 2305 	strd	r2, r3, [r0, #20]
 8002166:	6103      	str	r3, [r0, #16]
 8002168:	61c3      	str	r3, [r0, #28]
 800216a:	f002 fdf7 	bl	8004d5c <HAL_UART_Init>
 800216e:	b118      	cbz	r0, 8002178 <MX_USART2_UART_Init+0x2c>
 8002170:	e8bd 4008 	ldmia.w	sp!, {r3, lr}
 8002174:	f7ff bde4 	b.w	8001d40 <Error_Handler>
 8002178:	bd08      	pop	{r3, pc}
 800217a:	bf00      	nop
 800217c:	2000091c 	.word	0x2000091c
 8002180:	40004400 	.word	0x40004400

08002184 <HAL_UART_MspInit>:
 8002184:	b510      	push	{r4, lr}
 8002186:	4604      	mov	r4, r0
 8002188:	b088      	sub	sp, #32
 800218a:	2214      	movs	r2, #20
 800218c:	2100      	movs	r1, #0
 800218e:	a803      	add	r0, sp, #12
 8002190:	f004 fba2 	bl	80068d8 <memset>
 8002194:	6822      	ldr	r2, [r4, #0]
 8002196:	4b14      	ldr	r3, [pc, #80]	; (80021e8 <HAL_UART_MspInit+0x64>)
 8002198:	429a      	cmp	r2, r3
 800219a:	d123      	bne.n	80021e4 <HAL_UART_MspInit+0x60>
 800219c:	f503 33fa 	add.w	r3, r3, #128000	; 0x1f400
 80021a0:	2200      	movs	r2, #0
 80021a2:	9201      	str	r2, [sp, #4]
 80021a4:	6c19      	ldr	r1, [r3, #64]	; 0x40
 80021a6:	f441 3100 	orr.w	r1, r1, #131072	; 0x20000
 80021aa:	6419      	str	r1, [r3, #64]	; 0x40
 80021ac:	6c19      	ldr	r1, [r3, #64]	; 0x40
 80021ae:	f401 3100 	and.w	r1, r1, #131072	; 0x20000
 80021b2:	9101      	str	r1, [sp, #4]
 80021b4:	9901      	ldr	r1, [sp, #4]
 80021b6:	9202      	str	r2, [sp, #8]
 80021b8:	6b19      	ldr	r1, [r3, #48]	; 0x30
 80021ba:	f041 0101 	orr.w	r1, r1, #1
 80021be:	6319      	str	r1, [r3, #48]	; 0x30
 80021c0:	6b1b      	ldr	r3, [r3, #48]	; 0x30
 80021c2:	9205      	str	r2, [sp, #20]
 80021c4:	f003 0301 	and.w	r3, r3, #1
 80021c8:	9302      	str	r3, [sp, #8]
 80021ca:	210c      	movs	r1, #12
 80021cc:	9b02      	ldr	r3, [sp, #8]
 80021ce:	2302      	movs	r3, #2
 80021d0:	e9cd 1303 	strd	r1, r3, [sp, #12]
 80021d4:	2003      	movs	r0, #3
 80021d6:	2307      	movs	r3, #7
 80021d8:	e9cd 0306 	strd	r0, r3, [sp, #24]
 80021dc:	a903      	add	r1, sp, #12
 80021de:	4803      	ldr	r0, [pc, #12]	; (80021ec <HAL_UART_MspInit+0x68>)
 80021e0:	f000 fd4a 	bl	8002c78 <HAL_GPIO_Init>
 80021e4:	b008      	add	sp, #32
 80021e6:	bd10      	pop	{r4, pc}
 80021e8:	40004400 	.word	0x40004400
 80021ec:	40020000 	.word	0x40020000

080021f0 <__io_putchar>:
 80021f0:	b507      	push	{r0, r1, r2, lr}
 80021f2:	f64f 73ff 	movw	r3, #65535	; 0xffff
 80021f6:	9001      	str	r0, [sp, #4]
 80021f8:	2201      	movs	r2, #1
 80021fa:	a901      	add	r1, sp, #4
 80021fc:	4803      	ldr	r0, [pc, #12]	; (800220c <__io_putchar+0x1c>)
 80021fe:	f002 fddb 	bl	8004db8 <HAL_UART_Transmit>
 8002202:	2000      	movs	r0, #0
 8002204:	b003      	add	sp, #12
 8002206:	f85d fb04 	ldr.w	pc, [sp], #4
 800220a:	bf00      	nop
 800220c:	2000091c 	.word	0x2000091c

08002210 <Reset_Handler>:
 8002210:	f8df d034 	ldr.w	sp, [pc, #52]	; 8002248 <LoopFillZerobss+0x14>
 8002214:	2100      	movs	r1, #0
 8002216:	e003      	b.n	8002220 <LoopCopyDataInit>

08002218 <CopyDataInit>:
 8002218:	4b0c      	ldr	r3, [pc, #48]	; (800224c <LoopFillZerobss+0x18>)
 800221a:	585b      	ldr	r3, [r3, r1]
 800221c:	5043      	str	r3, [r0, r1]
 800221e:	3104      	adds	r1, #4

08002220 <LoopCopyDataInit>:
 8002220:	480b      	ldr	r0, [pc, #44]	; (8002250 <LoopFillZerobss+0x1c>)
 8002222:	4b0c      	ldr	r3, [pc, #48]	; (8002254 <LoopFillZerobss+0x20>)
 8002224:	1842      	adds	r2, r0, r1
 8002226:	429a      	cmp	r2, r3
 8002228:	d3f6      	bcc.n	8002218 <CopyDataInit>
 800222a:	4a0b      	ldr	r2, [pc, #44]	; (8002258 <LoopFillZerobss+0x24>)
 800222c:	e002      	b.n	8002234 <LoopFillZerobss>

0800222e <FillZerobss>:
 800222e:	2300      	movs	r3, #0
 8002230:	f842 3b04 	str.w	r3, [r2], #4

08002234 <LoopFillZerobss>:
 8002234:	4b09      	ldr	r3, [pc, #36]	; (800225c <LoopFillZerobss+0x28>)
 8002236:	429a      	cmp	r2, r3
 8002238:	d3f9      	bcc.n	800222e <FillZerobss>
 800223a:	f7ff fee9 	bl	8002010 <SystemInit>
 800223e:	f004 fb19 	bl	8006874 <__libc_init_array>
 8002242:	f7ff fd2b 	bl	8001c9c <main>
 8002246:	4770      	bx	lr
 8002248:	20020000 	.word	0x20020000
 800224c:	08009a5c 	.word	0x08009a5c
 8002250:	20000000 	.word	0x20000000
 8002254:	20000364 	.word	0x20000364
 8002258:	20000364 	.word	0x20000364
 800225c:	2000224c 	.word	0x2000224c

08002260 <ADC_IRQHandler>:
 8002260:	e7fe      	b.n	8002260 <ADC_IRQHandler>
	...

08002264 <HAL_InitTick>:
 8002264:	b538      	push	{r3, r4, r5, lr}
 8002266:	4a0e      	ldr	r2, [pc, #56]	; (80022a0 <HAL_InitTick+0x3c>)
 8002268:	4b0e      	ldr	r3, [pc, #56]	; (80022a4 <HAL_InitTick+0x40>)
 800226a:	4605      	mov	r5, r0
 800226c:	7818      	ldrb	r0, [r3, #0]
 800226e:	f44f 737a 	mov.w	r3, #1000	; 0x3e8
 8002272:	fbb3 f3f0 	udiv	r3, r3, r0
 8002276:	6810      	ldr	r0, [r2, #0]
 8002278:	fbb0 f0f3 	udiv	r0, r0, r3
 800227c:	f000 fce6 	bl	8002c4c <HAL_SYSTICK_Config>
 8002280:	4604      	mov	r4, r0
 8002282:	b958      	cbnz	r0, 800229c <HAL_InitTick+0x38>
 8002284:	2d0f      	cmp	r5, #15
 8002286:	d809      	bhi.n	800229c <HAL_InitTick+0x38>
 8002288:	4602      	mov	r2, r0
 800228a:	4629      	mov	r1, r5
 800228c:	f04f 30ff 	mov.w	r0, #4294967295
 8002290:	f000 fc9c 	bl	8002bcc <HAL_NVIC_SetPriority>
 8002294:	4b04      	ldr	r3, [pc, #16]	; (80022a8 <HAL_InitTick+0x44>)
 8002296:	4620      	mov	r0, r4
 8002298:	601d      	str	r5, [r3, #0]
 800229a:	bd38      	pop	{r3, r4, r5, pc}
 800229c:	2001      	movs	r0, #1
 800229e:	e7fc      	b.n	800229a <HAL_InitTick+0x36>
 80022a0:	20000000 	.word	0x20000000
 80022a4:	20000004 	.word	0x20000004
 80022a8:	20000008 	.word	0x20000008

080022ac <HAL_Init>:
 80022ac:	b508      	push	{r3, lr}
 80022ae:	4b0b      	ldr	r3, [pc, #44]	; (80022dc <HAL_Init+0x30>)
 80022b0:	681a      	ldr	r2, [r3, #0]
 80022b2:	f442 7200 	orr.w	r2, r2, #512	; 0x200
 80022b6:	601a      	str	r2, [r3, #0]
 80022b8:	681a      	ldr	r2, [r3, #0]
 80022ba:	f442 6280 	orr.w	r2, r2, #1024	; 0x400
 80022be:	601a      	str	r2, [r3, #0]
 80022c0:	681a      	ldr	r2, [r3, #0]
 80022c2:	f442 7280 	orr.w	r2, r2, #256	; 0x100
 80022c6:	601a      	str	r2, [r3, #0]
 80022c8:	2003      	movs	r0, #3
 80022ca:	f000 fc6d 	bl	8002ba8 <HAL_NVIC_SetPriorityGrouping>
 80022ce:	2000      	movs	r0, #0
 80022d0:	f7ff ffc8 	bl	8002264 <HAL_InitTick>
 80022d4:	f7ff fdca 	bl	8001e6c <HAL_MspInit>
 80022d8:	2000      	movs	r0, #0
 80022da:	bd08      	pop	{r3, pc}
 80022dc:	40023c00 	.word	0x40023c00

080022e0 <HAL_IncTick>:
 80022e0:	4a03      	ldr	r2, [pc, #12]	; (80022f0 <HAL_IncTick+0x10>)
 80022e2:	4b04      	ldr	r3, [pc, #16]	; (80022f4 <HAL_IncTick+0x14>)
 80022e4:	6811      	ldr	r1, [r2, #0]
 80022e6:	781b      	ldrb	r3, [r3, #0]
 80022e8:	440b      	add	r3, r1
 80022ea:	6013      	str	r3, [r2, #0]
 80022ec:	4770      	bx	lr
 80022ee:	bf00      	nop
 80022f0:	20000960 	.word	0x20000960
 80022f4:	20000004 	.word	0x20000004

080022f8 <HAL_GetTick>:
 80022f8:	4b01      	ldr	r3, [pc, #4]	; (8002300 <HAL_GetTick+0x8>)
 80022fa:	6818      	ldr	r0, [r3, #0]
 80022fc:	4770      	bx	lr
 80022fe:	bf00      	nop
 8002300:	20000960 	.word	0x20000960

08002304 <HAL_Delay>:
 8002304:	b538      	push	{r3, r4, r5, lr}
 8002306:	4604      	mov	r4, r0
 8002308:	f7ff fff6 	bl	80022f8 <HAL_GetTick>
 800230c:	1c63      	adds	r3, r4, #1
 800230e:	bf1c      	itt	ne
 8002310:	4b05      	ldrne	r3, [pc, #20]	; (8002328 <HAL_Delay+0x24>)
 8002312:	781b      	ldrbne	r3, [r3, #0]
 8002314:	4605      	mov	r5, r0
 8002316:	bf18      	it	ne
 8002318:	18e4      	addne	r4, r4, r3
 800231a:	f7ff ffed 	bl	80022f8 <HAL_GetTick>
 800231e:	1b43      	subs	r3, r0, r5
 8002320:	42a3      	cmp	r3, r4
 8002322:	d3fa      	bcc.n	800231a <HAL_Delay+0x16>
 8002324:	bd38      	pop	{r3, r4, r5, pc}
 8002326:	bf00      	nop
 8002328:	20000004 	.word	0x20000004

0800232c <HAL_ADC_Init>:
 800232c:	b538      	push	{r3, r4, r5, lr}
 800232e:	4604      	mov	r4, r0
 8002330:	2800      	cmp	r0, #0
 8002332:	f000 809b 	beq.w	800246c <HAL_ADC_Init+0x140>
 8002336:	6c05      	ldr	r5, [r0, #64]	; 0x40
 8002338:	b925      	cbnz	r5, 8002344 <HAL_ADC_Init+0x18>
 800233a:	f7fe fec1 	bl	80010c0 <HAL_ADC_MspInit>
 800233e:	6465      	str	r5, [r4, #68]	; 0x44
 8002340:	f884 503c 	strb.w	r5, [r4, #60]	; 0x3c
 8002344:	6c23      	ldr	r3, [r4, #64]	; 0x40
 8002346:	06db      	lsls	r3, r3, #27
 8002348:	f100 808e 	bmi.w	8002468 <HAL_ADC_Init+0x13c>
 800234c:	6c23      	ldr	r3, [r4, #64]	; 0x40
 800234e:	f423 5388 	bic.w	r3, r3, #4352	; 0x1100
 8002352:	f023 0302 	bic.w	r3, r3, #2
 8002356:	f043 0302 	orr.w	r3, r3, #2
 800235a:	6423      	str	r3, [r4, #64]	; 0x40
 800235c:	4b44      	ldr	r3, [pc, #272]	; (8002470 <HAL_ADC_Init+0x144>)
 800235e:	685a      	ldr	r2, [r3, #4]
 8002360:	f422 3240 	bic.w	r2, r2, #196608	; 0x30000
 8002364:	605a      	str	r2, [r3, #4]
 8002366:	685a      	ldr	r2, [r3, #4]
 8002368:	6861      	ldr	r1, [r4, #4]
 800236a:	430a      	orrs	r2, r1
 800236c:	605a      	str	r2, [r3, #4]
 800236e:	6823      	ldr	r3, [r4, #0]
 8002370:	6921      	ldr	r1, [r4, #16]
 8002372:	685a      	ldr	r2, [r3, #4]
 8002374:	f422 7280 	bic.w	r2, r2, #256	; 0x100
 8002378:	605a      	str	r2, [r3, #4]
 800237a:	685a      	ldr	r2, [r3, #4]
 800237c:	ea42 2201 	orr.w	r2, r2, r1, lsl #8
 8002380:	605a      	str	r2, [r3, #4]
 8002382:	685a      	ldr	r2, [r3, #4]
 8002384:	68a1      	ldr	r1, [r4, #8]
 8002386:	f022 7240 	bic.w	r2, r2, #50331648	; 0x3000000
 800238a:	605a      	str	r2, [r3, #4]
 800238c:	685a      	ldr	r2, [r3, #4]
 800238e:	430a      	orrs	r2, r1
 8002390:	605a      	str	r2, [r3, #4]
 8002392:	689a      	ldr	r2, [r3, #8]
 8002394:	68e1      	ldr	r1, [r4, #12]
 8002396:	f422 6200 	bic.w	r2, r2, #2048	; 0x800
 800239a:	609a      	str	r2, [r3, #8]
 800239c:	689a      	ldr	r2, [r3, #8]
 800239e:	430a      	orrs	r2, r1
 80023a0:	609a      	str	r2, [r3, #8]
 80023a2:	4934      	ldr	r1, [pc, #208]	; (8002474 <HAL_ADC_Init+0x148>)
 80023a4:	6aa2      	ldr	r2, [r4, #40]	; 0x28
 80023a6:	428a      	cmp	r2, r1
 80023a8:	d052      	beq.n	8002450 <HAL_ADC_Init+0x124>
 80023aa:	6899      	ldr	r1, [r3, #8]
 80023ac:	f021 6170 	bic.w	r1, r1, #251658240	; 0xf000000
 80023b0:	6099      	str	r1, [r3, #8]
 80023b2:	6899      	ldr	r1, [r3, #8]
 80023b4:	430a      	orrs	r2, r1
 80023b6:	609a      	str	r2, [r3, #8]
 80023b8:	689a      	ldr	r2, [r3, #8]
 80023ba:	6ae1      	ldr	r1, [r4, #44]	; 0x2c
 80023bc:	f022 5240 	bic.w	r2, r2, #805306368	; 0x30000000
 80023c0:	609a      	str	r2, [r3, #8]
 80023c2:	689a      	ldr	r2, [r3, #8]
 80023c4:	430a      	orrs	r2, r1
 80023c6:	609a      	str	r2, [r3, #8]
 80023c8:	689a      	ldr	r2, [r3, #8]
 80023ca:	f022 0202 	bic.w	r2, r2, #2
 80023ce:	609a      	str	r2, [r3, #8]
 80023d0:	689a      	ldr	r2, [r3, #8]
 80023d2:	7e21      	ldrb	r1, [r4, #24]
 80023d4:	ea42 0241 	orr.w	r2, r2, r1, lsl #1
 80023d8:	609a      	str	r2, [r3, #8]
 80023da:	f894 2020 	ldrb.w	r2, [r4, #32]
 80023de:	2a00      	cmp	r2, #0
 80023e0:	d03e      	beq.n	8002460 <HAL_ADC_Init+0x134>
 80023e2:	685a      	ldr	r2, [r3, #4]
 80023e4:	6a61      	ldr	r1, [r4, #36]	; 0x24
 80023e6:	f442 6200 	orr.w	r2, r2, #2048	; 0x800
 80023ea:	605a      	str	r2, [r3, #4]
 80023ec:	685a      	ldr	r2, [r3, #4]
 80023ee:	f422 4260 	bic.w	r2, r2, #57344	; 0xe000
 80023f2:	605a      	str	r2, [r3, #4]
 80023f4:	685a      	ldr	r2, [r3, #4]
 80023f6:	3901      	subs	r1, #1
 80023f8:	ea42 3241 	orr.w	r2, r2, r1, lsl #13
 80023fc:	605a      	str	r2, [r3, #4]
 80023fe:	6ada      	ldr	r2, [r3, #44]	; 0x2c
 8002400:	69e1      	ldr	r1, [r4, #28]
 8002402:	f422 0270 	bic.w	r2, r2, #15728640	; 0xf00000
 8002406:	62da      	str	r2, [r3, #44]	; 0x2c
 8002408:	6ada      	ldr	r2, [r3, #44]	; 0x2c
 800240a:	3901      	subs	r1, #1
 800240c:	ea42 5201 	orr.w	r2, r2, r1, lsl #20
 8002410:	62da      	str	r2, [r3, #44]	; 0x2c
 8002412:	689a      	ldr	r2, [r3, #8]
 8002414:	f422 7200 	bic.w	r2, r2, #512	; 0x200
 8002418:	609a      	str	r2, [r3, #8]
 800241a:	689a      	ldr	r2, [r3, #8]
 800241c:	f894 1030 	ldrb.w	r1, [r4, #48]	; 0x30
 8002420:	ea42 2241 	orr.w	r2, r2, r1, lsl #9
 8002424:	609a      	str	r2, [r3, #8]
 8002426:	689a      	ldr	r2, [r3, #8]
 8002428:	6961      	ldr	r1, [r4, #20]
 800242a:	f422 6280 	bic.w	r2, r2, #1024	; 0x400
 800242e:	609a      	str	r2, [r3, #8]
 8002430:	689a      	ldr	r2, [r3, #8]
 8002432:	2000      	movs	r0, #0
 8002434:	ea42 2281 	orr.w	r2, r2, r1, lsl #10
 8002438:	609a      	str	r2, [r3, #8]
 800243a:	6460      	str	r0, [r4, #68]	; 0x44
 800243c:	6c23      	ldr	r3, [r4, #64]	; 0x40
 800243e:	f023 0303 	bic.w	r3, r3, #3
 8002442:	f043 0301 	orr.w	r3, r3, #1
 8002446:	6423      	str	r3, [r4, #64]	; 0x40
 8002448:	2300      	movs	r3, #0
 800244a:	f884 303c 	strb.w	r3, [r4, #60]	; 0x3c
 800244e:	bd38      	pop	{r3, r4, r5, pc}
 8002450:	689a      	ldr	r2, [r3, #8]
 8002452:	f022 6270 	bic.w	r2, r2, #251658240	; 0xf000000
 8002456:	609a      	str	r2, [r3, #8]
 8002458:	689a      	ldr	r2, [r3, #8]
 800245a:	f022 5240 	bic.w	r2, r2, #805306368	; 0x30000000
 800245e:	e7b2      	b.n	80023c6 <HAL_ADC_Init+0x9a>
 8002460:	685a      	ldr	r2, [r3, #4]
 8002462:	f422 6200 	bic.w	r2, r2, #2048	; 0x800
 8002466:	e7c9      	b.n	80023fc <HAL_ADC_Init+0xd0>
 8002468:	2001      	movs	r0, #1
 800246a:	e7ed      	b.n	8002448 <HAL_ADC_Init+0x11c>
 800246c:	2001      	movs	r0, #1
 800246e:	e7ee      	b.n	800244e <HAL_ADC_Init+0x122>
 8002470:	40012300 	.word	0x40012300
 8002474:	0f000001 	.word	0x0f000001

08002478 <HAL_ADC_Start>:
 8002478:	b513      	push	{r0, r1, r4, lr}
 800247a:	2300      	movs	r3, #0
 800247c:	9301      	str	r3, [sp, #4]
 800247e:	f890 303c 	ldrb.w	r3, [r0, #60]	; 0x3c
 8002482:	2b01      	cmp	r3, #1
 8002484:	d06c      	beq.n	8002560 <HAL_ADC_Start+0xe8>
 8002486:	2301      	movs	r3, #1
 8002488:	6802      	ldr	r2, [r0, #0]
 800248a:	f880 303c 	strb.w	r3, [r0, #60]	; 0x3c
 800248e:	6893      	ldr	r3, [r2, #8]
 8002490:	07d9      	lsls	r1, r3, #31
 8002492:	d50c      	bpl.n	80024ae <HAL_ADC_Start+0x36>
 8002494:	6893      	ldr	r3, [r2, #8]
 8002496:	f013 0301 	ands.w	r3, r3, #1
 800249a:	d11a      	bne.n	80024d2 <HAL_ADC_Start+0x5a>
 800249c:	6c02      	ldr	r2, [r0, #64]	; 0x40
 800249e:	f042 0210 	orr.w	r2, r2, #16
 80024a2:	6402      	str	r2, [r0, #64]	; 0x40
 80024a4:	6c42      	ldr	r2, [r0, #68]	; 0x44
 80024a6:	f042 0201 	orr.w	r2, r2, #1
 80024aa:	6442      	str	r2, [r0, #68]	; 0x44
 80024ac:	e056      	b.n	800255c <HAL_ADC_Start+0xe4>
 80024ae:	6893      	ldr	r3, [r2, #8]
 80024b0:	492d      	ldr	r1, [pc, #180]	; (8002568 <HAL_ADC_Start+0xf0>)
 80024b2:	f043 0301 	orr.w	r3, r3, #1
 80024b6:	6093      	str	r3, [r2, #8]
 80024b8:	4b2c      	ldr	r3, [pc, #176]	; (800256c <HAL_ADC_Start+0xf4>)
 80024ba:	681b      	ldr	r3, [r3, #0]
 80024bc:	fbb3 f3f1 	udiv	r3, r3, r1
 80024c0:	eb03 0343 	add.w	r3, r3, r3, lsl #1
 80024c4:	9301      	str	r3, [sp, #4]
 80024c6:	9b01      	ldr	r3, [sp, #4]
 80024c8:	2b00      	cmp	r3, #0
 80024ca:	d0e3      	beq.n	8002494 <HAL_ADC_Start+0x1c>
 80024cc:	9b01      	ldr	r3, [sp, #4]
 80024ce:	3b01      	subs	r3, #1
 80024d0:	e7f8      	b.n	80024c4 <HAL_ADC_Start+0x4c>
 80024d2:	6c03      	ldr	r3, [r0, #64]	; 0x40
 80024d4:	4c26      	ldr	r4, [pc, #152]	; (8002570 <HAL_ADC_Start+0xf8>)
 80024d6:	f423 63e0 	bic.w	r3, r3, #1792	; 0x700
 80024da:	f023 0301 	bic.w	r3, r3, #1
 80024de:	f443 7380 	orr.w	r3, r3, #256	; 0x100
 80024e2:	6403      	str	r3, [r0, #64]	; 0x40
 80024e4:	6853      	ldr	r3, [r2, #4]
 80024e6:	055b      	lsls	r3, r3, #21
 80024e8:	bf41      	itttt	mi
 80024ea:	6c03      	ldrmi	r3, [r0, #64]	; 0x40
 80024ec:	f423 5340 	bicmi.w	r3, r3, #12288	; 0x3000
 80024f0:	f443 5380 	orrmi.w	r3, r3, #4096	; 0x1000
 80024f4:	6403      	strmi	r3, [r0, #64]	; 0x40
 80024f6:	6c03      	ldr	r3, [r0, #64]	; 0x40
 80024f8:	f413 5380 	ands.w	r3, r3, #4096	; 0x1000
 80024fc:	bf1c      	itt	ne
 80024fe:	6c43      	ldrne	r3, [r0, #68]	; 0x44
 8002500:	f023 0306 	bicne.w	r3, r3, #6
 8002504:	6443      	str	r3, [r0, #68]	; 0x44
 8002506:	f06f 0122 	mvn.w	r1, #34	; 0x22
 800250a:	2300      	movs	r3, #0
 800250c:	f880 303c 	strb.w	r3, [r0, #60]	; 0x3c
 8002510:	6011      	str	r1, [r2, #0]
 8002512:	4918      	ldr	r1, [pc, #96]	; (8002574 <HAL_ADC_Start+0xfc>)
 8002514:	6848      	ldr	r0, [r1, #4]
 8002516:	f010 001f 	ands.w	r0, r0, #31
 800251a:	d119      	bne.n	8002550 <HAL_ADC_Start+0xd8>
 800251c:	42a2      	cmp	r2, r4
 800251e:	d006      	beq.n	800252e <HAL_ADC_Start+0xb6>
 8002520:	4b15      	ldr	r3, [pc, #84]	; (8002578 <HAL_ADC_Start+0x100>)
 8002522:	429a      	cmp	r2, r3
 8002524:	d10d      	bne.n	8002542 <HAL_ADC_Start+0xca>
 8002526:	684b      	ldr	r3, [r1, #4]
 8002528:	f013 0f1f 	tst.w	r3, #31
 800252c:	d107      	bne.n	800253e <HAL_ADC_Start+0xc6>
 800252e:	6890      	ldr	r0, [r2, #8]
 8002530:	f010 5040 	ands.w	r0, r0, #805306368	; 0x30000000
 8002534:	d116      	bne.n	8002564 <HAL_ADC_Start+0xec>
 8002536:	6893      	ldr	r3, [r2, #8]
 8002538:	f043 4380 	orr.w	r3, r3, #1073741824	; 0x40000000
 800253c:	6093      	str	r3, [r2, #8]
 800253e:	b002      	add	sp, #8
 8002540:	bd10      	pop	{r4, pc}
 8002542:	4b0e      	ldr	r3, [pc, #56]	; (800257c <HAL_ADC_Start+0x104>)
 8002544:	429a      	cmp	r2, r3
 8002546:	d1fa      	bne.n	800253e <HAL_ADC_Start+0xc6>
 8002548:	684b      	ldr	r3, [r1, #4]
 800254a:	f013 0f10 	tst.w	r3, #16
 800254e:	e7ed      	b.n	800252c <HAL_ADC_Start+0xb4>
 8002550:	42a2      	cmp	r2, r4
 8002552:	d107      	bne.n	8002564 <HAL_ADC_Start+0xec>
 8002554:	6890      	ldr	r0, [r2, #8]
 8002556:	f010 5040 	ands.w	r0, r0, #805306368	; 0x30000000
 800255a:	d0ec      	beq.n	8002536 <HAL_ADC_Start+0xbe>
 800255c:	4618      	mov	r0, r3
 800255e:	e7ee      	b.n	800253e <HAL_ADC_Start+0xc6>
 8002560:	2002      	movs	r0, #2
 8002562:	e7ec      	b.n	800253e <HAL_ADC_Start+0xc6>
 8002564:	2000      	movs	r0, #0
 8002566:	e7ea      	b.n	800253e <HAL_ADC_Start+0xc6>
 8002568:	000f4240 	.word	0x000f4240
 800256c:	20000000 	.word	0x20000000
 8002570:	40012000 	.word	0x40012000
 8002574:	40012300 	.word	0x40012300
 8002578:	40012100 	.word	0x40012100
 800257c:	40012200 	.word	0x40012200

08002580 <HAL_ADC_PollForConversion>:
 8002580:	6803      	ldr	r3, [r0, #0]
 8002582:	689a      	ldr	r2, [r3, #8]
 8002584:	0552      	lsls	r2, r2, #21
 8002586:	b570      	push	{r4, r5, r6, lr}
 8002588:	4604      	mov	r4, r0
 800258a:	460d      	mov	r5, r1
 800258c:	d50b      	bpl.n	80025a6 <HAL_ADC_PollForConversion+0x26>
 800258e:	689b      	ldr	r3, [r3, #8]
 8002590:	05de      	lsls	r6, r3, #23
 8002592:	d508      	bpl.n	80025a6 <HAL_ADC_PollForConversion+0x26>
 8002594:	6c03      	ldr	r3, [r0, #64]	; 0x40
 8002596:	f043 0320 	orr.w	r3, r3, #32
 800259a:	6403      	str	r3, [r0, #64]	; 0x40
 800259c:	2300      	movs	r3, #0
 800259e:	f880 303c 	strb.w	r3, [r0, #60]	; 0x3c
 80025a2:	2001      	movs	r0, #1
 80025a4:	bd70      	pop	{r4, r5, r6, pc}
 80025a6:	f7ff fea7 	bl	80022f8 <HAL_GetTick>
 80025aa:	4606      	mov	r6, r0
 80025ac:	6823      	ldr	r3, [r4, #0]
 80025ae:	681a      	ldr	r2, [r3, #0]
 80025b0:	0791      	lsls	r1, r2, #30
 80025b2:	d50c      	bpl.n	80025ce <HAL_ADC_PollForConversion+0x4e>
 80025b4:	f06f 0212 	mvn.w	r2, #18
 80025b8:	601a      	str	r2, [r3, #0]
 80025ba:	6c22      	ldr	r2, [r4, #64]	; 0x40
 80025bc:	f442 7200 	orr.w	r2, r2, #512	; 0x200
 80025c0:	6422      	str	r2, [r4, #64]	; 0x40
 80025c2:	689a      	ldr	r2, [r3, #8]
 80025c4:	f012 5f40 	tst.w	r2, #805306368	; 0x30000000
 80025c8:	d017      	beq.n	80025fa <HAL_ADC_PollForConversion+0x7a>
 80025ca:	2000      	movs	r0, #0
 80025cc:	e7ea      	b.n	80025a4 <HAL_ADC_PollForConversion+0x24>
 80025ce:	1c68      	adds	r0, r5, #1
 80025d0:	d0ed      	beq.n	80025ae <HAL_ADC_PollForConversion+0x2e>
 80025d2:	b965      	cbnz	r5, 80025ee <HAL_ADC_PollForConversion+0x6e>
 80025d4:	6823      	ldr	r3, [r4, #0]
 80025d6:	681b      	ldr	r3, [r3, #0]
 80025d8:	f013 0302 	ands.w	r3, r3, #2
 80025dc:	d1e6      	bne.n	80025ac <HAL_ADC_PollForConversion+0x2c>
 80025de:	6c22      	ldr	r2, [r4, #64]	; 0x40
 80025e0:	f884 303c 	strb.w	r3, [r4, #60]	; 0x3c
 80025e4:	f042 0204 	orr.w	r2, r2, #4
 80025e8:	6422      	str	r2, [r4, #64]	; 0x40
 80025ea:	2003      	movs	r0, #3
 80025ec:	e7da      	b.n	80025a4 <HAL_ADC_PollForConversion+0x24>
 80025ee:	f7ff fe83 	bl	80022f8 <HAL_GetTick>
 80025f2:	1b80      	subs	r0, r0, r6
 80025f4:	42a8      	cmp	r0, r5
 80025f6:	d8ed      	bhi.n	80025d4 <HAL_ADC_PollForConversion+0x54>
 80025f8:	e7d8      	b.n	80025ac <HAL_ADC_PollForConversion+0x2c>
 80025fa:	7e20      	ldrb	r0, [r4, #24]
 80025fc:	2800      	cmp	r0, #0
 80025fe:	d1e4      	bne.n	80025ca <HAL_ADC_PollForConversion+0x4a>
 8002600:	6ada      	ldr	r2, [r3, #44]	; 0x2c
 8002602:	f412 0f70 	tst.w	r2, #15728640	; 0xf00000
 8002606:	d002      	beq.n	800260e <HAL_ADC_PollForConversion+0x8e>
 8002608:	689b      	ldr	r3, [r3, #8]
 800260a:	055a      	lsls	r2, r3, #21
 800260c:	d4dd      	bmi.n	80025ca <HAL_ADC_PollForConversion+0x4a>
 800260e:	6c23      	ldr	r3, [r4, #64]	; 0x40
 8002610:	f423 7380 	bic.w	r3, r3, #256	; 0x100
 8002614:	6423      	str	r3, [r4, #64]	; 0x40
 8002616:	6c23      	ldr	r3, [r4, #64]	; 0x40
 8002618:	04db      	lsls	r3, r3, #19
 800261a:	d4d6      	bmi.n	80025ca <HAL_ADC_PollForConversion+0x4a>
 800261c:	6c23      	ldr	r3, [r4, #64]	; 0x40
 800261e:	f043 0301 	orr.w	r3, r3, #1
 8002622:	6423      	str	r3, [r4, #64]	; 0x40
 8002624:	e7be      	b.n	80025a4 <HAL_ADC_PollForConversion+0x24>

08002626 <HAL_ADC_GetValue>:
 8002626:	6803      	ldr	r3, [r0, #0]
 8002628:	6cd8      	ldr	r0, [r3, #76]	; 0x4c
 800262a:	4770      	bx	lr

0800262c <HAL_ADC_ConfigChannel>:
 800262c:	b5f7      	push	{r0, r1, r2, r4, r5, r6, r7, lr}
 800262e:	2300      	movs	r3, #0
 8002630:	9301      	str	r3, [sp, #4]
 8002632:	f890 303c 	ldrb.w	r3, [r0, #60]	; 0x3c
 8002636:	2b01      	cmp	r3, #1
 8002638:	d069      	beq.n	800270e <HAL_ADC_ConfigChannel+0xe2>
 800263a:	2301      	movs	r3, #1
 800263c:	f880 303c 	strb.w	r3, [r0, #60]	; 0x3c
 8002640:	680d      	ldr	r5, [r1, #0]
 8002642:	6803      	ldr	r3, [r0, #0]
 8002644:	688e      	ldr	r6, [r1, #8]
 8002646:	2d09      	cmp	r5, #9
 8002648:	b2ac      	uxth	r4, r5
 800264a:	d934      	bls.n	80026b6 <HAL_ADC_ConfigChannel+0x8a>
 800264c:	eb04 0244 	add.w	r2, r4, r4, lsl #1
 8002650:	68df      	ldr	r7, [r3, #12]
 8002652:	3a1e      	subs	r2, #30
 8002654:	f04f 0c07 	mov.w	ip, #7
 8002658:	fa0c fc02 	lsl.w	ip, ip, r2
 800265c:	ea27 070c 	bic.w	r7, r7, ip
 8002660:	60df      	str	r7, [r3, #12]
 8002662:	68df      	ldr	r7, [r3, #12]
 8002664:	fa06 f202 	lsl.w	r2, r6, r2
 8002668:	433a      	orrs	r2, r7
 800266a:	60da      	str	r2, [r3, #12]
 800266c:	6849      	ldr	r1, [r1, #4]
 800266e:	2906      	cmp	r1, #6
 8002670:	eb01 0281 	add.w	r2, r1, r1, lsl #2
 8002674:	d82f      	bhi.n	80026d6 <HAL_ADC_ConfigChannel+0xaa>
 8002676:	6b59      	ldr	r1, [r3, #52]	; 0x34
 8002678:	3a05      	subs	r2, #5
 800267a:	261f      	movs	r6, #31
 800267c:	4096      	lsls	r6, r2
 800267e:	ea21 0106 	bic.w	r1, r1, r6
 8002682:	6359      	str	r1, [r3, #52]	; 0x34
 8002684:	6b59      	ldr	r1, [r3, #52]	; 0x34
 8002686:	fa04 f202 	lsl.w	r2, r4, r2
 800268a:	430a      	orrs	r2, r1
 800268c:	635a      	str	r2, [r3, #52]	; 0x34
 800268e:	4a30      	ldr	r2, [pc, #192]	; (8002750 <HAL_ADC_ConfigChannel+0x124>)
 8002690:	4293      	cmp	r3, r2
 8002692:	d10a      	bne.n	80026aa <HAL_ADC_ConfigChannel+0x7e>
 8002694:	2d12      	cmp	r5, #18
 8002696:	d13c      	bne.n	8002712 <HAL_ADC_ConfigChannel+0xe6>
 8002698:	4b2e      	ldr	r3, [pc, #184]	; (8002754 <HAL_ADC_ConfigChannel+0x128>)
 800269a:	685a      	ldr	r2, [r3, #4]
 800269c:	f422 0200 	bic.w	r2, r2, #8388608	; 0x800000
 80026a0:	605a      	str	r2, [r3, #4]
 80026a2:	685a      	ldr	r2, [r3, #4]
 80026a4:	f442 0280 	orr.w	r2, r2, #4194304	; 0x400000
 80026a8:	605a      	str	r2, [r3, #4]
 80026aa:	2300      	movs	r3, #0
 80026ac:	f880 303c 	strb.w	r3, [r0, #60]	; 0x3c
 80026b0:	4618      	mov	r0, r3
 80026b2:	b003      	add	sp, #12
 80026b4:	bdf0      	pop	{r4, r5, r6, r7, pc}
 80026b6:	691f      	ldr	r7, [r3, #16]
 80026b8:	eb05 0245 	add.w	r2, r5, r5, lsl #1
 80026bc:	f04f 0c07 	mov.w	ip, #7
 80026c0:	fa0c fc02 	lsl.w	ip, ip, r2
 80026c4:	ea27 070c 	bic.w	r7, r7, ip
 80026c8:	611f      	str	r7, [r3, #16]
 80026ca:	691f      	ldr	r7, [r3, #16]
 80026cc:	fa06 f202 	lsl.w	r2, r6, r2
 80026d0:	433a      	orrs	r2, r7
 80026d2:	611a      	str	r2, [r3, #16]
 80026d4:	e7ca      	b.n	800266c <HAL_ADC_ConfigChannel+0x40>
 80026d6:	290c      	cmp	r1, #12
 80026d8:	f04f 011f 	mov.w	r1, #31
 80026dc:	d80b      	bhi.n	80026f6 <HAL_ADC_ConfigChannel+0xca>
 80026de:	6b1e      	ldr	r6, [r3, #48]	; 0x30
 80026e0:	3a23      	subs	r2, #35	; 0x23
 80026e2:	4091      	lsls	r1, r2
 80026e4:	ea26 0101 	bic.w	r1, r6, r1
 80026e8:	6319      	str	r1, [r3, #48]	; 0x30
 80026ea:	6b19      	ldr	r1, [r3, #48]	; 0x30
 80026ec:	fa04 f202 	lsl.w	r2, r4, r2
 80026f0:	430a      	orrs	r2, r1
 80026f2:	631a      	str	r2, [r3, #48]	; 0x30
 80026f4:	e7cb      	b.n	800268e <HAL_ADC_ConfigChannel+0x62>
 80026f6:	6ade      	ldr	r6, [r3, #44]	; 0x2c
 80026f8:	3a41      	subs	r2, #65	; 0x41
 80026fa:	4091      	lsls	r1, r2
 80026fc:	ea26 0101 	bic.w	r1, r6, r1
 8002700:	62d9      	str	r1, [r3, #44]	; 0x2c
 8002702:	6ad9      	ldr	r1, [r3, #44]	; 0x2c
 8002704:	fa04 f202 	lsl.w	r2, r4, r2
 8002708:	430a      	orrs	r2, r1
 800270a:	62da      	str	r2, [r3, #44]	; 0x2c
 800270c:	e7bf      	b.n	800268e <HAL_ADC_ConfigChannel+0x62>
 800270e:	2002      	movs	r0, #2
 8002710:	e7cf      	b.n	80026b2 <HAL_ADC_ConfigChannel+0x86>
 8002712:	4b11      	ldr	r3, [pc, #68]	; (8002758 <HAL_ADC_ConfigChannel+0x12c>)
 8002714:	429d      	cmp	r5, r3
 8002716:	d001      	beq.n	800271c <HAL_ADC_ConfigChannel+0xf0>
 8002718:	2d11      	cmp	r5, #17
 800271a:	d1c6      	bne.n	80026aa <HAL_ADC_ConfigChannel+0x7e>
 800271c:	4b0d      	ldr	r3, [pc, #52]	; (8002754 <HAL_ADC_ConfigChannel+0x128>)
 800271e:	685a      	ldr	r2, [r3, #4]
 8002720:	f422 0280 	bic.w	r2, r2, #4194304	; 0x400000
 8002724:	605a      	str	r2, [r3, #4]
 8002726:	685a      	ldr	r2, [r3, #4]
 8002728:	f442 0200 	orr.w	r2, r2, #8388608	; 0x800000
 800272c:	605a      	str	r2, [r3, #4]
 800272e:	4b0a      	ldr	r3, [pc, #40]	; (8002758 <HAL_ADC_ConfigChannel+0x12c>)
 8002730:	429d      	cmp	r5, r3
 8002732:	d1ba      	bne.n	80026aa <HAL_ADC_ConfigChannel+0x7e>
 8002734:	4b09      	ldr	r3, [pc, #36]	; (800275c <HAL_ADC_ConfigChannel+0x130>)
 8002736:	4a0a      	ldr	r2, [pc, #40]	; (8002760 <HAL_ADC_ConfigChannel+0x134>)
 8002738:	681b      	ldr	r3, [r3, #0]
 800273a:	fbb3 f2f2 	udiv	r2, r3, r2
 800273e:	230a      	movs	r3, #10
 8002740:	4353      	muls	r3, r2
 8002742:	9301      	str	r3, [sp, #4]
 8002744:	9b01      	ldr	r3, [sp, #4]
 8002746:	2b00      	cmp	r3, #0
 8002748:	d0af      	beq.n	80026aa <HAL_ADC_ConfigChannel+0x7e>
 800274a:	9b01      	ldr	r3, [sp, #4]
 800274c:	3b01      	subs	r3, #1
 800274e:	e7f8      	b.n	8002742 <HAL_ADC_ConfigChannel+0x116>
 8002750:	40012000 	.word	0x40012000
 8002754:	40012300 	.word	0x40012300
 8002758:	10000012 	.word	0x10000012
 800275c:	20000000 	.word	0x20000000
 8002760:	000f4240 	.word	0x000f4240

08002764 <HAL_ADCEx_MultiModeConfigChannel>:
 8002764:	b510      	push	{r4, lr}
 8002766:	f890 303c 	ldrb.w	r3, [r0, #60]	; 0x3c
 800276a:	2b01      	cmp	r3, #1
 800276c:	d01d      	beq.n	80027aa <HAL_ADCEx_MultiModeConfigChannel+0x46>
 800276e:	4b10      	ldr	r3, [pc, #64]	; (80027b0 <HAL_ADCEx_MultiModeConfigChannel+0x4c>)
 8002770:	685a      	ldr	r2, [r3, #4]
 8002772:	f022 021f 	bic.w	r2, r2, #31
 8002776:	605a      	str	r2, [r3, #4]
 8002778:	685a      	ldr	r2, [r3, #4]
 800277a:	680c      	ldr	r4, [r1, #0]
 800277c:	4322      	orrs	r2, r4
 800277e:	605a      	str	r2, [r3, #4]
 8002780:	685a      	ldr	r2, [r3, #4]
 8002782:	f422 4240 	bic.w	r2, r2, #49152	; 0xc000
 8002786:	605a      	str	r2, [r3, #4]
 8002788:	685a      	ldr	r2, [r3, #4]
 800278a:	684c      	ldr	r4, [r1, #4]
 800278c:	4322      	orrs	r2, r4
 800278e:	605a      	str	r2, [r3, #4]
 8002790:	685a      	ldr	r2, [r3, #4]
 8002792:	f422 6270 	bic.w	r2, r2, #3840	; 0xf00
 8002796:	605a      	str	r2, [r3, #4]
 8002798:	685a      	ldr	r2, [r3, #4]
 800279a:	6889      	ldr	r1, [r1, #8]
 800279c:	430a      	orrs	r2, r1
 800279e:	605a      	str	r2, [r3, #4]
 80027a0:	2300      	movs	r3, #0
 80027a2:	f880 303c 	strb.w	r3, [r0, #60]	; 0x3c
 80027a6:	4618      	mov	r0, r3
 80027a8:	bd10      	pop	{r4, pc}
 80027aa:	2002      	movs	r0, #2
 80027ac:	e7fc      	b.n	80027a8 <HAL_ADCEx_MultiModeConfigChannel+0x44>
 80027ae:	bf00      	nop
 80027b0:	40012300 	.word	0x40012300

080027b4 <HAL_CAN_Init>:
 80027b4:	b538      	push	{r3, r4, r5, lr}
 80027b6:	4604      	mov	r4, r0
 80027b8:	2800      	cmp	r0, #0
 80027ba:	d06e      	beq.n	800289a <HAL_CAN_Init+0xe6>
 80027bc:	f890 3020 	ldrb.w	r3, [r0, #32]
 80027c0:	b90b      	cbnz	r3, 80027c6 <HAL_CAN_Init+0x12>
 80027c2:	f7fe fd11 	bl	80011e8 <HAL_CAN_MspInit>
 80027c6:	6822      	ldr	r2, [r4, #0]
 80027c8:	6813      	ldr	r3, [r2, #0]
 80027ca:	f023 0302 	bic.w	r3, r3, #2
 80027ce:	6013      	str	r3, [r2, #0]
 80027d0:	f7ff fd92 	bl	80022f8 <HAL_GetTick>
 80027d4:	4605      	mov	r5, r0
 80027d6:	6823      	ldr	r3, [r4, #0]
 80027d8:	685a      	ldr	r2, [r3, #4]
 80027da:	0791      	lsls	r1, r2, #30
 80027dc:	d451      	bmi.n	8002882 <HAL_CAN_Init+0xce>
 80027de:	681a      	ldr	r2, [r3, #0]
 80027e0:	f042 0201 	orr.w	r2, r2, #1
 80027e4:	601a      	str	r2, [r3, #0]
 80027e6:	f7ff fd87 	bl	80022f8 <HAL_GetTick>
 80027ea:	4605      	mov	r5, r0
 80027ec:	6823      	ldr	r3, [r4, #0]
 80027ee:	685a      	ldr	r2, [r3, #4]
 80027f0:	07d2      	lsls	r2, r2, #31
 80027f2:	d554      	bpl.n	800289e <HAL_CAN_Init+0xea>
 80027f4:	7e22      	ldrb	r2, [r4, #24]
 80027f6:	2a01      	cmp	r2, #1
 80027f8:	681a      	ldr	r2, [r3, #0]
 80027fa:	bf0c      	ite	eq
 80027fc:	f042 0280 	orreq.w	r2, r2, #128	; 0x80
 8002800:	f022 0280 	bicne.w	r2, r2, #128	; 0x80
 8002804:	601a      	str	r2, [r3, #0]
 8002806:	7e62      	ldrb	r2, [r4, #25]
 8002808:	2a01      	cmp	r2, #1
 800280a:	681a      	ldr	r2, [r3, #0]
 800280c:	bf0c      	ite	eq
 800280e:	f042 0240 	orreq.w	r2, r2, #64	; 0x40
 8002812:	f022 0240 	bicne.w	r2, r2, #64	; 0x40
 8002816:	601a      	str	r2, [r3, #0]
 8002818:	7ea2      	ldrb	r2, [r4, #26]
 800281a:	2a01      	cmp	r2, #1
 800281c:	681a      	ldr	r2, [r3, #0]
 800281e:	bf0c      	ite	eq
 8002820:	f042 0220 	orreq.w	r2, r2, #32
 8002824:	f022 0220 	bicne.w	r2, r2, #32
 8002828:	601a      	str	r2, [r3, #0]
 800282a:	7ee2      	ldrb	r2, [r4, #27]
 800282c:	2a01      	cmp	r2, #1
 800282e:	681a      	ldr	r2, [r3, #0]
 8002830:	bf0c      	ite	eq
 8002832:	f022 0210 	biceq.w	r2, r2, #16
 8002836:	f042 0210 	orrne.w	r2, r2, #16
 800283a:	601a      	str	r2, [r3, #0]
 800283c:	7f22      	ldrb	r2, [r4, #28]
 800283e:	2a01      	cmp	r2, #1
 8002840:	681a      	ldr	r2, [r3, #0]
 8002842:	bf0c      	ite	eq
 8002844:	f042 0208 	orreq.w	r2, r2, #8
 8002848:	f022 0208 	bicne.w	r2, r2, #8
 800284c:	601a      	str	r2, [r3, #0]
 800284e:	7f62      	ldrb	r2, [r4, #29]
 8002850:	2a01      	cmp	r2, #1
 8002852:	681a      	ldr	r2, [r3, #0]
 8002854:	bf0c      	ite	eq
 8002856:	f042 0204 	orreq.w	r2, r2, #4
 800285a:	f022 0204 	bicne.w	r2, r2, #4
 800285e:	601a      	str	r2, [r3, #0]
 8002860:	e9d4 2102 	ldrd	r2, r1, [r4, #8]
 8002864:	430a      	orrs	r2, r1
 8002866:	6921      	ldr	r1, [r4, #16]
 8002868:	430a      	orrs	r2, r1
 800286a:	6961      	ldr	r1, [r4, #20]
 800286c:	430a      	orrs	r2, r1
 800286e:	6861      	ldr	r1, [r4, #4]
 8002870:	3901      	subs	r1, #1
 8002872:	430a      	orrs	r2, r1
 8002874:	61da      	str	r2, [r3, #28]
 8002876:	2000      	movs	r0, #0
 8002878:	2301      	movs	r3, #1
 800287a:	6260      	str	r0, [r4, #36]	; 0x24
 800287c:	f884 3020 	strb.w	r3, [r4, #32]
 8002880:	bd38      	pop	{r3, r4, r5, pc}
 8002882:	f7ff fd39 	bl	80022f8 <HAL_GetTick>
 8002886:	1b40      	subs	r0, r0, r5
 8002888:	280a      	cmp	r0, #10
 800288a:	d9a4      	bls.n	80027d6 <HAL_CAN_Init+0x22>
 800288c:	6a63      	ldr	r3, [r4, #36]	; 0x24
 800288e:	f443 3300 	orr.w	r3, r3, #131072	; 0x20000
 8002892:	6263      	str	r3, [r4, #36]	; 0x24
 8002894:	2305      	movs	r3, #5
 8002896:	f884 3020 	strb.w	r3, [r4, #32]
 800289a:	2001      	movs	r0, #1
 800289c:	e7f0      	b.n	8002880 <HAL_CAN_Init+0xcc>
 800289e:	f7ff fd2b 	bl	80022f8 <HAL_GetTick>
 80028a2:	1b40      	subs	r0, r0, r5
 80028a4:	280a      	cmp	r0, #10
 80028a6:	d9a1      	bls.n	80027ec <HAL_CAN_Init+0x38>
 80028a8:	e7f0      	b.n	800288c <HAL_CAN_Init+0xd8>
	...

080028ac <HAL_CAN_ConfigFilter>:
 80028ac:	b530      	push	{r4, r5, lr}
 80028ae:	f890 3020 	ldrb.w	r3, [r0, #32]
 80028b2:	3b01      	subs	r3, #1
 80028b4:	2b01      	cmp	r3, #1
 80028b6:	d878      	bhi.n	80029aa <HAL_CAN_ConfigFilter+0xfe>
 80028b8:	4b3f      	ldr	r3, [pc, #252]	; (80029b8 <HAL_CAN_ConfigFilter+0x10c>)
 80028ba:	f8d3 2200 	ldr.w	r2, [r3, #512]	; 0x200
 80028be:	f042 0201 	orr.w	r2, r2, #1
 80028c2:	f8c3 2200 	str.w	r2, [r3, #512]	; 0x200
 80028c6:	f8d3 2200 	ldr.w	r2, [r3, #512]	; 0x200
 80028ca:	f422 527c 	bic.w	r2, r2, #16128	; 0x3f00
 80028ce:	f8c3 2200 	str.w	r2, [r3, #512]	; 0x200
 80028d2:	f8d3 2200 	ldr.w	r2, [r3, #512]	; 0x200
 80028d6:	6a48      	ldr	r0, [r1, #36]	; 0x24
 80028d8:	ea42 2200 	orr.w	r2, r2, r0, lsl #8
 80028dc:	f8c3 2200 	str.w	r2, [r3, #512]	; 0x200
 80028e0:	694a      	ldr	r2, [r1, #20]
 80028e2:	f8d3 521c 	ldr.w	r5, [r3, #540]	; 0x21c
 80028e6:	2401      	movs	r4, #1
 80028e8:	f002 001f 	and.w	r0, r2, #31
 80028ec:	fa04 f000 	lsl.w	r0, r4, r0
 80028f0:	ea25 0500 	bic.w	r5, r5, r0
 80028f4:	f8c3 521c 	str.w	r5, [r3, #540]	; 0x21c
 80028f8:	69cd      	ldr	r5, [r1, #28]
 80028fa:	43c4      	mvns	r4, r0
 80028fc:	2d00      	cmp	r5, #0
 80028fe:	d135      	bne.n	800296c <HAL_CAN_ConfigFilter+0xc0>
 8002900:	f8d3 520c 	ldr.w	r5, [r3, #524]	; 0x20c
 8002904:	4025      	ands	r5, r4
 8002906:	f8c3 520c 	str.w	r5, [r3, #524]	; 0x20c
 800290a:	68cb      	ldr	r3, [r1, #12]
 800290c:	888d      	ldrh	r5, [r1, #4]
 800290e:	ea45 4503 	orr.w	r5, r5, r3, lsl #16
 8002912:	00d3      	lsls	r3, r2, #3
 8002914:	f103 4380 	add.w	r3, r3, #1073741824	; 0x40000000
 8002918:	f503 43c8 	add.w	r3, r3, #25600	; 0x6400
 800291c:	880a      	ldrh	r2, [r1, #0]
 800291e:	f8c3 5240 	str.w	r5, [r3, #576]	; 0x240
 8002922:	688d      	ldr	r5, [r1, #8]
 8002924:	ea42 4205 	orr.w	r2, r2, r5, lsl #16
 8002928:	f8c3 2244 	str.w	r2, [r3, #580]	; 0x244
 800292c:	698a      	ldr	r2, [r1, #24]
 800292e:	4b22      	ldr	r3, [pc, #136]	; (80029b8 <HAL_CAN_ConfigFilter+0x10c>)
 8002930:	bb8a      	cbnz	r2, 8002996 <HAL_CAN_ConfigFilter+0xea>
 8002932:	f8d3 2204 	ldr.w	r2, [r3, #516]	; 0x204
 8002936:	4022      	ands	r2, r4
 8002938:	f8c3 2204 	str.w	r2, [r3, #516]	; 0x204
 800293c:	690a      	ldr	r2, [r1, #16]
 800293e:	bb72      	cbnz	r2, 800299e <HAL_CAN_ConfigFilter+0xf2>
 8002940:	f8d3 2214 	ldr.w	r2, [r3, #532]	; 0x214
 8002944:	4014      	ands	r4, r2
 8002946:	f8c3 4214 	str.w	r4, [r3, #532]	; 0x214
 800294a:	6a0b      	ldr	r3, [r1, #32]
 800294c:	2b01      	cmp	r3, #1
 800294e:	4b1a      	ldr	r3, [pc, #104]	; (80029b8 <HAL_CAN_ConfigFilter+0x10c>)
 8002950:	bf02      	ittt	eq
 8002952:	f8d3 221c 	ldreq.w	r2, [r3, #540]	; 0x21c
 8002956:	4310      	orreq	r0, r2
 8002958:	f8c3 021c 	streq.w	r0, [r3, #540]	; 0x21c
 800295c:	f8d3 2200 	ldr.w	r2, [r3, #512]	; 0x200
 8002960:	f022 0201 	bic.w	r2, r2, #1
 8002964:	f8c3 2200 	str.w	r2, [r3, #512]	; 0x200
 8002968:	2000      	movs	r0, #0
 800296a:	bd30      	pop	{r4, r5, pc}
 800296c:	2d01      	cmp	r5, #1
 800296e:	d1dd      	bne.n	800292c <HAL_CAN_ConfigFilter+0x80>
 8002970:	f8d3 520c 	ldr.w	r5, [r3, #524]	; 0x20c
 8002974:	4305      	orrs	r5, r0
 8002976:	f8c3 520c 	str.w	r5, [r3, #524]	; 0x20c
 800297a:	680b      	ldr	r3, [r1, #0]
 800297c:	888d      	ldrh	r5, [r1, #4]
 800297e:	ea45 4503 	orr.w	r5, r5, r3, lsl #16
 8002982:	00d3      	lsls	r3, r2, #3
 8002984:	f103 4380 	add.w	r3, r3, #1073741824	; 0x40000000
 8002988:	f503 43c8 	add.w	r3, r3, #25600	; 0x6400
 800298c:	898a      	ldrh	r2, [r1, #12]
 800298e:	f8c3 5240 	str.w	r5, [r3, #576]	; 0x240
 8002992:	688d      	ldr	r5, [r1, #8]
 8002994:	e7c6      	b.n	8002924 <HAL_CAN_ConfigFilter+0x78>
 8002996:	f8d3 2204 	ldr.w	r2, [r3, #516]	; 0x204
 800299a:	4302      	orrs	r2, r0
 800299c:	e7cc      	b.n	8002938 <HAL_CAN_ConfigFilter+0x8c>
 800299e:	f8d3 2214 	ldr.w	r2, [r3, #532]	; 0x214
 80029a2:	4302      	orrs	r2, r0
 80029a4:	f8c3 2214 	str.w	r2, [r3, #532]	; 0x214
 80029a8:	e7cf      	b.n	800294a <HAL_CAN_ConfigFilter+0x9e>
 80029aa:	6a43      	ldr	r3, [r0, #36]	; 0x24
 80029ac:	f443 2380 	orr.w	r3, r3, #262144	; 0x40000
 80029b0:	6243      	str	r3, [r0, #36]	; 0x24
 80029b2:	2001      	movs	r0, #1
 80029b4:	e7d9      	b.n	800296a <HAL_CAN_ConfigFilter+0xbe>
 80029b6:	bf00      	nop
 80029b8:	40006400 	.word	0x40006400

080029bc <HAL_CAN_Start>:
 80029bc:	b570      	push	{r4, r5, r6, lr}
 80029be:	f890 3020 	ldrb.w	r3, [r0, #32]
 80029c2:	2b01      	cmp	r3, #1
 80029c4:	4604      	mov	r4, r0
 80029c6:	b2dd      	uxtb	r5, r3
 80029c8:	d120      	bne.n	8002a0c <HAL_CAN_Start+0x50>
 80029ca:	6802      	ldr	r2, [r0, #0]
 80029cc:	2302      	movs	r3, #2
 80029ce:	f880 3020 	strb.w	r3, [r0, #32]
 80029d2:	6813      	ldr	r3, [r2, #0]
 80029d4:	f023 0301 	bic.w	r3, r3, #1
 80029d8:	6013      	str	r3, [r2, #0]
 80029da:	f7ff fc8d 	bl	80022f8 <HAL_GetTick>
 80029de:	4606      	mov	r6, r0
 80029e0:	6823      	ldr	r3, [r4, #0]
 80029e2:	685b      	ldr	r3, [r3, #4]
 80029e4:	f013 0301 	ands.w	r3, r3, #1
 80029e8:	d102      	bne.n	80029f0 <HAL_CAN_Start+0x34>
 80029ea:	6263      	str	r3, [r4, #36]	; 0x24
 80029ec:	461d      	mov	r5, r3
 80029ee:	e00b      	b.n	8002a08 <HAL_CAN_Start+0x4c>
 80029f0:	f7ff fc82 	bl	80022f8 <HAL_GetTick>
 80029f4:	1b80      	subs	r0, r0, r6
 80029f6:	280a      	cmp	r0, #10
 80029f8:	d9f2      	bls.n	80029e0 <HAL_CAN_Start+0x24>
 80029fa:	6a63      	ldr	r3, [r4, #36]	; 0x24
 80029fc:	f443 3300 	orr.w	r3, r3, #131072	; 0x20000
 8002a00:	6263      	str	r3, [r4, #36]	; 0x24
 8002a02:	2305      	movs	r3, #5
 8002a04:	f884 3020 	strb.w	r3, [r4, #32]
 8002a08:	4628      	mov	r0, r5
 8002a0a:	bd70      	pop	{r4, r5, r6, pc}
 8002a0c:	6a43      	ldr	r3, [r0, #36]	; 0x24
 8002a0e:	f443 2300 	orr.w	r3, r3, #524288	; 0x80000
 8002a12:	6243      	str	r3, [r0, #36]	; 0x24
 8002a14:	2501      	movs	r5, #1
 8002a16:	e7f7      	b.n	8002a08 <HAL_CAN_Start+0x4c>

08002a18 <HAL_CAN_AddTxMessage>:
 8002a18:	b5f0      	push	{r4, r5, r6, r7, lr}
 8002a1a:	f890 5020 	ldrb.w	r5, [r0, #32]
 8002a1e:	6806      	ldr	r6, [r0, #0]
 8002a20:	3d01      	subs	r5, #1
 8002a22:	2d01      	cmp	r5, #1
 8002a24:	68b4      	ldr	r4, [r6, #8]
 8002a26:	d843      	bhi.n	8002ab0 <HAL_CAN_AddTxMessage+0x98>
 8002a28:	f014 5fe0 	tst.w	r4, #469762048	; 0x1c000000
 8002a2c:	d03c      	beq.n	8002aa8 <HAL_CAN_AddTxMessage+0x90>
 8002a2e:	f3c4 6401 	ubfx	r4, r4, #24, #2
 8002a32:	2c03      	cmp	r4, #3
 8002a34:	f04f 0501 	mov.w	r5, #1
 8002a38:	d105      	bne.n	8002a46 <HAL_CAN_AddTxMessage+0x2e>
 8002a3a:	6a43      	ldr	r3, [r0, #36]	; 0x24
 8002a3c:	f443 0300 	orr.w	r3, r3, #8388608	; 0x800000
 8002a40:	6243      	str	r3, [r0, #36]	; 0x24
 8002a42:	2001      	movs	r0, #1
 8002a44:	e02a      	b.n	8002a9c <HAL_CAN_AddTxMessage+0x84>
 8002a46:	40a5      	lsls	r5, r4
 8002a48:	601d      	str	r5, [r3, #0]
 8002a4a:	e9d1 0702 	ldrd	r0, r7, [r1, #8]
 8002a4e:	f104 0318 	add.w	r3, r4, #24
 8002a52:	bb20      	cbnz	r0, 8002a9e <HAL_CAN_AddTxMessage+0x86>
 8002a54:	6808      	ldr	r0, [r1, #0]
 8002a56:	ea47 5040 	orr.w	r0, r7, r0, lsl #21
 8002a5a:	011b      	lsls	r3, r3, #4
 8002a5c:	50f0      	str	r0, [r6, r3]
 8002a5e:	eb06 1304 	add.w	r3, r6, r4, lsl #4
 8002a62:	690d      	ldr	r5, [r1, #16]
 8002a64:	f8c3 5184 	str.w	r5, [r3, #388]	; 0x184
 8002a68:	7d09      	ldrb	r1, [r1, #20]
 8002a6a:	2901      	cmp	r1, #1
 8002a6c:	bf08      	it	eq
 8002a6e:	f8d3 1184 	ldreq.w	r1, [r3, #388]	; 0x184
 8002a72:	ea4f 1004 	mov.w	r0, r4, lsl #4
 8002a76:	bf04      	itt	eq
 8002a78:	f441 7180 	orreq.w	r1, r1, #256	; 0x100
 8002a7c:	f8c3 1184 	streq.w	r1, [r3, #388]	; 0x184
 8002a80:	4406      	add	r6, r0
 8002a82:	6851      	ldr	r1, [r2, #4]
 8002a84:	f8c6 118c 	str.w	r1, [r6, #396]	; 0x18c
 8002a88:	6812      	ldr	r2, [r2, #0]
 8002a8a:	f8c6 2188 	str.w	r2, [r6, #392]	; 0x188
 8002a8e:	f8d3 2180 	ldr.w	r2, [r3, #384]	; 0x180
 8002a92:	f042 0201 	orr.w	r2, r2, #1
 8002a96:	f8c3 2180 	str.w	r2, [r3, #384]	; 0x180
 8002a9a:	2000      	movs	r0, #0
 8002a9c:	bdf0      	pop	{r4, r5, r6, r7, pc}
 8002a9e:	684d      	ldr	r5, [r1, #4]
 8002aa0:	4338      	orrs	r0, r7
 8002aa2:	ea40 00c5 	orr.w	r0, r0, r5, lsl #3
 8002aa6:	e7d8      	b.n	8002a5a <HAL_CAN_AddTxMessage+0x42>
 8002aa8:	6a43      	ldr	r3, [r0, #36]	; 0x24
 8002aaa:	f443 1300 	orr.w	r3, r3, #2097152	; 0x200000
 8002aae:	e7c7      	b.n	8002a40 <HAL_CAN_AddTxMessage+0x28>
 8002ab0:	6a43      	ldr	r3, [r0, #36]	; 0x24
 8002ab2:	f443 2380 	orr.w	r3, r3, #262144	; 0x40000
 8002ab6:	e7c3      	b.n	8002a40 <HAL_CAN_AddTxMessage+0x28>

08002ab8 <HAL_CAN_GetRxMessage>:
 8002ab8:	b5f0      	push	{r4, r5, r6, r7, lr}
 8002aba:	f890 4020 	ldrb.w	r4, [r0, #32]
 8002abe:	3c01      	subs	r4, #1
 8002ac0:	2c01      	cmp	r4, #1
 8002ac2:	d86c      	bhi.n	8002b9e <HAL_CAN_GetRxMessage+0xe6>
 8002ac4:	6806      	ldr	r6, [r0, #0]
 8002ac6:	b941      	cbnz	r1, 8002ada <HAL_CAN_GetRxMessage+0x22>
 8002ac8:	68f4      	ldr	r4, [r6, #12]
 8002aca:	07a4      	lsls	r4, r4, #30
 8002acc:	d107      	bne.n	8002ade <HAL_CAN_GetRxMessage+0x26>
 8002ace:	6a43      	ldr	r3, [r0, #36]	; 0x24
 8002ad0:	f443 1300 	orr.w	r3, r3, #2097152	; 0x200000
 8002ad4:	6243      	str	r3, [r0, #36]	; 0x24
 8002ad6:	2001      	movs	r0, #1
 8002ad8:	e056      	b.n	8002b88 <HAL_CAN_GetRxMessage+0xd0>
 8002ada:	6934      	ldr	r4, [r6, #16]
 8002adc:	e7f5      	b.n	8002aca <HAL_CAN_GetRxMessage+0x12>
 8002ade:	eb06 1501 	add.w	r5, r6, r1, lsl #4
 8002ae2:	010c      	lsls	r4, r1, #4
 8002ae4:	f8d5 71b0 	ldr.w	r7, [r5, #432]	; 0x1b0
 8002ae8:	f007 0704 	and.w	r7, r7, #4
 8002aec:	6097      	str	r7, [r2, #8]
 8002aee:	2f00      	cmp	r7, #0
 8002af0:	d14b      	bne.n	8002b8a <HAL_CAN_GetRxMessage+0xd2>
 8002af2:	f8d5 71b0 	ldr.w	r7, [r5, #432]	; 0x1b0
 8002af6:	0d7f      	lsrs	r7, r7, #21
 8002af8:	6017      	str	r7, [r2, #0]
 8002afa:	f8d5 71b0 	ldr.w	r7, [r5, #432]	; 0x1b0
 8002afe:	f007 0702 	and.w	r7, r7, #2
 8002b02:	60d7      	str	r7, [r2, #12]
 8002b04:	f8d5 71b4 	ldr.w	r7, [r5, #436]	; 0x1b4
 8002b08:	f007 070f 	and.w	r7, r7, #15
 8002b0c:	6117      	str	r7, [r2, #16]
 8002b0e:	f8d5 71b4 	ldr.w	r7, [r5, #436]	; 0x1b4
 8002b12:	f8d5 51b4 	ldr.w	r5, [r5, #436]	; 0x1b4
 8002b16:	4426      	add	r6, r4
 8002b18:	f3c7 2707 	ubfx	r7, r7, #8, #8
 8002b1c:	0c2d      	lsrs	r5, r5, #16
 8002b1e:	6197      	str	r7, [r2, #24]
 8002b20:	6155      	str	r5, [r2, #20]
 8002b22:	f8d6 21b8 	ldr.w	r2, [r6, #440]	; 0x1b8
 8002b26:	701a      	strb	r2, [r3, #0]
 8002b28:	6802      	ldr	r2, [r0, #0]
 8002b2a:	4422      	add	r2, r4
 8002b2c:	f8d2 21b8 	ldr.w	r2, [r2, #440]	; 0x1b8
 8002b30:	0a12      	lsrs	r2, r2, #8
 8002b32:	705a      	strb	r2, [r3, #1]
 8002b34:	6802      	ldr	r2, [r0, #0]
 8002b36:	4422      	add	r2, r4
 8002b38:	f8d2 21b8 	ldr.w	r2, [r2, #440]	; 0x1b8
 8002b3c:	0c12      	lsrs	r2, r2, #16
 8002b3e:	709a      	strb	r2, [r3, #2]
 8002b40:	6802      	ldr	r2, [r0, #0]
 8002b42:	4422      	add	r2, r4
 8002b44:	f8d2 21b8 	ldr.w	r2, [r2, #440]	; 0x1b8
 8002b48:	0e12      	lsrs	r2, r2, #24
 8002b4a:	70da      	strb	r2, [r3, #3]
 8002b4c:	6802      	ldr	r2, [r0, #0]
 8002b4e:	4422      	add	r2, r4
 8002b50:	f8d2 21bc 	ldr.w	r2, [r2, #444]	; 0x1bc
 8002b54:	711a      	strb	r2, [r3, #4]
 8002b56:	6802      	ldr	r2, [r0, #0]
 8002b58:	4422      	add	r2, r4
 8002b5a:	f8d2 21bc 	ldr.w	r2, [r2, #444]	; 0x1bc
 8002b5e:	0a12      	lsrs	r2, r2, #8
 8002b60:	715a      	strb	r2, [r3, #5]
 8002b62:	6802      	ldr	r2, [r0, #0]
 8002b64:	4422      	add	r2, r4
 8002b66:	f8d2 21bc 	ldr.w	r2, [r2, #444]	; 0x1bc
 8002b6a:	0c12      	lsrs	r2, r2, #16
 8002b6c:	719a      	strb	r2, [r3, #6]
 8002b6e:	6802      	ldr	r2, [r0, #0]
 8002b70:	4414      	add	r4, r2
 8002b72:	f8d4 21bc 	ldr.w	r2, [r4, #444]	; 0x1bc
 8002b76:	0e12      	lsrs	r2, r2, #24
 8002b78:	71da      	strb	r2, [r3, #7]
 8002b7a:	6803      	ldr	r3, [r0, #0]
 8002b7c:	b951      	cbnz	r1, 8002b94 <HAL_CAN_GetRxMessage+0xdc>
 8002b7e:	68da      	ldr	r2, [r3, #12]
 8002b80:	f042 0220 	orr.w	r2, r2, #32
 8002b84:	60da      	str	r2, [r3, #12]
 8002b86:	2000      	movs	r0, #0
 8002b88:	bdf0      	pop	{r4, r5, r6, r7, pc}
 8002b8a:	f8d5 71b0 	ldr.w	r7, [r5, #432]	; 0x1b0
 8002b8e:	08ff      	lsrs	r7, r7, #3
 8002b90:	6057      	str	r7, [r2, #4]
 8002b92:	e7b2      	b.n	8002afa <HAL_CAN_GetRxMessage+0x42>
 8002b94:	691a      	ldr	r2, [r3, #16]
 8002b96:	f042 0220 	orr.w	r2, r2, #32
 8002b9a:	611a      	str	r2, [r3, #16]
 8002b9c:	e7f3      	b.n	8002b86 <HAL_CAN_GetRxMessage+0xce>
 8002b9e:	6a43      	ldr	r3, [r0, #36]	; 0x24
 8002ba0:	f443 2380 	orr.w	r3, r3, #262144	; 0x40000
 8002ba4:	e796      	b.n	8002ad4 <HAL_CAN_GetRxMessage+0x1c>
	...

08002ba8 <HAL_NVIC_SetPriorityGrouping>:
 8002ba8:	4907      	ldr	r1, [pc, #28]	; (8002bc8 <HAL_NVIC_SetPriorityGrouping+0x20>)
 8002baa:	68ca      	ldr	r2, [r1, #12]
 8002bac:	f422 62e0 	bic.w	r2, r2, #1792	; 0x700
 8002bb0:	0203      	lsls	r3, r0, #8
 8002bb2:	0412      	lsls	r2, r2, #16
 8002bb4:	f403 63e0 	and.w	r3, r3, #1792	; 0x700
 8002bb8:	0c12      	lsrs	r2, r2, #16
 8002bba:	4313      	orrs	r3, r2
 8002bbc:	f043 63bf 	orr.w	r3, r3, #100139008	; 0x5f80000
 8002bc0:	f443 3300 	orr.w	r3, r3, #131072	; 0x20000
 8002bc4:	60cb      	str	r3, [r1, #12]
 8002bc6:	4770      	bx	lr
 8002bc8:	e000ed00 	.word	0xe000ed00

08002bcc <HAL_NVIC_SetPriority>:
 8002bcc:	4b16      	ldr	r3, [pc, #88]	; (8002c28 <HAL_NVIC_SetPriority+0x5c>)
 8002bce:	b530      	push	{r4, r5, lr}
 8002bd0:	68dc      	ldr	r4, [r3, #12]
 8002bd2:	f3c4 2402 	ubfx	r4, r4, #8, #3
 8002bd6:	f1c4 0507 	rsb	r5, r4, #7
 8002bda:	1d23      	adds	r3, r4, #4
 8002bdc:	2d04      	cmp	r5, #4
 8002bde:	bf28      	it	cs
 8002be0:	2504      	movcs	r5, #4
 8002be2:	2b06      	cmp	r3, #6
 8002be4:	f04f 33ff 	mov.w	r3, #4294967295
 8002be8:	bf8c      	ite	hi
 8002bea:	3c03      	subhi	r4, #3
 8002bec:	2400      	movls	r4, #0
 8002bee:	fa03 f505 	lsl.w	r5, r3, r5
 8002bf2:	ea21 0105 	bic.w	r1, r1, r5
 8002bf6:	40a3      	lsls	r3, r4
 8002bf8:	ea22 0203 	bic.w	r2, r2, r3
 8002bfc:	40a1      	lsls	r1, r4
 8002bfe:	2800      	cmp	r0, #0
 8002c00:	ea41 0302 	orr.w	r3, r1, r2
 8002c04:	bfac      	ite	ge
 8002c06:	f100 4060 	addge.w	r0, r0, #3758096384	; 0xe0000000
 8002c0a:	4a08      	ldrlt	r2, [pc, #32]	; (8002c2c <HAL_NVIC_SetPriority+0x60>)
 8002c0c:	ea4f 1303 	mov.w	r3, r3, lsl #4
 8002c10:	bfb8      	it	lt
 8002c12:	f000 000f 	andlt.w	r0, r0, #15
 8002c16:	b2db      	uxtb	r3, r3
 8002c18:	bfaa      	itet	ge
 8002c1a:	f500 4061 	addge.w	r0, r0, #57600	; 0xe100
 8002c1e:	5413      	strblt	r3, [r2, r0]
 8002c20:	f880 3300 	strbge.w	r3, [r0, #768]	; 0x300
 8002c24:	bd30      	pop	{r4, r5, pc}
 8002c26:	bf00      	nop
 8002c28:	e000ed00 	.word	0xe000ed00
 8002c2c:	e000ed14 	.word	0xe000ed14

08002c30 <HAL_NVIC_EnableIRQ>:
 8002c30:	2800      	cmp	r0, #0
 8002c32:	db08      	blt.n	8002c46 <HAL_NVIC_EnableIRQ+0x16>
 8002c34:	0942      	lsrs	r2, r0, #5
 8002c36:	2301      	movs	r3, #1
 8002c38:	f000 001f 	and.w	r0, r0, #31
 8002c3c:	fa03 f000 	lsl.w	r0, r3, r0
 8002c40:	4b01      	ldr	r3, [pc, #4]	; (8002c48 <HAL_NVIC_EnableIRQ+0x18>)
 8002c42:	f843 0022 	str.w	r0, [r3, r2, lsl #2]
 8002c46:	4770      	bx	lr
 8002c48:	e000e100 	.word	0xe000e100

08002c4c <HAL_SYSTICK_Config>:
 8002c4c:	3801      	subs	r0, #1
 8002c4e:	f1b0 7f80 	cmp.w	r0, #16777216	; 0x1000000
 8002c52:	d20a      	bcs.n	8002c6a <HAL_SYSTICK_Config+0x1e>
 8002c54:	4b06      	ldr	r3, [pc, #24]	; (8002c70 <HAL_SYSTICK_Config+0x24>)
 8002c56:	4a07      	ldr	r2, [pc, #28]	; (8002c74 <HAL_SYSTICK_Config+0x28>)
 8002c58:	6058      	str	r0, [r3, #4]
 8002c5a:	21f0      	movs	r1, #240	; 0xf0
 8002c5c:	f882 1023 	strb.w	r1, [r2, #35]	; 0x23
 8002c60:	2000      	movs	r0, #0
 8002c62:	2207      	movs	r2, #7
 8002c64:	6098      	str	r0, [r3, #8]
 8002c66:	601a      	str	r2, [r3, #0]
 8002c68:	4770      	bx	lr
 8002c6a:	2001      	movs	r0, #1
 8002c6c:	4770      	bx	lr
 8002c6e:	bf00      	nop
 8002c70:	e000e010 	.word	0xe000e010
 8002c74:	e000ed00 	.word	0xe000ed00

08002c78 <HAL_GPIO_Init>:
 8002c78:	e92d 4ff7 	stmdb	sp!, {r0, r1, r2, r4, r5, r6, r7, r8, r9, sl, fp, lr}
 8002c7c:	f8df 919c 	ldr.w	r9, [pc, #412]	; 8002e1c <HAL_GPIO_Init+0x1a4>
 8002c80:	4a64      	ldr	r2, [pc, #400]	; (8002e14 <HAL_GPIO_Init+0x19c>)
 8002c82:	2300      	movs	r3, #0
 8002c84:	680d      	ldr	r5, [r1, #0]
 8002c86:	2401      	movs	r4, #1
 8002c88:	409c      	lsls	r4, r3
 8002c8a:	ea04 0c05 	and.w	ip, r4, r5
 8002c8e:	43ac      	bics	r4, r5
 8002c90:	f040 80ac 	bne.w	8002dec <HAL_GPIO_Init+0x174>
 8002c94:	684d      	ldr	r5, [r1, #4]
 8002c96:	f005 0403 	and.w	r4, r5, #3
 8002c9a:	ea4f 0843 	mov.w	r8, r3, lsl #1
 8002c9e:	2603      	movs	r6, #3
 8002ca0:	1e67      	subs	r7, r4, #1
 8002ca2:	fa06 f608 	lsl.w	r6, r6, r8
 8002ca6:	2f01      	cmp	r7, #1
 8002ca8:	ea6f 0606 	mvn.w	r6, r6
 8002cac:	d834      	bhi.n	8002d18 <HAL_GPIO_Init+0xa0>
 8002cae:	6887      	ldr	r7, [r0, #8]
 8002cb0:	ea07 0e06 	and.w	lr, r7, r6
 8002cb4:	68cf      	ldr	r7, [r1, #12]
 8002cb6:	fa07 f708 	lsl.w	r7, r7, r8
 8002cba:	ea47 070e 	orr.w	r7, r7, lr
 8002cbe:	6087      	str	r7, [r0, #8]
 8002cc0:	6847      	ldr	r7, [r0, #4]
 8002cc2:	ea27 0e0c 	bic.w	lr, r7, ip
 8002cc6:	f3c5 1700 	ubfx	r7, r5, #4, #1
 8002cca:	409f      	lsls	r7, r3
 8002ccc:	ea47 070e 	orr.w	r7, r7, lr
 8002cd0:	6047      	str	r7, [r0, #4]
 8002cd2:	68c7      	ldr	r7, [r0, #12]
 8002cd4:	ea07 0e06 	and.w	lr, r7, r6
 8002cd8:	688f      	ldr	r7, [r1, #8]
 8002cda:	fa07 f708 	lsl.w	r7, r7, r8
 8002cde:	ea47 070e 	orr.w	r7, r7, lr
 8002ce2:	2c02      	cmp	r4, #2
 8002ce4:	60c7      	str	r7, [r0, #12]
 8002ce6:	d119      	bne.n	8002d1c <HAL_GPIO_Init+0xa4>
 8002ce8:	ea4f 0ad3 	mov.w	sl, r3, lsr #3
 8002cec:	eb00 0a8a 	add.w	sl, r0, sl, lsl #2
 8002cf0:	f003 0b07 	and.w	fp, r3, #7
 8002cf4:	f8da 7020 	ldr.w	r7, [sl, #32]
 8002cf8:	ea4f 0b8b 	mov.w	fp, fp, lsl #2
 8002cfc:	f04f 0e0f 	mov.w	lr, #15
 8002d00:	fa0e fe0b 	lsl.w	lr, lr, fp
 8002d04:	ea27 0e0e 	bic.w	lr, r7, lr
 8002d08:	690f      	ldr	r7, [r1, #16]
 8002d0a:	fa07 f70b 	lsl.w	r7, r7, fp
 8002d0e:	ea47 070e 	orr.w	r7, r7, lr
 8002d12:	f8ca 7020 	str.w	r7, [sl, #32]
 8002d16:	e001      	b.n	8002d1c <HAL_GPIO_Init+0xa4>
 8002d18:	2c03      	cmp	r4, #3
 8002d1a:	d1da      	bne.n	8002cd2 <HAL_GPIO_Init+0x5a>
 8002d1c:	6807      	ldr	r7, [r0, #0]
 8002d1e:	fa04 f408 	lsl.w	r4, r4, r8
 8002d22:	403e      	ands	r6, r7
 8002d24:	4326      	orrs	r6, r4
 8002d26:	00ec      	lsls	r4, r5, #3
 8002d28:	6006      	str	r6, [r0, #0]
 8002d2a:	d55f      	bpl.n	8002dec <HAL_GPIO_Init+0x174>
 8002d2c:	f04f 0a00 	mov.w	sl, #0
 8002d30:	f8cd a004 	str.w	sl, [sp, #4]
 8002d34:	f8d9 6044 	ldr.w	r6, [r9, #68]	; 0x44
 8002d38:	4c37      	ldr	r4, [pc, #220]	; (8002e18 <HAL_GPIO_Init+0x1a0>)
 8002d3a:	f446 4680 	orr.w	r6, r6, #16384	; 0x4000
 8002d3e:	f8c9 6044 	str.w	r6, [r9, #68]	; 0x44
 8002d42:	f8d9 6044 	ldr.w	r6, [r9, #68]	; 0x44
 8002d46:	f406 4680 	and.w	r6, r6, #16384	; 0x4000
 8002d4a:	9601      	str	r6, [sp, #4]
 8002d4c:	9e01      	ldr	r6, [sp, #4]
 8002d4e:	f023 0603 	bic.w	r6, r3, #3
 8002d52:	f106 4680 	add.w	r6, r6, #1073741824	; 0x40000000
 8002d56:	f506 369c 	add.w	r6, r6, #79872	; 0x13800
 8002d5a:	f003 0e03 	and.w	lr, r3, #3
 8002d5e:	f8d6 8008 	ldr.w	r8, [r6, #8]
 8002d62:	ea4f 0e8e 	mov.w	lr, lr, lsl #2
 8002d66:	270f      	movs	r7, #15
 8002d68:	fa07 f70e 	lsl.w	r7, r7, lr
 8002d6c:	42a0      	cmp	r0, r4
 8002d6e:	ea28 0707 	bic.w	r7, r8, r7
 8002d72:	d042      	beq.n	8002dfa <HAL_GPIO_Init+0x182>
 8002d74:	f504 6480 	add.w	r4, r4, #1024	; 0x400
 8002d78:	42a0      	cmp	r0, r4
 8002d7a:	d040      	beq.n	8002dfe <HAL_GPIO_Init+0x186>
 8002d7c:	f504 6480 	add.w	r4, r4, #1024	; 0x400
 8002d80:	42a0      	cmp	r0, r4
 8002d82:	d03e      	beq.n	8002e02 <HAL_GPIO_Init+0x18a>
 8002d84:	f504 6480 	add.w	r4, r4, #1024	; 0x400
 8002d88:	42a0      	cmp	r0, r4
 8002d8a:	d03c      	beq.n	8002e06 <HAL_GPIO_Init+0x18e>
 8002d8c:	f504 6480 	add.w	r4, r4, #1024	; 0x400
 8002d90:	42a0      	cmp	r0, r4
 8002d92:	d03a      	beq.n	8002e0a <HAL_GPIO_Init+0x192>
 8002d94:	f504 6480 	add.w	r4, r4, #1024	; 0x400
 8002d98:	42a0      	cmp	r0, r4
 8002d9a:	d038      	beq.n	8002e0e <HAL_GPIO_Init+0x196>
 8002d9c:	f504 6480 	add.w	r4, r4, #1024	; 0x400
 8002da0:	42a0      	cmp	r0, r4
 8002da2:	bf0c      	ite	eq
 8002da4:	2406      	moveq	r4, #6
 8002da6:	2407      	movne	r4, #7
 8002da8:	fa04 f40e 	lsl.w	r4, r4, lr
 8002dac:	433c      	orrs	r4, r7
 8002dae:	60b4      	str	r4, [r6, #8]
 8002db0:	6814      	ldr	r4, [r2, #0]
 8002db2:	ea6f 060c 	mvn.w	r6, ip
 8002db6:	03ef      	lsls	r7, r5, #15
 8002db8:	bf54      	ite	pl
 8002dba:	4034      	andpl	r4, r6
 8002dbc:	ea4c 0404 	orrmi.w	r4, ip, r4
 8002dc0:	6014      	str	r4, [r2, #0]
 8002dc2:	6854      	ldr	r4, [r2, #4]
 8002dc4:	03af      	lsls	r7, r5, #14
 8002dc6:	bf54      	ite	pl
 8002dc8:	4034      	andpl	r4, r6
 8002dca:	ea4c 0404 	orrmi.w	r4, ip, r4
 8002dce:	6054      	str	r4, [r2, #4]
 8002dd0:	6894      	ldr	r4, [r2, #8]
 8002dd2:	02ef      	lsls	r7, r5, #11
 8002dd4:	bf54      	ite	pl
 8002dd6:	4034      	andpl	r4, r6
 8002dd8:	ea4c 0404 	orrmi.w	r4, ip, r4
 8002ddc:	6094      	str	r4, [r2, #8]
 8002dde:	68d4      	ldr	r4, [r2, #12]
 8002de0:	02ad      	lsls	r5, r5, #10
 8002de2:	bf54      	ite	pl
 8002de4:	4034      	andpl	r4, r6
 8002de6:	ea4c 0404 	orrmi.w	r4, ip, r4
 8002dea:	60d4      	str	r4, [r2, #12]
 8002dec:	3301      	adds	r3, #1
 8002dee:	2b10      	cmp	r3, #16
 8002df0:	f47f af48 	bne.w	8002c84 <HAL_GPIO_Init+0xc>
 8002df4:	b003      	add	sp, #12
 8002df6:	e8bd 8ff0 	ldmia.w	sp!, {r4, r5, r6, r7, r8, r9, sl, fp, pc}
 8002dfa:	4654      	mov	r4, sl
 8002dfc:	e7d4      	b.n	8002da8 <HAL_GPIO_Init+0x130>
 8002dfe:	2401      	movs	r4, #1
 8002e00:	e7d2      	b.n	8002da8 <HAL_GPIO_Init+0x130>
 8002e02:	2402      	movs	r4, #2
 8002e04:	e7d0      	b.n	8002da8 <HAL_GPIO_Init+0x130>
 8002e06:	2403      	movs	r4, #3
 8002e08:	e7ce      	b.n	8002da8 <HAL_GPIO_Init+0x130>
 8002e0a:	2404      	movs	r4, #4
 8002e0c:	e7cc      	b.n	8002da8 <HAL_GPIO_Init+0x130>
 8002e0e:	2405      	movs	r4, #5
 8002e10:	e7ca      	b.n	8002da8 <HAL_GPIO_Init+0x130>
 8002e12:	bf00      	nop
 8002e14:	40013c00 	.word	0x40013c00
 8002e18:	40020000 	.word	0x40020000
 8002e1c:	40023800 	.word	0x40023800

08002e20 <HAL_GPIO_WritePin>:
 8002e20:	b10a      	cbz	r2, 8002e26 <HAL_GPIO_WritePin+0x6>
 8002e22:	6181      	str	r1, [r0, #24]
 8002e24:	4770      	bx	lr
 8002e26:	0409      	lsls	r1, r1, #16
 8002e28:	e7fb      	b.n	8002e22 <HAL_GPIO_WritePin+0x2>

08002e2a <HAL_PCD_Init>:
 8002e2a:	b5f0      	push	{r4, r5, r6, r7, lr}
 8002e2c:	4604      	mov	r4, r0
 8002e2e:	b08b      	sub	sp, #44	; 0x2c
 8002e30:	b360      	cbz	r0, 8002e8c <HAL_PCD_Init+0x62>
 8002e32:	f890 33bd 	ldrb.w	r3, [r0, #957]	; 0x3bd
 8002e36:	6805      	ldr	r5, [r0, #0]
 8002e38:	f003 02ff 	and.w	r2, r3, #255	; 0xff
 8002e3c:	b91b      	cbnz	r3, 8002e46 <HAL_PCD_Init+0x1c>
 8002e3e:	f880 23bc 	strb.w	r2, [r0, #956]	; 0x3bc
 8002e42:	f003 fb85 	bl	8006550 <HAL_PCD_MspInit>
 8002e46:	2303      	movs	r3, #3
 8002e48:	f884 33bd 	strb.w	r3, [r4, #957]	; 0x3bd
 8002e4c:	6beb      	ldr	r3, [r5, #60]	; 0x3c
 8002e4e:	4625      	mov	r5, r4
 8002e50:	f413 7380 	ands.w	r3, r3, #256	; 0x100
 8002e54:	f855 0b10 	ldr.w	r0, [r5], #16
 8002e58:	bf08      	it	eq
 8002e5a:	6123      	streq	r3, [r4, #16]
 8002e5c:	f002 f8d0 	bl	8005000 <USB_DisableGlobalInt>
 8002e60:	cd0f      	ldmia	r5!, {r0, r1, r2, r3}
 8002e62:	466e      	mov	r6, sp
 8002e64:	c60f      	stmia	r6!, {r0, r1, r2, r3}
 8002e66:	cd0f      	ldmia	r5!, {r0, r1, r2, r3}
 8002e68:	c60f      	stmia	r6!, {r0, r1, r2, r3}
 8002e6a:	e895 0003 	ldmia.w	r5, {r0, r1}
 8002e6e:	e886 0003 	stmia.w	r6, {r0, r1}
 8002e72:	4625      	mov	r5, r4
 8002e74:	1d27      	adds	r7, r4, #4
 8002e76:	e897 000e 	ldmia.w	r7, {r1, r2, r3}
 8002e7a:	f855 0b10 	ldr.w	r0, [r5], #16
 8002e7e:	f002 f809 	bl	8004e94 <USB_CoreInit>
 8002e82:	4606      	mov	r6, r0
 8002e84:	b120      	cbz	r0, 8002e90 <HAL_PCD_Init+0x66>
 8002e86:	2302      	movs	r3, #2
 8002e88:	f884 33bd 	strb.w	r3, [r4, #957]	; 0x3bd
 8002e8c:	2501      	movs	r5, #1
 8002e8e:	e054      	b.n	8002f3a <HAL_PCD_Init+0x110>
 8002e90:	4601      	mov	r1, r0
 8002e92:	6820      	ldr	r0, [r4, #0]
 8002e94:	f002 f8ba 	bl	800500c <USB_SetCurrentMode>
 8002e98:	4630      	mov	r0, r6
 8002e9a:	f8d4 c004 	ldr.w	ip, [r4, #4]
 8002e9e:	261c      	movs	r6, #28
 8002ea0:	f04f 0e01 	mov.w	lr, #1
 8002ea4:	4601      	mov	r1, r0
 8002ea6:	b2c2      	uxtb	r2, r0
 8002ea8:	4594      	cmp	ip, r2
 8002eaa:	f100 0001 	add.w	r0, r0, #1
 8002eae:	d81c      	bhi.n	8002eea <HAL_PCD_Init+0xc0>
 8002eb0:	2300      	movs	r3, #0
 8002eb2:	261c      	movs	r6, #28
 8002eb4:	4619      	mov	r1, r3
 8002eb6:	b2d8      	uxtb	r0, r3
 8002eb8:	4584      	cmp	ip, r0
 8002eba:	f103 0301 	add.w	r3, r3, #1
 8002ebe:	d822      	bhi.n	8002f06 <HAL_PCD_Init+0xdc>
 8002ec0:	cd0f      	ldmia	r5!, {r0, r1, r2, r3}
 8002ec2:	466e      	mov	r6, sp
 8002ec4:	c60f      	stmia	r6!, {r0, r1, r2, r3}
 8002ec6:	cd0f      	ldmia	r5!, {r0, r1, r2, r3}
 8002ec8:	c60f      	stmia	r6!, {r0, r1, r2, r3}
 8002eca:	e895 0003 	ldmia.w	r5, {r0, r1}
 8002ece:	e886 0003 	stmia.w	r6, {r0, r1}
 8002ed2:	e897 000e 	ldmia.w	r7, {r1, r2, r3}
 8002ed6:	6820      	ldr	r0, [r4, #0]
 8002ed8:	f002 f8da 	bl	8005090 <USB_DevInit>
 8002edc:	2301      	movs	r3, #1
 8002ede:	4605      	mov	r5, r0
 8002ee0:	b1f0      	cbz	r0, 8002f20 <HAL_PCD_Init+0xf6>
 8002ee2:	2202      	movs	r2, #2
 8002ee4:	f884 23bd 	strb.w	r2, [r4, #957]	; 0x3bd
 8002ee8:	e7d0      	b.n	8002e8c <HAL_PCD_Init+0x62>
 8002eea:	fb06 4302 	mla	r3, r6, r2, r4
 8002eee:	e9c3 1111 	strd	r1, r1, [r3, #68]	; 0x44
 8002ef2:	f883 e03d 	strb.w	lr, [r3, #61]	; 0x3d
 8002ef6:	f883 203c 	strb.w	r2, [r3, #60]	; 0x3c
 8002efa:	f8a3 2042 	strh.w	r2, [r3, #66]	; 0x42
 8002efe:	f883 103f 	strb.w	r1, [r3, #63]	; 0x3f
 8002f02:	6519      	str	r1, [r3, #80]	; 0x50
 8002f04:	e7cf      	b.n	8002ea6 <HAL_PCD_Init+0x7c>
 8002f06:	fb06 4200 	mla	r2, r6, r0, r4
 8002f0a:	e9c2 1181 	strd	r1, r1, [r2, #516]	; 0x204
 8002f0e:	f882 11fd 	strb.w	r1, [r2, #509]	; 0x1fd
 8002f12:	f882 01fc 	strb.w	r0, [r2, #508]	; 0x1fc
 8002f16:	f882 11ff 	strb.w	r1, [r2, #511]	; 0x1ff
 8002f1a:	f8c2 1210 	str.w	r1, [r2, #528]	; 0x210
 8002f1e:	e7ca      	b.n	8002eb6 <HAL_PCD_Init+0x8c>
 8002f20:	f884 0038 	strb.w	r0, [r4, #56]	; 0x38
 8002f24:	f884 33bd 	strb.w	r3, [r4, #957]	; 0x3bd
 8002f28:	6a63      	ldr	r3, [r4, #36]	; 0x24
 8002f2a:	2b01      	cmp	r3, #1
 8002f2c:	d102      	bne.n	8002f34 <HAL_PCD_Init+0x10a>
 8002f2e:	4620      	mov	r0, r4
 8002f30:	f000 fc4d 	bl	80037ce <HAL_PCDEx_ActivateLPM>
 8002f34:	6820      	ldr	r0, [r4, #0]
 8002f36:	f002 fbfd 	bl	8005734 <USB_DevDisconnect>
 8002f3a:	4628      	mov	r0, r5
 8002f3c:	b00b      	add	sp, #44	; 0x2c
 8002f3e:	bdf0      	pop	{r4, r5, r6, r7, pc}

08002f40 <HAL_PCD_Start>:
 8002f40:	b510      	push	{r4, lr}
 8002f42:	4604      	mov	r4, r0
 8002f44:	6800      	ldr	r0, [r0, #0]
 8002f46:	f894 33bc 	ldrb.w	r3, [r4, #956]	; 0x3bc
 8002f4a:	2b01      	cmp	r3, #1
 8002f4c:	d015      	beq.n	8002f7a <HAL_PCD_Start+0x3a>
 8002f4e:	2301      	movs	r3, #1
 8002f50:	f884 33bc 	strb.w	r3, [r4, #956]	; 0x3bc
 8002f54:	6aa3      	ldr	r3, [r4, #40]	; 0x28
 8002f56:	2b01      	cmp	r3, #1
 8002f58:	d106      	bne.n	8002f68 <HAL_PCD_Start+0x28>
 8002f5a:	69a3      	ldr	r3, [r4, #24]
 8002f5c:	2b01      	cmp	r3, #1
 8002f5e:	bf1e      	ittt	ne
 8002f60:	6b83      	ldrne	r3, [r0, #56]	; 0x38
 8002f62:	f443 3380 	orrne.w	r3, r3, #65536	; 0x10000
 8002f66:	6383      	strne	r3, [r0, #56]	; 0x38
 8002f68:	f002 f844 	bl	8004ff4 <USB_EnableGlobalInt>
 8002f6c:	6820      	ldr	r0, [r4, #0]
 8002f6e:	f002 fbd3 	bl	8005718 <USB_DevConnect>
 8002f72:	2000      	movs	r0, #0
 8002f74:	f884 03bc 	strb.w	r0, [r4, #956]	; 0x3bc
 8002f78:	bd10      	pop	{r4, pc}
 8002f7a:	2002      	movs	r0, #2
 8002f7c:	e7fc      	b.n	8002f78 <HAL_PCD_Start+0x38>
	...

08002f80 <HAL_PCD_IRQHandler>:
 8002f80:	e92d 4ff0 	stmdb	sp!, {r4, r5, r6, r7, r8, r9, sl, fp, lr}
 8002f84:	6806      	ldr	r6, [r0, #0]
 8002f86:	b087      	sub	sp, #28
 8002f88:	4604      	mov	r4, r0
 8002f8a:	4630      	mov	r0, r6
 8002f8c:	f002 fc0f 	bl	80057ae <USB_GetMode>
 8002f90:	9002      	str	r0, [sp, #8]
 8002f92:	2800      	cmp	r0, #0
 8002f94:	f040 813e 	bne.w	8003214 <HAL_PCD_IRQHandler+0x294>
 8002f98:	6820      	ldr	r0, [r4, #0]
 8002f9a:	f002 fbd9 	bl	8005750 <USB_ReadInterrupts>
 8002f9e:	2800      	cmp	r0, #0
 8002fa0:	f000 8138 	beq.w	8003214 <HAL_PCD_IRQHandler+0x294>
 8002fa4:	6820      	ldr	r0, [r4, #0]
 8002fa6:	f002 fbd3 	bl	8005750 <USB_ReadInterrupts>
 8002faa:	0782      	lsls	r2, r0, #30
 8002fac:	bf48      	it	mi
 8002fae:	6822      	ldrmi	r2, [r4, #0]
 8002fb0:	6820      	ldr	r0, [r4, #0]
 8002fb2:	bf42      	ittt	mi
 8002fb4:	6953      	ldrmi	r3, [r2, #20]
 8002fb6:	f003 0302 	andmi.w	r3, r3, #2
 8002fba:	6153      	strmi	r3, [r2, #20]
 8002fbc:	f002 fbc8 	bl	8005750 <USB_ReadInterrupts>
 8002fc0:	06c3      	lsls	r3, r0, #27
 8002fc2:	d52a      	bpl.n	800301a <HAL_PCD_IRQHandler+0x9a>
 8002fc4:	6822      	ldr	r2, [r4, #0]
 8002fc6:	6993      	ldr	r3, [r2, #24]
 8002fc8:	f023 0310 	bic.w	r3, r3, #16
 8002fcc:	6193      	str	r3, [r2, #24]
 8002fce:	6a37      	ldr	r7, [r6, #32]
 8002fd0:	f3c7 4343 	ubfx	r3, r7, #17, #4
 8002fd4:	2b02      	cmp	r3, #2
 8002fd6:	f007 050f 	and.w	r5, r7, #15
 8002fda:	f040 811e 	bne.w	800321a <HAL_PCD_IRQHandler+0x29a>
 8002fde:	f647 73f0 	movw	r3, #32752	; 0x7ff0
 8002fe2:	421f      	tst	r7, r3
 8002fe4:	d014      	beq.n	8003010 <HAL_PCD_IRQHandler+0x90>
 8002fe6:	231c      	movs	r3, #28
 8002fe8:	fb03 4505 	mla	r5, r3, r5, r4
 8002fec:	f3c7 180a 	ubfx	r8, r7, #4, #11
 8002ff0:	4642      	mov	r2, r8
 8002ff2:	f8d5 1208 	ldr.w	r1, [r5, #520]	; 0x208
 8002ff6:	4630      	mov	r0, r6
 8002ff8:	f002 fb1c 	bl	8005634 <USB_ReadPacket>
 8002ffc:	f8d5 2208 	ldr.w	r2, [r5, #520]	; 0x208
 8003000:	f8d5 3214 	ldr.w	r3, [r5, #532]	; 0x214
 8003004:	4442      	add	r2, r8
 8003006:	4443      	add	r3, r8
 8003008:	f8c5 2208 	str.w	r2, [r5, #520]	; 0x208
 800300c:	f8c5 3214 	str.w	r3, [r5, #532]	; 0x214
 8003010:	6822      	ldr	r2, [r4, #0]
 8003012:	6993      	ldr	r3, [r2, #24]
 8003014:	f043 0310 	orr.w	r3, r3, #16
 8003018:	6193      	str	r3, [r2, #24]
 800301a:	6820      	ldr	r0, [r4, #0]
 800301c:	f002 fb98 	bl	8005750 <USB_ReadInterrupts>
 8003020:	0307      	lsls	r7, r0, #12
 8003022:	f100 810e 	bmi.w	8003242 <HAL_PCD_IRQHandler+0x2c2>
 8003026:	6820      	ldr	r0, [r4, #0]
 8003028:	f002 fb92 	bl	8005750 <USB_ReadInterrupts>
 800302c:	0345      	lsls	r5, r0, #13
 800302e:	d50c      	bpl.n	800304a <HAL_PCD_IRQHandler+0xca>
 8003030:	6820      	ldr	r0, [r4, #0]
 8003032:	f002 fb99 	bl	8005768 <USB_ReadDevAllInEpInterrupt>
 8003036:	4625      	mov	r5, r4
 8003038:	9003      	str	r0, [sp, #12]
 800303a:	f506 6910 	add.w	r9, r6, #2304	; 0x900
 800303e:	f04f 0800 	mov.w	r8, #0
 8003042:	9b03      	ldr	r3, [sp, #12]
 8003044:	2b00      	cmp	r3, #0
 8003046:	f040 81a5 	bne.w	8003394 <HAL_PCD_IRQHandler+0x414>
 800304a:	6820      	ldr	r0, [r4, #0]
 800304c:	f002 fb80 	bl	8005750 <USB_ReadInterrupts>
 8003050:	2800      	cmp	r0, #0
 8003052:	da15      	bge.n	8003080 <HAL_PCD_IRQHandler+0x100>
 8003054:	f8d6 3804 	ldr.w	r3, [r6, #2052]	; 0x804
 8003058:	f023 0301 	bic.w	r3, r3, #1
 800305c:	f8c6 3804 	str.w	r3, [r6, #2052]	; 0x804
 8003060:	f894 33f4 	ldrb.w	r3, [r4, #1012]	; 0x3f4
 8003064:	2b01      	cmp	r3, #1
 8003066:	f040 8226 	bne.w	80034b6 <HAL_PCD_IRQHandler+0x536>
 800306a:	2100      	movs	r1, #0
 800306c:	f884 13f4 	strb.w	r1, [r4, #1012]	; 0x3f4
 8003070:	4620      	mov	r0, r4
 8003072:	f003 fbc1 	bl	80067f8 <HAL_PCDEx_LPM_Callback>
 8003076:	6822      	ldr	r2, [r4, #0]
 8003078:	6953      	ldr	r3, [r2, #20]
 800307a:	f003 4300 	and.w	r3, r3, #2147483648	; 0x80000000
 800307e:	6153      	str	r3, [r2, #20]
 8003080:	6820      	ldr	r0, [r4, #0]
 8003082:	f002 fb65 	bl	8005750 <USB_ReadInterrupts>
 8003086:	0500      	lsls	r0, r0, #20
 8003088:	d50b      	bpl.n	80030a2 <HAL_PCD_IRQHandler+0x122>
 800308a:	f8d6 3808 	ldr.w	r3, [r6, #2056]	; 0x808
 800308e:	07d9      	lsls	r1, r3, #31
 8003090:	d502      	bpl.n	8003098 <HAL_PCD_IRQHandler+0x118>
 8003092:	4620      	mov	r0, r4
 8003094:	f003 facc 	bl	8006630 <HAL_PCD_SuspendCallback>
 8003098:	6822      	ldr	r2, [r4, #0]
 800309a:	6953      	ldr	r3, [r2, #20]
 800309c:	f403 6300 	and.w	r3, r3, #2048	; 0x800
 80030a0:	6153      	str	r3, [r2, #20]
 80030a2:	6820      	ldr	r0, [r4, #0]
 80030a4:	f002 fb54 	bl	8005750 <USB_ReadInterrupts>
 80030a8:	0102      	lsls	r2, r0, #4
 80030aa:	d514      	bpl.n	80030d6 <HAL_PCD_IRQHandler+0x156>
 80030ac:	6823      	ldr	r3, [r4, #0]
 80030ae:	695a      	ldr	r2, [r3, #20]
 80030b0:	f002 6200 	and.w	r2, r2, #134217728	; 0x8000000
 80030b4:	615a      	str	r2, [r3, #20]
 80030b6:	f894 23f4 	ldrb.w	r2, [r4, #1012]	; 0x3f4
 80030ba:	2a00      	cmp	r2, #0
 80030bc:	f040 81ff 	bne.w	80034be <HAL_PCD_IRQHandler+0x53e>
 80030c0:	2101      	movs	r1, #1
 80030c2:	f884 13f4 	strb.w	r1, [r4, #1012]	; 0x3f4
 80030c6:	6d5b      	ldr	r3, [r3, #84]	; 0x54
 80030c8:	f3c3 0383 	ubfx	r3, r3, #2, #4
 80030cc:	f8c4 33f8 	str.w	r3, [r4, #1016]	; 0x3f8
 80030d0:	4620      	mov	r0, r4
 80030d2:	f003 fb91 	bl	80067f8 <HAL_PCDEx_LPM_Callback>
 80030d6:	6820      	ldr	r0, [r4, #0]
 80030d8:	f002 fb3a 	bl	8005750 <USB_ReadInterrupts>
 80030dc:	04c3      	lsls	r3, r0, #19
 80030de:	d537      	bpl.n	8003150 <HAL_PCD_IRQHandler+0x1d0>
 80030e0:	f8d6 3804 	ldr.w	r3, [r6, #2052]	; 0x804
 80030e4:	6820      	ldr	r0, [r4, #0]
 80030e6:	f023 0301 	bic.w	r3, r3, #1
 80030ea:	2110      	movs	r1, #16
 80030ec:	f8c6 3804 	str.w	r3, [r6, #2052]	; 0x804
 80030f0:	f001 ffa4 	bl	800503c <USB_FlushTxFifo>
 80030f4:	f506 6500 	add.w	r5, r6, #2048	; 0x800
 80030f8:	f506 6310 	add.w	r3, r6, #2304	; 0x900
 80030fc:	f64f 317f 	movw	r1, #64383	; 0xfb7f
 8003100:	6862      	ldr	r2, [r4, #4]
 8003102:	9802      	ldr	r0, [sp, #8]
 8003104:	4282      	cmp	r2, r0
 8003106:	f200 81de 	bhi.w	80034c6 <HAL_PCD_IRQHandler+0x546>
 800310a:	69eb      	ldr	r3, [r5, #28]
 800310c:	f043 1301 	orr.w	r3, r3, #65537	; 0x10001
 8003110:	61eb      	str	r3, [r5, #28]
 8003112:	6b23      	ldr	r3, [r4, #48]	; 0x30
 8003114:	2b00      	cmp	r3, #0
 8003116:	f000 81f2 	beq.w	80034fe <HAL_PCD_IRQHandler+0x57e>
 800311a:	f8d5 3084 	ldr.w	r3, [r5, #132]	; 0x84
 800311e:	f043 030b 	orr.w	r3, r3, #11
 8003122:	f8c5 3084 	str.w	r3, [r5, #132]	; 0x84
 8003126:	6c6b      	ldr	r3, [r5, #68]	; 0x44
 8003128:	f043 030b 	orr.w	r3, r3, #11
 800312c:	646b      	str	r3, [r5, #68]	; 0x44
 800312e:	f8d6 3800 	ldr.w	r3, [r6, #2048]	; 0x800
 8003132:	7c21      	ldrb	r1, [r4, #16]
 8003134:	6820      	ldr	r0, [r4, #0]
 8003136:	f423 63fe 	bic.w	r3, r3, #2032	; 0x7f0
 800313a:	f8c6 3800 	str.w	r3, [r6, #2048]	; 0x800
 800313e:	f504 7271 	add.w	r2, r4, #964	; 0x3c4
 8003142:	f002 fb49 	bl	80057d8 <USB_EP0_OutStart>
 8003146:	6822      	ldr	r2, [r4, #0]
 8003148:	6953      	ldr	r3, [r2, #20]
 800314a:	f403 5380 	and.w	r3, r3, #4096	; 0x1000
 800314e:	6153      	str	r3, [r2, #20]
 8003150:	6820      	ldr	r0, [r4, #0]
 8003152:	f002 fafd 	bl	8005750 <USB_ReadInterrupts>
 8003156:	0487      	lsls	r7, r0, #18
 8003158:	d516      	bpl.n	8003188 <HAL_PCD_IRQHandler+0x208>
 800315a:	6820      	ldr	r0, [r4, #0]
 800315c:	f002 fb2b 	bl	80057b6 <USB_ActivateSetup>
 8003160:	6820      	ldr	r0, [r4, #0]
 8003162:	f002 f84b 	bl	80051fc <USB_GetDevSpeed>
 8003166:	60e0      	str	r0, [r4, #12]
 8003168:	6825      	ldr	r5, [r4, #0]
 800316a:	f000 fc1b 	bl	80039a4 <HAL_RCC_GetHCLKFreq>
 800316e:	7b22      	ldrb	r2, [r4, #12]
 8003170:	4601      	mov	r1, r0
 8003172:	4628      	mov	r0, r5
 8003174:	f001 fece 	bl	8004f14 <USB_SetTurnaroundTime>
 8003178:	4620      	mov	r0, r4
 800317a:	f003 fa46 	bl	800660a <HAL_PCD_ResetCallback>
 800317e:	6822      	ldr	r2, [r4, #0]
 8003180:	6953      	ldr	r3, [r2, #20]
 8003182:	f403 5300 	and.w	r3, r3, #8192	; 0x2000
 8003186:	6153      	str	r3, [r2, #20]
 8003188:	6820      	ldr	r0, [r4, #0]
 800318a:	f002 fae1 	bl	8005750 <USB_ReadInterrupts>
 800318e:	0706      	lsls	r6, r0, #28
 8003190:	d507      	bpl.n	80031a2 <HAL_PCD_IRQHandler+0x222>
 8003192:	4620      	mov	r0, r4
 8003194:	f003 fa35 	bl	8006602 <HAL_PCD_SOFCallback>
 8003198:	6822      	ldr	r2, [r4, #0]
 800319a:	6953      	ldr	r3, [r2, #20]
 800319c:	f003 0308 	and.w	r3, r3, #8
 80031a0:	6153      	str	r3, [r2, #20]
 80031a2:	6820      	ldr	r0, [r4, #0]
 80031a4:	f002 fad4 	bl	8005750 <USB_ReadInterrupts>
 80031a8:	02c5      	lsls	r5, r0, #11
 80031aa:	d508      	bpl.n	80031be <HAL_PCD_IRQHandler+0x23e>
 80031ac:	2100      	movs	r1, #0
 80031ae:	4620      	mov	r0, r4
 80031b0:	f003 fa5e 	bl	8006670 <HAL_PCD_ISOINIncompleteCallback>
 80031b4:	6822      	ldr	r2, [r4, #0]
 80031b6:	6953      	ldr	r3, [r2, #20]
 80031b8:	f403 1380 	and.w	r3, r3, #1048576	; 0x100000
 80031bc:	6153      	str	r3, [r2, #20]
 80031be:	6820      	ldr	r0, [r4, #0]
 80031c0:	f002 fac6 	bl	8005750 <USB_ReadInterrupts>
 80031c4:	0280      	lsls	r0, r0, #10
 80031c6:	d508      	bpl.n	80031da <HAL_PCD_IRQHandler+0x25a>
 80031c8:	2100      	movs	r1, #0
 80031ca:	4620      	mov	r0, r4
 80031cc:	f003 fa4c 	bl	8006668 <HAL_PCD_ISOOUTIncompleteCallback>
 80031d0:	6822      	ldr	r2, [r4, #0]
 80031d2:	6953      	ldr	r3, [r2, #20]
 80031d4:	f403 1300 	and.w	r3, r3, #2097152	; 0x200000
 80031d8:	6153      	str	r3, [r2, #20]
 80031da:	6820      	ldr	r0, [r4, #0]
 80031dc:	f002 fab8 	bl	8005750 <USB_ReadInterrupts>
 80031e0:	0041      	lsls	r1, r0, #1
 80031e2:	d507      	bpl.n	80031f4 <HAL_PCD_IRQHandler+0x274>
 80031e4:	4620      	mov	r0, r4
 80031e6:	f003 fa47 	bl	8006678 <HAL_PCD_ConnectCallback>
 80031ea:	6822      	ldr	r2, [r4, #0]
 80031ec:	6953      	ldr	r3, [r2, #20]
 80031ee:	f003 4380 	and.w	r3, r3, #1073741824	; 0x40000000
 80031f2:	6153      	str	r3, [r2, #20]
 80031f4:	6820      	ldr	r0, [r4, #0]
 80031f6:	f002 faab 	bl	8005750 <USB_ReadInterrupts>
 80031fa:	0742      	lsls	r2, r0, #29
 80031fc:	d50a      	bpl.n	8003214 <HAL_PCD_IRQHandler+0x294>
 80031fe:	6823      	ldr	r3, [r4, #0]
 8003200:	685d      	ldr	r5, [r3, #4]
 8003202:	076b      	lsls	r3, r5, #29
 8003204:	d502      	bpl.n	800320c <HAL_PCD_IRQHandler+0x28c>
 8003206:	4620      	mov	r0, r4
 8003208:	f003 fa3a 	bl	8006680 <HAL_PCD_DisconnectCallback>
 800320c:	6822      	ldr	r2, [r4, #0]
 800320e:	6853      	ldr	r3, [r2, #4]
 8003210:	432b      	orrs	r3, r5
 8003212:	6053      	str	r3, [r2, #4]
 8003214:	b007      	add	sp, #28
 8003216:	e8bd 8ff0 	ldmia.w	sp!, {r4, r5, r6, r7, r8, r9, sl, fp, pc}
 800321a:	2b06      	cmp	r3, #6
 800321c:	f47f aef8 	bne.w	8003010 <HAL_PCD_IRQHandler+0x90>
 8003220:	2208      	movs	r2, #8
 8003222:	f504 7171 	add.w	r1, r4, #964	; 0x3c4
 8003226:	4630      	mov	r0, r6
 8003228:	f002 fa04 	bl	8005634 <USB_ReadPacket>
 800322c:	231c      	movs	r3, #28
 800322e:	fb03 4505 	mla	r5, r3, r5, r4
 8003232:	f3c7 170a 	ubfx	r7, r7, #4, #11
 8003236:	f8d5 3214 	ldr.w	r3, [r5, #532]	; 0x214
 800323a:	441f      	add	r7, r3
 800323c:	f8c5 7214 	str.w	r7, [r5, #532]	; 0x214
 8003240:	e6e6      	b.n	8003010 <HAL_PCD_IRQHandler+0x90>
 8003242:	6820      	ldr	r0, [r4, #0]
 8003244:	f8df b2d0 	ldr.w	fp, [pc, #720]	; 8003518 <HAL_PCD_IRQHandler+0x598>
 8003248:	f002 fa86 	bl	8005758 <USB_ReadDevAllOutEpInterrupt>
 800324c:	f506 6730 	add.w	r7, r6, #2816	; 0xb00
 8003250:	9003      	str	r0, [sp, #12]
 8003252:	f504 7a01 	add.w	sl, r4, #516	; 0x204
 8003256:	2500      	movs	r5, #0
 8003258:	9b03      	ldr	r3, [sp, #12]
 800325a:	2b00      	cmp	r3, #0
 800325c:	f43f aee3 	beq.w	8003026 <HAL_PCD_IRQHandler+0xa6>
 8003260:	9b03      	ldr	r3, [sp, #12]
 8003262:	07d8      	lsls	r0, r3, #31
 8003264:	d556      	bpl.n	8003314 <HAL_PCD_IRQHandler+0x394>
 8003266:	fa5f f985 	uxtb.w	r9, r5
 800326a:	6820      	ldr	r0, [r4, #0]
 800326c:	4649      	mov	r1, r9
 800326e:	f002 fa83 	bl	8005778 <USB_ReadDevOutEPInterrupt>
 8003272:	f010 0f01 	tst.w	r0, #1
 8003276:	4680      	mov	r8, r0
 8003278:	d01a      	beq.n	80032b0 <HAL_PCD_IRQHandler+0x330>
 800327a:	6820      	ldr	r0, [r4, #0]
 800327c:	6921      	ldr	r1, [r4, #16]
 800327e:	f500 6c30 	add.w	ip, r0, #2816	; 0xb00
 8003282:	2201      	movs	r2, #1
 8003284:	eb0c 1c45 	add.w	ip, ip, r5, lsl #5
 8003288:	60ba      	str	r2, [r7, #8]
 800328a:	2901      	cmp	r1, #1
 800328c:	6c03      	ldr	r3, [r0, #64]	; 0x40
 800328e:	f8dc 2008 	ldr.w	r2, [ip, #8]
 8003292:	d166      	bne.n	8003362 <HAL_PCD_IRQHandler+0x3e2>
 8003294:	0711      	lsls	r1, r2, #28
 8003296:	d506      	bpl.n	80032a6 <HAL_PCD_IRQHandler+0x326>
 8003298:	455b      	cmp	r3, fp
 800329a:	d909      	bls.n	80032b0 <HAL_PCD_IRQHandler+0x330>
 800329c:	0410      	lsls	r0, r2, #16
 800329e:	d507      	bpl.n	80032b0 <HAL_PCD_IRQHandler+0x330>
 80032a0:	f44f 4300 	mov.w	r3, #32768	; 0x8000
 80032a4:	e002      	b.n	80032ac <HAL_PCD_IRQHandler+0x32c>
 80032a6:	0691      	lsls	r1, r2, #26
 80032a8:	d53c      	bpl.n	8003324 <HAL_PCD_IRQHandler+0x3a4>
 80032aa:	2320      	movs	r3, #32
 80032ac:	f8cc 3008 	str.w	r3, [ip, #8]
 80032b0:	f018 0f08 	tst.w	r8, #8
 80032b4:	d01e      	beq.n	80032f4 <HAL_PCD_IRQHandler+0x374>
 80032b6:	6823      	ldr	r3, [r4, #0]
 80032b8:	2208      	movs	r2, #8
 80032ba:	60ba      	str	r2, [r7, #8]
 80032bc:	6c1a      	ldr	r2, [r3, #64]	; 0x40
 80032be:	f503 6330 	add.w	r3, r3, #2816	; 0xb00
 80032c2:	eb03 1345 	add.w	r3, r3, r5, lsl #5
 80032c6:	455a      	cmp	r2, fp
 80032c8:	6899      	ldr	r1, [r3, #8]
 80032ca:	d904      	bls.n	80032d6 <HAL_PCD_IRQHandler+0x356>
 80032cc:	0409      	lsls	r1, r1, #16
 80032ce:	bf44      	itt	mi
 80032d0:	f44f 4100 	movmi.w	r1, #32768	; 0x8000
 80032d4:	6099      	strmi	r1, [r3, #8]
 80032d6:	4620      	mov	r0, r4
 80032d8:	9204      	str	r2, [sp, #16]
 80032da:	f003 f97b 	bl	80065d4 <HAL_PCD_SetupStageCallback>
 80032de:	9a04      	ldr	r2, [sp, #16]
 80032e0:	455a      	cmp	r2, fp
 80032e2:	d907      	bls.n	80032f4 <HAL_PCD_IRQHandler+0x374>
 80032e4:	6921      	ldr	r1, [r4, #16]
 80032e6:	2901      	cmp	r1, #1
 80032e8:	d104      	bne.n	80032f4 <HAL_PCD_IRQHandler+0x374>
 80032ea:	6820      	ldr	r0, [r4, #0]
 80032ec:	f504 7271 	add.w	r2, r4, #964	; 0x3c4
 80032f0:	f002 fa72 	bl	80057d8 <USB_EP0_OutStart>
 80032f4:	f018 0f10 	tst.w	r8, #16
 80032f8:	bf1c      	itt	ne
 80032fa:	2310      	movne	r3, #16
 80032fc:	60bb      	strne	r3, [r7, #8]
 80032fe:	f018 0f20 	tst.w	r8, #32
 8003302:	bf1c      	itt	ne
 8003304:	2320      	movne	r3, #32
 8003306:	60bb      	strne	r3, [r7, #8]
 8003308:	f418 5f00 	tst.w	r8, #8192	; 0x2000
 800330c:	bf1c      	itt	ne
 800330e:	f44f 5300 	movne.w	r3, #8192	; 0x2000
 8003312:	60bb      	strne	r3, [r7, #8]
 8003314:	9b03      	ldr	r3, [sp, #12]
 8003316:	085b      	lsrs	r3, r3, #1
 8003318:	3501      	adds	r5, #1
 800331a:	9303      	str	r3, [sp, #12]
 800331c:	3720      	adds	r7, #32
 800331e:	f10a 0a1c 	add.w	sl, sl, #28
 8003322:	e799      	b.n	8003258 <HAL_PCD_IRQHandler+0x2d8>
 8003324:	f012 0f28 	tst.w	r2, #40	; 0x28
 8003328:	d1c2      	bne.n	80032b0 <HAL_PCD_IRQHandler+0x330>
 800332a:	455b      	cmp	r3, fp
 800332c:	d901      	bls.n	8003332 <HAL_PCD_IRQHandler+0x3b2>
 800332e:	0412      	lsls	r2, r2, #16
 8003330:	d4b6      	bmi.n	80032a0 <HAL_PCD_IRQHandler+0x320>
 8003332:	f8dc 2010 	ldr.w	r2, [ip, #16]
 8003336:	f8da 1000 	ldr.w	r1, [sl]
 800333a:	f3c2 0212 	ubfx	r2, r2, #0, #19
 800333e:	1a8a      	subs	r2, r1, r2
 8003340:	f8ca 2010 	str.w	r2, [sl, #16]
 8003344:	f8da 2004 	ldr.w	r2, [sl, #4]
 8003348:	4411      	add	r1, r2
 800334a:	f8ca 1004 	str.w	r1, [sl, #4]
 800334e:	b995      	cbnz	r5, 8003376 <HAL_PCD_IRQHandler+0x3f6>
 8003350:	f8d4 2210 	ldr.w	r2, [r4, #528]	; 0x210
 8003354:	b97a      	cbnz	r2, 8003376 <HAL_PCD_IRQHandler+0x3f6>
 8003356:	f504 7271 	add.w	r2, r4, #964	; 0x3c4
 800335a:	2101      	movs	r1, #1
 800335c:	f002 fa3c 	bl	80057d8 <USB_EP0_OutStart>
 8003360:	e009      	b.n	8003376 <HAL_PCD_IRQHandler+0x3f6>
 8003362:	496c      	ldr	r1, [pc, #432]	; (8003514 <HAL_PCD_IRQHandler+0x594>)
 8003364:	428b      	cmp	r3, r1
 8003366:	d10b      	bne.n	8003380 <HAL_PCD_IRQHandler+0x400>
 8003368:	0413      	lsls	r3, r2, #16
 800336a:	d499      	bmi.n	80032a0 <HAL_PCD_IRQHandler+0x320>
 800336c:	0690      	lsls	r0, r2, #26
 800336e:	d502      	bpl.n	8003376 <HAL_PCD_IRQHandler+0x3f6>
 8003370:	2220      	movs	r2, #32
 8003372:	f8cc 2008 	str.w	r2, [ip, #8]
 8003376:	4649      	mov	r1, r9
 8003378:	4620      	mov	r0, r4
 800337a:	f003 f931 	bl	80065e0 <HAL_PCD_DataOutStageCallback>
 800337e:	e797      	b.n	80032b0 <HAL_PCD_IRQHandler+0x330>
 8003380:	2d00      	cmp	r5, #0
 8003382:	d1f8      	bne.n	8003376 <HAL_PCD_IRQHandler+0x3f6>
 8003384:	f8d4 2210 	ldr.w	r2, [r4, #528]	; 0x210
 8003388:	2a00      	cmp	r2, #0
 800338a:	d1f4      	bne.n	8003376 <HAL_PCD_IRQHandler+0x3f6>
 800338c:	f504 7271 	add.w	r2, r4, #964	; 0x3c4
 8003390:	4629      	mov	r1, r5
 8003392:	e7e3      	b.n	800335c <HAL_PCD_IRQHandler+0x3dc>
 8003394:	9b03      	ldr	r3, [sp, #12]
 8003396:	07da      	lsls	r2, r3, #31
 8003398:	f140 8084 	bpl.w	80034a4 <HAL_PCD_IRQHandler+0x524>
 800339c:	fa5f fb88 	uxtb.w	fp, r8
 80033a0:	6820      	ldr	r0, [r4, #0]
 80033a2:	4659      	mov	r1, fp
 80033a4:	f002 f9f1 	bl	800578a <USB_ReadDevInEPInterrupt>
 80033a8:	07c3      	lsls	r3, r0, #31
 80033aa:	4607      	mov	r7, r0
 80033ac:	d521      	bpl.n	80033f2 <HAL_PCD_IRQHandler+0x472>
 80033ae:	f8d6 3834 	ldr.w	r3, [r6, #2100]	; 0x834
 80033b2:	6921      	ldr	r1, [r4, #16]
 80033b4:	2001      	movs	r0, #1
 80033b6:	f008 020f 	and.w	r2, r8, #15
 80033ba:	fa00 f202 	lsl.w	r2, r0, r2
 80033be:	ea23 0302 	bic.w	r3, r3, r2
 80033c2:	4281      	cmp	r1, r0
 80033c4:	f8c6 3834 	str.w	r3, [r6, #2100]	; 0x834
 80033c8:	f8c9 0008 	str.w	r0, [r9, #8]
 80033cc:	d10d      	bne.n	80033ea <HAL_PCD_IRQHandler+0x46a>
 80033ce:	e9d5 2311 	ldrd	r2, r3, [r5, #68]	; 0x44
 80033d2:	4413      	add	r3, r2
 80033d4:	64ab      	str	r3, [r5, #72]	; 0x48
 80033d6:	f1b8 0f00 	cmp.w	r8, #0
 80033da:	d106      	bne.n	80033ea <HAL_PCD_IRQHandler+0x46a>
 80033dc:	6d23      	ldr	r3, [r4, #80]	; 0x50
 80033de:	b923      	cbnz	r3, 80033ea <HAL_PCD_IRQHandler+0x46a>
 80033e0:	6820      	ldr	r0, [r4, #0]
 80033e2:	f504 7271 	add.w	r2, r4, #964	; 0x3c4
 80033e6:	f002 f9f7 	bl	80057d8 <USB_EP0_OutStart>
 80033ea:	4659      	mov	r1, fp
 80033ec:	4620      	mov	r0, r4
 80033ee:	f003 f900 	bl	80065f2 <HAL_PCD_DataInStageCallback>
 80033f2:	0738      	lsls	r0, r7, #28
 80033f4:	bf44      	itt	mi
 80033f6:	2308      	movmi	r3, #8
 80033f8:	f8c9 3008 	strmi.w	r3, [r9, #8]
 80033fc:	06f9      	lsls	r1, r7, #27
 80033fe:	bf44      	itt	mi
 8003400:	2310      	movmi	r3, #16
 8003402:	f8c9 3008 	strmi.w	r3, [r9, #8]
 8003406:	067a      	lsls	r2, r7, #25
 8003408:	bf44      	itt	mi
 800340a:	2340      	movmi	r3, #64	; 0x40
 800340c:	f8c9 3008 	strmi.w	r3, [r9, #8]
 8003410:	07bb      	lsls	r3, r7, #30
 8003412:	bf44      	itt	mi
 8003414:	2302      	movmi	r3, #2
 8003416:	f8c9 3008 	strmi.w	r3, [r9, #8]
 800341a:	063f      	lsls	r7, r7, #24
 800341c:	d542      	bpl.n	80034a4 <HAL_PCD_IRQHandler+0x524>
 800341e:	e9d5 3214 	ldrd	r3, r2, [r5, #80]	; 0x50
 8003422:	429a      	cmp	r2, r3
 8003424:	d83e      	bhi.n	80034a4 <HAL_PCD_IRQHandler+0x524>
 8003426:	1a9b      	subs	r3, r3, r2
 8003428:	6c6a      	ldr	r2, [r5, #68]	; 0x44
 800342a:	f8d4 a000 	ldr.w	sl, [r4]
 800342e:	4293      	cmp	r3, r2
 8003430:	bf28      	it	cs
 8003432:	4613      	movcs	r3, r2
 8003434:	3303      	adds	r3, #3
 8003436:	089b      	lsrs	r3, r3, #2
 8003438:	9304      	str	r3, [sp, #16]
 800343a:	f50a 6310 	add.w	r3, sl, #2304	; 0x900
 800343e:	eb03 1348 	add.w	r3, r3, r8, lsl #5
 8003442:	9305      	str	r3, [sp, #20]
 8003444:	9b05      	ldr	r3, [sp, #20]
 8003446:	9904      	ldr	r1, [sp, #16]
 8003448:	699a      	ldr	r2, [r3, #24]
 800344a:	b292      	uxth	r2, r2
 800344c:	428a      	cmp	r2, r1
 800344e:	e9d5 7314 	ldrd	r7, r3, [r5, #80]	; 0x50
 8003452:	d325      	bcc.n	80034a0 <HAL_PCD_IRQHandler+0x520>
 8003454:	429f      	cmp	r7, r3
 8003456:	d900      	bls.n	800345a <HAL_PCD_IRQHandler+0x4da>
 8003458:	b95f      	cbnz	r7, 8003472 <HAL_PCD_IRQHandler+0x4f2>
 800345a:	f8da 3834 	ldr.w	r3, [sl, #2100]	; 0x834
 800345e:	f008 020f 	and.w	r2, r8, #15
 8003462:	2101      	movs	r1, #1
 8003464:	fa01 f202 	lsl.w	r2, r1, r2
 8003468:	ea23 0302 	bic.w	r3, r3, r2
 800346c:	f8ca 3834 	str.w	r3, [sl, #2100]	; 0x834
 8003470:	e018      	b.n	80034a4 <HAL_PCD_IRQHandler+0x524>
 8003472:	1aff      	subs	r7, r7, r3
 8003474:	6c6b      	ldr	r3, [r5, #68]	; 0x44
 8003476:	429f      	cmp	r7, r3
 8003478:	bf28      	it	cs
 800347a:	461f      	movcs	r7, r3
 800347c:	1cfb      	adds	r3, r7, #3
 800347e:	089b      	lsrs	r3, r3, #2
 8003480:	9304      	str	r3, [sp, #16]
 8003482:	7c23      	ldrb	r3, [r4, #16]
 8003484:	9300      	str	r3, [sp, #0]
 8003486:	6ca9      	ldr	r1, [r5, #72]	; 0x48
 8003488:	b2bb      	uxth	r3, r7
 800348a:	465a      	mov	r2, fp
 800348c:	4650      	mov	r0, sl
 800348e:	f001 ffcf 	bl	8005430 <USB_WritePacket>
 8003492:	6cab      	ldr	r3, [r5, #72]	; 0x48
 8003494:	443b      	add	r3, r7
 8003496:	64ab      	str	r3, [r5, #72]	; 0x48
 8003498:	6d6b      	ldr	r3, [r5, #84]	; 0x54
 800349a:	441f      	add	r7, r3
 800349c:	656f      	str	r7, [r5, #84]	; 0x54
 800349e:	e7d1      	b.n	8003444 <HAL_PCD_IRQHandler+0x4c4>
 80034a0:	429f      	cmp	r7, r3
 80034a2:	d9da      	bls.n	800345a <HAL_PCD_IRQHandler+0x4da>
 80034a4:	9b03      	ldr	r3, [sp, #12]
 80034a6:	085b      	lsrs	r3, r3, #1
 80034a8:	f108 0801 	add.w	r8, r8, #1
 80034ac:	9303      	str	r3, [sp, #12]
 80034ae:	351c      	adds	r5, #28
 80034b0:	f109 0920 	add.w	r9, r9, #32
 80034b4:	e5c5      	b.n	8003042 <HAL_PCD_IRQHandler+0xc2>
 80034b6:	4620      	mov	r0, r4
 80034b8:	f003 f8d2 	bl	8006660 <HAL_PCD_ResumeCallback>
 80034bc:	e5db      	b.n	8003076 <HAL_PCD_IRQHandler+0xf6>
 80034be:	4620      	mov	r0, r4
 80034c0:	f003 f8b6 	bl	8006630 <HAL_PCD_SuspendCallback>
 80034c4:	e607      	b.n	80030d6 <HAL_PCD_IRQHandler+0x156>
 80034c6:	6099      	str	r1, [r3, #8]
 80034c8:	681a      	ldr	r2, [r3, #0]
 80034ca:	f422 1200 	bic.w	r2, r2, #2097152	; 0x200000
 80034ce:	601a      	str	r2, [r3, #0]
 80034d0:	681a      	ldr	r2, [r3, #0]
 80034d2:	f042 6200 	orr.w	r2, r2, #134217728	; 0x8000000
 80034d6:	601a      	str	r2, [r3, #0]
 80034d8:	f8c3 1208 	str.w	r1, [r3, #520]	; 0x208
 80034dc:	f8d3 2200 	ldr.w	r2, [r3, #512]	; 0x200
 80034e0:	f422 1200 	bic.w	r2, r2, #2097152	; 0x200000
 80034e4:	f8c3 2200 	str.w	r2, [r3, #512]	; 0x200
 80034e8:	f8d3 2200 	ldr.w	r2, [r3, #512]	; 0x200
 80034ec:	f042 6200 	orr.w	r2, r2, #134217728	; 0x8000000
 80034f0:	f8c3 2200 	str.w	r2, [r3, #512]	; 0x200
 80034f4:	9a02      	ldr	r2, [sp, #8]
 80034f6:	3201      	adds	r2, #1
 80034f8:	9202      	str	r2, [sp, #8]
 80034fa:	3320      	adds	r3, #32
 80034fc:	e600      	b.n	8003100 <HAL_PCD_IRQHandler+0x180>
 80034fe:	696b      	ldr	r3, [r5, #20]
 8003500:	f443 5300 	orr.w	r3, r3, #8192	; 0x2000
 8003504:	f043 032b 	orr.w	r3, r3, #43	; 0x2b
 8003508:	616b      	str	r3, [r5, #20]
 800350a:	692b      	ldr	r3, [r5, #16]
 800350c:	f043 030b 	orr.w	r3, r3, #11
 8003510:	612b      	str	r3, [r5, #16]
 8003512:	e60c      	b.n	800312e <HAL_PCD_IRQHandler+0x1ae>
 8003514:	4f54310a 	.word	0x4f54310a
 8003518:	4f54300a 	.word	0x4f54300a

0800351c <HAL_PCD_SetAddress>:
 800351c:	b510      	push	{r4, lr}
 800351e:	f890 23bc 	ldrb.w	r2, [r0, #956]	; 0x3bc
 8003522:	2a01      	cmp	r2, #1
 8003524:	4604      	mov	r4, r0
 8003526:	d00b      	beq.n	8003540 <HAL_PCD_SetAddress+0x24>
 8003528:	2201      	movs	r2, #1
 800352a:	f880 23bc 	strb.w	r2, [r0, #956]	; 0x3bc
 800352e:	f880 1038 	strb.w	r1, [r0, #56]	; 0x38
 8003532:	6800      	ldr	r0, [r0, #0]
 8003534:	f002 f8e0 	bl	80056f8 <USB_SetDevAddress>
 8003538:	2000      	movs	r0, #0
 800353a:	f884 03bc 	strb.w	r0, [r4, #956]	; 0x3bc
 800353e:	bd10      	pop	{r4, pc}
 8003540:	2002      	movs	r0, #2
 8003542:	e7fc      	b.n	800353e <HAL_PCD_SetAddress+0x22>

08003544 <HAL_PCD_EP_Open>:
 8003544:	b570      	push	{r4, r5, r6, lr}
 8003546:	f001 060f 	and.w	r6, r1, #15
 800354a:	ebc6 04c6 	rsb	r4, r6, r6, lsl #3
 800354e:	f011 0f80 	tst.w	r1, #128	; 0x80
 8003552:	4605      	mov	r5, r0
 8003554:	ea4f 0484 	mov.w	r4, r4, lsl #2
 8003558:	f04f 001c 	mov.w	r0, #28
 800355c:	d01f      	beq.n	800359e <HAL_PCD_EP_Open+0x5a>
 800355e:	fb00 5006 	mla	r0, r0, r6, r5
 8003562:	f104 013c 	add.w	r1, r4, #60	; 0x3c
 8003566:	2401      	movs	r4, #1
 8003568:	4429      	add	r1, r5
 800356a:	f880 403d 	strb.w	r4, [r0, #61]	; 0x3d
 800356e:	608a      	str	r2, [r1, #8]
 8003570:	784a      	ldrb	r2, [r1, #1]
 8003572:	700e      	strb	r6, [r1, #0]
 8003574:	70cb      	strb	r3, [r1, #3]
 8003576:	b102      	cbz	r2, 800357a <HAL_PCD_EP_Open+0x36>
 8003578:	80ce      	strh	r6, [r1, #6]
 800357a:	2b02      	cmp	r3, #2
 800357c:	bf04      	itt	eq
 800357e:	2300      	moveq	r3, #0
 8003580:	710b      	strbeq	r3, [r1, #4]
 8003582:	f895 33bc 	ldrb.w	r3, [r5, #956]	; 0x3bc
 8003586:	2b01      	cmp	r3, #1
 8003588:	d012      	beq.n	80035b0 <HAL_PCD_EP_Open+0x6c>
 800358a:	2301      	movs	r3, #1
 800358c:	6828      	ldr	r0, [r5, #0]
 800358e:	f885 33bc 	strb.w	r3, [r5, #956]	; 0x3bc
 8003592:	f001 fe3e 	bl	8005212 <USB_ActivateEndpoint>
 8003596:	2000      	movs	r0, #0
 8003598:	f885 03bc 	strb.w	r0, [r5, #956]	; 0x3bc
 800359c:	bd70      	pop	{r4, r5, r6, pc}
 800359e:	fb00 5006 	mla	r0, r0, r6, r5
 80035a2:	f504 71fe 	add.w	r1, r4, #508	; 0x1fc
 80035a6:	2400      	movs	r4, #0
 80035a8:	4429      	add	r1, r5
 80035aa:	f880 41fd 	strb.w	r4, [r0, #509]	; 0x1fd
 80035ae:	e7de      	b.n	800356e <HAL_PCD_EP_Open+0x2a>
 80035b0:	2002      	movs	r0, #2
 80035b2:	e7f3      	b.n	800359c <HAL_PCD_EP_Open+0x58>

080035b4 <HAL_PCD_EP_Close>:
 80035b4:	b510      	push	{r4, lr}
 80035b6:	4604      	mov	r4, r0
 80035b8:	f001 000f 	and.w	r0, r1, #15
 80035bc:	ebc0 03c0 	rsb	r3, r0, r0, lsl #3
 80035c0:	f011 0f80 	tst.w	r1, #128	; 0x80
 80035c4:	ea4f 0383 	mov.w	r3, r3, lsl #2
 80035c8:	f04f 021c 	mov.w	r2, #28
 80035cc:	d016      	beq.n	80035fc <HAL_PCD_EP_Close+0x48>
 80035ce:	fb02 4200 	mla	r2, r2, r0, r4
 80035d2:	f103 013c 	add.w	r1, r3, #60	; 0x3c
 80035d6:	2301      	movs	r3, #1
 80035d8:	4421      	add	r1, r4
 80035da:	f882 303d 	strb.w	r3, [r2, #61]	; 0x3d
 80035de:	7008      	strb	r0, [r1, #0]
 80035e0:	f894 33bc 	ldrb.w	r3, [r4, #956]	; 0x3bc
 80035e4:	2b01      	cmp	r3, #1
 80035e6:	d012      	beq.n	800360e <HAL_PCD_EP_Close+0x5a>
 80035e8:	2301      	movs	r3, #1
 80035ea:	6820      	ldr	r0, [r4, #0]
 80035ec:	f884 33bc 	strb.w	r3, [r4, #956]	; 0x3bc
 80035f0:	f001 fe4e 	bl	8005290 <USB_DeactivateEndpoint>
 80035f4:	2000      	movs	r0, #0
 80035f6:	f884 03bc 	strb.w	r0, [r4, #956]	; 0x3bc
 80035fa:	bd10      	pop	{r4, pc}
 80035fc:	fb02 4200 	mla	r2, r2, r0, r4
 8003600:	f503 71fe 	add.w	r1, r3, #508	; 0x1fc
 8003604:	2300      	movs	r3, #0
 8003606:	4421      	add	r1, r4
 8003608:	f882 31fd 	strb.w	r3, [r2, #509]	; 0x1fd
 800360c:	e7e7      	b.n	80035de <HAL_PCD_EP_Close+0x2a>
 800360e:	2002      	movs	r0, #2
 8003610:	e7f3      	b.n	80035fa <HAL_PCD_EP_Close+0x46>

08003612 <HAL_PCD_EP_Receive>:
 8003612:	b538      	push	{r3, r4, r5, lr}
 8003614:	f001 050f 	and.w	r5, r1, #15
 8003618:	241c      	movs	r4, #28
 800361a:	fb04 0105 	mla	r1, r4, r5, r0
 800361e:	fb04 0405 	mla	r4, r4, r5, r0
 8003622:	f501 71fe 	add.w	r1, r1, #508	; 0x1fc
 8003626:	f8c4 3210 	str.w	r3, [r4, #528]	; 0x210
 800362a:	2300      	movs	r3, #0
 800362c:	f8c4 2208 	str.w	r2, [r4, #520]	; 0x208
 8003630:	f8c4 3214 	str.w	r3, [r4, #532]	; 0x214
 8003634:	f884 31fd 	strb.w	r3, [r4, #509]	; 0x1fd
 8003638:	f884 51fc 	strb.w	r5, [r4, #508]	; 0x1fc
 800363c:	6903      	ldr	r3, [r0, #16]
 800363e:	6800      	ldr	r0, [r0, #0]
 8003640:	2b01      	cmp	r3, #1
 8003642:	bf08      	it	eq
 8003644:	f8c4 220c 	streq.w	r2, [r4, #524]	; 0x20c
 8003648:	b2da      	uxtb	r2, r3
 800364a:	b91d      	cbnz	r5, 8003654 <HAL_PCD_EP_Receive+0x42>
 800364c:	f001 fe76 	bl	800533c <USB_EP0StartXfer>
 8003650:	2000      	movs	r0, #0
 8003652:	bd38      	pop	{r3, r4, r5, pc}
 8003654:	f001 ff00 	bl	8005458 <USB_EPStartXfer>
 8003658:	e7fa      	b.n	8003650 <HAL_PCD_EP_Receive+0x3e>

0800365a <HAL_PCD_EP_GetRxCount>:
 800365a:	f001 010f 	and.w	r1, r1, #15
 800365e:	231c      	movs	r3, #28
 8003660:	fb03 0001 	mla	r0, r3, r1, r0
 8003664:	f8d0 0214 	ldr.w	r0, [r0, #532]	; 0x214
 8003668:	4770      	bx	lr

0800366a <HAL_PCD_EP_Transmit>:
 800366a:	b538      	push	{r3, r4, r5, lr}
 800366c:	f001 050f 	and.w	r5, r1, #15
 8003670:	241c      	movs	r4, #28
 8003672:	fb04 0105 	mla	r1, r4, r5, r0
 8003676:	fb04 0405 	mla	r4, r4, r5, r0
 800367a:	313c      	adds	r1, #60	; 0x3c
 800367c:	6523      	str	r3, [r4, #80]	; 0x50
 800367e:	2300      	movs	r3, #0
 8003680:	6563      	str	r3, [r4, #84]	; 0x54
 8003682:	2301      	movs	r3, #1
 8003684:	64a2      	str	r2, [r4, #72]	; 0x48
 8003686:	f884 303d 	strb.w	r3, [r4, #61]	; 0x3d
 800368a:	f884 503c 	strb.w	r5, [r4, #60]	; 0x3c
 800368e:	6903      	ldr	r3, [r0, #16]
 8003690:	6800      	ldr	r0, [r0, #0]
 8003692:	2b01      	cmp	r3, #1
 8003694:	bf08      	it	eq
 8003696:	64e2      	streq	r2, [r4, #76]	; 0x4c
 8003698:	b2da      	uxtb	r2, r3
 800369a:	b91d      	cbnz	r5, 80036a4 <HAL_PCD_EP_Transmit+0x3a>
 800369c:	f001 fe4e 	bl	800533c <USB_EP0StartXfer>
 80036a0:	2000      	movs	r0, #0
 80036a2:	bd38      	pop	{r3, r4, r5, pc}
 80036a4:	f001 fed8 	bl	8005458 <USB_EPStartXfer>
 80036a8:	e7fa      	b.n	80036a0 <HAL_PCD_EP_Transmit+0x36>

080036aa <HAL_PCD_EP_SetStall>:
 80036aa:	b538      	push	{r3, r4, r5, lr}
 80036ac:	6843      	ldr	r3, [r0, #4]
 80036ae:	f001 050f 	and.w	r5, r1, #15
 80036b2:	429d      	cmp	r5, r3
 80036b4:	4604      	mov	r4, r0
 80036b6:	d82c      	bhi.n	8003712 <HAL_PCD_EP_SetStall+0x68>
 80036b8:	f011 0f80 	tst.w	r1, #128	; 0x80
 80036bc:	f04f 001c 	mov.w	r0, #28
 80036c0:	d01e      	beq.n	8003700 <HAL_PCD_EP_SetStall+0x56>
 80036c2:	fb00 4205 	mla	r2, r0, r5, r4
 80036c6:	fb00 4105 	mla	r1, r0, r5, r4
 80036ca:	2301      	movs	r3, #1
 80036cc:	313c      	adds	r1, #60	; 0x3c
 80036ce:	f882 303d 	strb.w	r3, [r2, #61]	; 0x3d
 80036d2:	2301      	movs	r3, #1
 80036d4:	708b      	strb	r3, [r1, #2]
 80036d6:	700d      	strb	r5, [r1, #0]
 80036d8:	f894 23bc 	ldrb.w	r2, [r4, #956]	; 0x3bc
 80036dc:	429a      	cmp	r2, r3
 80036de:	d01a      	beq.n	8003716 <HAL_PCD_EP_SetStall+0x6c>
 80036e0:	6820      	ldr	r0, [r4, #0]
 80036e2:	f884 33bc 	strb.w	r3, [r4, #956]	; 0x3bc
 80036e6:	f001 ffb3 	bl	8005650 <USB_EPSetStall>
 80036ea:	b92d      	cbnz	r5, 80036f8 <HAL_PCD_EP_SetStall+0x4e>
 80036ec:	7c21      	ldrb	r1, [r4, #16]
 80036ee:	6820      	ldr	r0, [r4, #0]
 80036f0:	f504 7271 	add.w	r2, r4, #964	; 0x3c4
 80036f4:	f002 f870 	bl	80057d8 <USB_EP0_OutStart>
 80036f8:	2000      	movs	r0, #0
 80036fa:	f884 03bc 	strb.w	r0, [r4, #956]	; 0x3bc
 80036fe:	bd38      	pop	{r3, r4, r5, pc}
 8003700:	fb00 4301 	mla	r3, r0, r1, r4
 8003704:	461a      	mov	r2, r3
 8003706:	f503 71fe 	add.w	r1, r3, #508	; 0x1fc
 800370a:	2300      	movs	r3, #0
 800370c:	f882 31fd 	strb.w	r3, [r2, #509]	; 0x1fd
 8003710:	e7df      	b.n	80036d2 <HAL_PCD_EP_SetStall+0x28>
 8003712:	2001      	movs	r0, #1
 8003714:	e7f3      	b.n	80036fe <HAL_PCD_EP_SetStall+0x54>
 8003716:	2002      	movs	r0, #2
 8003718:	e7f1      	b.n	80036fe <HAL_PCD_EP_SetStall+0x54>

0800371a <HAL_PCD_EP_ClrStall>:
 800371a:	b538      	push	{r3, r4, r5, lr}
 800371c:	6843      	ldr	r3, [r0, #4]
 800371e:	f001 020f 	and.w	r2, r1, #15
 8003722:	429a      	cmp	r2, r3
 8003724:	4604      	mov	r4, r0
 8003726:	d82a      	bhi.n	800377e <HAL_PCD_EP_ClrStall+0x64>
 8003728:	ebc2 03c2 	rsb	r3, r2, r2, lsl #3
 800372c:	f011 0f80 	tst.w	r1, #128	; 0x80
 8003730:	ea4f 0383 	mov.w	r3, r3, lsl #2
 8003734:	f04f 001c 	mov.w	r0, #28
 8003738:	d018      	beq.n	800376c <HAL_PCD_EP_ClrStall+0x52>
 800373a:	fb00 4002 	mla	r0, r0, r2, r4
 800373e:	f103 013c 	add.w	r1, r3, #60	; 0x3c
 8003742:	2301      	movs	r3, #1
 8003744:	4421      	add	r1, r4
 8003746:	f880 303d 	strb.w	r3, [r0, #61]	; 0x3d
 800374a:	2500      	movs	r5, #0
 800374c:	708d      	strb	r5, [r1, #2]
 800374e:	700a      	strb	r2, [r1, #0]
 8003750:	f894 33bc 	ldrb.w	r3, [r4, #956]	; 0x3bc
 8003754:	2b01      	cmp	r3, #1
 8003756:	d014      	beq.n	8003782 <HAL_PCD_EP_ClrStall+0x68>
 8003758:	2301      	movs	r3, #1
 800375a:	6820      	ldr	r0, [r4, #0]
 800375c:	f884 33bc 	strb.w	r3, [r4, #956]	; 0x3bc
 8003760:	f001 ffa1 	bl	80056a6 <USB_EPClearStall>
 8003764:	f884 53bc 	strb.w	r5, [r4, #956]	; 0x3bc
 8003768:	4628      	mov	r0, r5
 800376a:	bd38      	pop	{r3, r4, r5, pc}
 800376c:	fb00 4002 	mla	r0, r0, r2, r4
 8003770:	f503 71fe 	add.w	r1, r3, #508	; 0x1fc
 8003774:	2300      	movs	r3, #0
 8003776:	4421      	add	r1, r4
 8003778:	f880 31fd 	strb.w	r3, [r0, #509]	; 0x1fd
 800377c:	e7e5      	b.n	800374a <HAL_PCD_EP_ClrStall+0x30>
 800377e:	2001      	movs	r0, #1
 8003780:	e7f3      	b.n	800376a <HAL_PCD_EP_ClrStall+0x50>
 8003782:	2002      	movs	r0, #2
 8003784:	e7f1      	b.n	800376a <HAL_PCD_EP_ClrStall+0x50>

08003786 <HAL_PCDEx_SetTxFiFo>:
 8003786:	6800      	ldr	r0, [r0, #0]
 8003788:	b570      	push	{r4, r5, r6, lr}
 800378a:	0412      	lsls	r2, r2, #16
 800378c:	6a44      	ldr	r4, [r0, #36]	; 0x24
 800378e:	b919      	cbnz	r1, 8003798 <HAL_PCDEx_SetTxFiFo+0x12>
 8003790:	4322      	orrs	r2, r4
 8003792:	6282      	str	r2, [r0, #40]	; 0x28
 8003794:	2000      	movs	r0, #0
 8003796:	bd70      	pop	{r4, r5, r6, pc}
 8003798:	6a83      	ldr	r3, [r0, #40]	; 0x28
 800379a:	1e4d      	subs	r5, r1, #1
 800379c:	eb04 4413 	add.w	r4, r4, r3, lsr #16
 80037a0:	2300      	movs	r3, #0
 80037a2:	1c5e      	adds	r6, r3, #1
 80037a4:	b2db      	uxtb	r3, r3
 80037a6:	429d      	cmp	r5, r3
 80037a8:	d805      	bhi.n	80037b6 <HAL_PCDEx_SetTxFiFo+0x30>
 80037aa:	313f      	adds	r1, #63	; 0x3f
 80037ac:	eb00 0081 	add.w	r0, r0, r1, lsl #2
 80037b0:	4322      	orrs	r2, r4
 80037b2:	6042      	str	r2, [r0, #4]
 80037b4:	e7ee      	b.n	8003794 <HAL_PCDEx_SetTxFiFo+0xe>
 80037b6:	3340      	adds	r3, #64	; 0x40
 80037b8:	eb00 0383 	add.w	r3, r0, r3, lsl #2
 80037bc:	685b      	ldr	r3, [r3, #4]
 80037be:	eb04 4413 	add.w	r4, r4, r3, lsr #16
 80037c2:	4633      	mov	r3, r6
 80037c4:	e7ed      	b.n	80037a2 <HAL_PCDEx_SetTxFiFo+0x1c>

080037c6 <HAL_PCDEx_SetRxFiFo>:
 80037c6:	6803      	ldr	r3, [r0, #0]
 80037c8:	2000      	movs	r0, #0
 80037ca:	6259      	str	r1, [r3, #36]	; 0x24
 80037cc:	4770      	bx	lr

080037ce <HAL_PCDEx_ActivateLPM>:
 80037ce:	6802      	ldr	r2, [r0, #0]
 80037d0:	2100      	movs	r1, #0
 80037d2:	f880 13f4 	strb.w	r1, [r0, #1012]	; 0x3f4
 80037d6:	2301      	movs	r3, #1
 80037d8:	f8c0 33fc 	str.w	r3, [r0, #1020]	; 0x3fc
 80037dc:	6993      	ldr	r3, [r2, #24]
 80037de:	f043 6300 	orr.w	r3, r3, #134217728	; 0x8000000
 80037e2:	6193      	str	r3, [r2, #24]
 80037e4:	6d53      	ldr	r3, [r2, #84]	; 0x54
 80037e6:	f043 5380 	orr.w	r3, r3, #268435456	; 0x10000000
 80037ea:	f043 0303 	orr.w	r3, r3, #3
 80037ee:	6553      	str	r3, [r2, #84]	; 0x54
 80037f0:	4608      	mov	r0, r1
 80037f2:	4770      	bx	lr

080037f4 <HAL_PWREx_EnableOverDrive>:
 80037f4:	b537      	push	{r0, r1, r2, r4, r5, lr}
 80037f6:	2300      	movs	r3, #0
 80037f8:	9301      	str	r3, [sp, #4]
 80037fa:	4b18      	ldr	r3, [pc, #96]	; (800385c <HAL_PWREx_EnableOverDrive+0x68>)
 80037fc:	4d18      	ldr	r5, [pc, #96]	; (8003860 <HAL_PWREx_EnableOverDrive+0x6c>)
 80037fe:	6c1a      	ldr	r2, [r3, #64]	; 0x40
 8003800:	f042 5280 	orr.w	r2, r2, #268435456	; 0x10000000
 8003804:	641a      	str	r2, [r3, #64]	; 0x40
 8003806:	6c1b      	ldr	r3, [r3, #64]	; 0x40
 8003808:	f003 5380 	and.w	r3, r3, #268435456	; 0x10000000
 800380c:	9301      	str	r3, [sp, #4]
 800380e:	9b01      	ldr	r3, [sp, #4]
 8003810:	4b14      	ldr	r3, [pc, #80]	; (8003864 <HAL_PWREx_EnableOverDrive+0x70>)
 8003812:	2201      	movs	r2, #1
 8003814:	601a      	str	r2, [r3, #0]
 8003816:	f7fe fd6f 	bl	80022f8 <HAL_GetTick>
 800381a:	4604      	mov	r4, r0
 800381c:	686b      	ldr	r3, [r5, #4]
 800381e:	03da      	lsls	r2, r3, #15
 8003820:	d50b      	bpl.n	800383a <HAL_PWREx_EnableOverDrive+0x46>
 8003822:	4b11      	ldr	r3, [pc, #68]	; (8003868 <HAL_PWREx_EnableOverDrive+0x74>)
 8003824:	4d0e      	ldr	r5, [pc, #56]	; (8003860 <HAL_PWREx_EnableOverDrive+0x6c>)
 8003826:	2201      	movs	r2, #1
 8003828:	601a      	str	r2, [r3, #0]
 800382a:	f7fe fd65 	bl	80022f8 <HAL_GetTick>
 800382e:	4604      	mov	r4, r0
 8003830:	686b      	ldr	r3, [r5, #4]
 8003832:	039b      	lsls	r3, r3, #14
 8003834:	d50a      	bpl.n	800384c <HAL_PWREx_EnableOverDrive+0x58>
 8003836:	2000      	movs	r0, #0
 8003838:	e006      	b.n	8003848 <HAL_PWREx_EnableOverDrive+0x54>
 800383a:	f7fe fd5d 	bl	80022f8 <HAL_GetTick>
 800383e:	1b00      	subs	r0, r0, r4
 8003840:	f5b0 7f7a 	cmp.w	r0, #1000	; 0x3e8
 8003844:	d9ea      	bls.n	800381c <HAL_PWREx_EnableOverDrive+0x28>
 8003846:	2003      	movs	r0, #3
 8003848:	b003      	add	sp, #12
 800384a:	bd30      	pop	{r4, r5, pc}
 800384c:	f7fe fd54 	bl	80022f8 <HAL_GetTick>
 8003850:	1b00      	subs	r0, r0, r4
 8003852:	f5b0 7f7a 	cmp.w	r0, #1000	; 0x3e8
 8003856:	d9eb      	bls.n	8003830 <HAL_PWREx_EnableOverDrive+0x3c>
 8003858:	e7f5      	b.n	8003846 <HAL_PWREx_EnableOverDrive+0x52>
 800385a:	bf00      	nop
 800385c:	40023800 	.word	0x40023800
 8003860:	40007000 	.word	0x40007000
 8003864:	420e0040 	.word	0x420e0040
 8003868:	420e0044 	.word	0x420e0044

0800386c <HAL_RCC_ClockConfig>:
 800386c:	e92d 41f0 	stmdb	sp!, {r4, r5, r6, r7, r8, lr}
 8003870:	460d      	mov	r5, r1
 8003872:	4604      	mov	r4, r0
 8003874:	b910      	cbnz	r0, 800387c <HAL_RCC_ClockConfig+0x10>
 8003876:	2001      	movs	r0, #1
 8003878:	e8bd 81f0 	ldmia.w	sp!, {r4, r5, r6, r7, r8, pc}
 800387c:	4b44      	ldr	r3, [pc, #272]	; (8003990 <HAL_RCC_ClockConfig+0x124>)
 800387e:	681a      	ldr	r2, [r3, #0]
 8003880:	f002 020f 	and.w	r2, r2, #15
 8003884:	428a      	cmp	r2, r1
 8003886:	d328      	bcc.n	80038da <HAL_RCC_ClockConfig+0x6e>
 8003888:	6822      	ldr	r2, [r4, #0]
 800388a:	0797      	lsls	r7, r2, #30
 800388c:	d42d      	bmi.n	80038ea <HAL_RCC_ClockConfig+0x7e>
 800388e:	07d0      	lsls	r0, r2, #31
 8003890:	d441      	bmi.n	8003916 <HAL_RCC_ClockConfig+0xaa>
 8003892:	4b3f      	ldr	r3, [pc, #252]	; (8003990 <HAL_RCC_ClockConfig+0x124>)
 8003894:	681a      	ldr	r2, [r3, #0]
 8003896:	f002 020f 	and.w	r2, r2, #15
 800389a:	42aa      	cmp	r2, r5
 800389c:	d866      	bhi.n	800396c <HAL_RCC_ClockConfig+0x100>
 800389e:	6822      	ldr	r2, [r4, #0]
 80038a0:	0751      	lsls	r1, r2, #29
 80038a2:	d46c      	bmi.n	800397e <HAL_RCC_ClockConfig+0x112>
 80038a4:	0713      	lsls	r3, r2, #28
 80038a6:	d507      	bpl.n	80038b8 <HAL_RCC_ClockConfig+0x4c>
 80038a8:	4a3a      	ldr	r2, [pc, #232]	; (8003994 <HAL_RCC_ClockConfig+0x128>)
 80038aa:	6921      	ldr	r1, [r4, #16]
 80038ac:	6893      	ldr	r3, [r2, #8]
 80038ae:	f423 4360 	bic.w	r3, r3, #57344	; 0xe000
 80038b2:	ea43 03c1 	orr.w	r3, r3, r1, lsl #3
 80038b6:	6093      	str	r3, [r2, #8]
 80038b8:	f000 faa6 	bl	8003e08 <HAL_RCC_GetSysClockFreq>
 80038bc:	4b35      	ldr	r3, [pc, #212]	; (8003994 <HAL_RCC_ClockConfig+0x128>)
 80038be:	4a36      	ldr	r2, [pc, #216]	; (8003998 <HAL_RCC_ClockConfig+0x12c>)
 80038c0:	689b      	ldr	r3, [r3, #8]
 80038c2:	f3c3 1303 	ubfx	r3, r3, #4, #4
 80038c6:	5cd3      	ldrb	r3, [r2, r3]
 80038c8:	40d8      	lsrs	r0, r3
 80038ca:	4b34      	ldr	r3, [pc, #208]	; (800399c <HAL_RCC_ClockConfig+0x130>)
 80038cc:	6018      	str	r0, [r3, #0]
 80038ce:	4b34      	ldr	r3, [pc, #208]	; (80039a0 <HAL_RCC_ClockConfig+0x134>)
 80038d0:	6818      	ldr	r0, [r3, #0]
 80038d2:	f7fe fcc7 	bl	8002264 <HAL_InitTick>
 80038d6:	2000      	movs	r0, #0
 80038d8:	e7ce      	b.n	8003878 <HAL_RCC_ClockConfig+0xc>
 80038da:	b2ca      	uxtb	r2, r1
 80038dc:	701a      	strb	r2, [r3, #0]
 80038de:	681b      	ldr	r3, [r3, #0]
 80038e0:	f003 030f 	and.w	r3, r3, #15
 80038e4:	428b      	cmp	r3, r1
 80038e6:	d1c6      	bne.n	8003876 <HAL_RCC_ClockConfig+0xa>
 80038e8:	e7ce      	b.n	8003888 <HAL_RCC_ClockConfig+0x1c>
 80038ea:	4b2a      	ldr	r3, [pc, #168]	; (8003994 <HAL_RCC_ClockConfig+0x128>)
 80038ec:	f012 0f04 	tst.w	r2, #4
 80038f0:	bf1e      	ittt	ne
 80038f2:	6899      	ldrne	r1, [r3, #8]
 80038f4:	f441 51e0 	orrne.w	r1, r1, #7168	; 0x1c00
 80038f8:	6099      	strne	r1, [r3, #8]
 80038fa:	0716      	lsls	r6, r2, #28
 80038fc:	bf42      	ittt	mi
 80038fe:	6899      	ldrmi	r1, [r3, #8]
 8003900:	f441 4160 	orrmi.w	r1, r1, #57344	; 0xe000
 8003904:	6099      	strmi	r1, [r3, #8]
 8003906:	4923      	ldr	r1, [pc, #140]	; (8003994 <HAL_RCC_ClockConfig+0x128>)
 8003908:	68a0      	ldr	r0, [r4, #8]
 800390a:	688b      	ldr	r3, [r1, #8]
 800390c:	f023 03f0 	bic.w	r3, r3, #240	; 0xf0
 8003910:	4303      	orrs	r3, r0
 8003912:	608b      	str	r3, [r1, #8]
 8003914:	e7bb      	b.n	800388e <HAL_RCC_ClockConfig+0x22>
 8003916:	6862      	ldr	r2, [r4, #4]
 8003918:	4b1e      	ldr	r3, [pc, #120]	; (8003994 <HAL_RCC_ClockConfig+0x128>)
 800391a:	2a01      	cmp	r2, #1
 800391c:	d11c      	bne.n	8003958 <HAL_RCC_ClockConfig+0xec>
 800391e:	681b      	ldr	r3, [r3, #0]
 8003920:	f413 3f00 	tst.w	r3, #131072	; 0x20000
 8003924:	d0a7      	beq.n	8003876 <HAL_RCC_ClockConfig+0xa>
 8003926:	4e1b      	ldr	r6, [pc, #108]	; (8003994 <HAL_RCC_ClockConfig+0x128>)
 8003928:	68b3      	ldr	r3, [r6, #8]
 800392a:	f023 0303 	bic.w	r3, r3, #3
 800392e:	4313      	orrs	r3, r2
 8003930:	60b3      	str	r3, [r6, #8]
 8003932:	f7fe fce1 	bl	80022f8 <HAL_GetTick>
 8003936:	f241 3888 	movw	r8, #5000	; 0x1388
 800393a:	4607      	mov	r7, r0
 800393c:	68b3      	ldr	r3, [r6, #8]
 800393e:	6862      	ldr	r2, [r4, #4]
 8003940:	f003 030c 	and.w	r3, r3, #12
 8003944:	ebb3 0f82 	cmp.w	r3, r2, lsl #2
 8003948:	d0a3      	beq.n	8003892 <HAL_RCC_ClockConfig+0x26>
 800394a:	f7fe fcd5 	bl	80022f8 <HAL_GetTick>
 800394e:	1bc0      	subs	r0, r0, r7
 8003950:	4540      	cmp	r0, r8
 8003952:	d9f3      	bls.n	800393c <HAL_RCC_ClockConfig+0xd0>
 8003954:	2003      	movs	r0, #3
 8003956:	e78f      	b.n	8003878 <HAL_RCC_ClockConfig+0xc>
 8003958:	1e91      	subs	r1, r2, #2
 800395a:	2901      	cmp	r1, #1
 800395c:	681b      	ldr	r3, [r3, #0]
 800395e:	d802      	bhi.n	8003966 <HAL_RCC_ClockConfig+0xfa>
 8003960:	f013 7f00 	tst.w	r3, #33554432	; 0x2000000
 8003964:	e7de      	b.n	8003924 <HAL_RCC_ClockConfig+0xb8>
 8003966:	f013 0f02 	tst.w	r3, #2
 800396a:	e7db      	b.n	8003924 <HAL_RCC_ClockConfig+0xb8>
 800396c:	b2ea      	uxtb	r2, r5
 800396e:	701a      	strb	r2, [r3, #0]
 8003970:	681b      	ldr	r3, [r3, #0]
 8003972:	f003 030f 	and.w	r3, r3, #15
 8003976:	42ab      	cmp	r3, r5
 8003978:	f47f af7d 	bne.w	8003876 <HAL_RCC_ClockConfig+0xa>
 800397c:	e78f      	b.n	800389e <HAL_RCC_ClockConfig+0x32>
 800397e:	4905      	ldr	r1, [pc, #20]	; (8003994 <HAL_RCC_ClockConfig+0x128>)
 8003980:	68e0      	ldr	r0, [r4, #12]
 8003982:	688b      	ldr	r3, [r1, #8]
 8003984:	f423 53e0 	bic.w	r3, r3, #7168	; 0x1c00
 8003988:	4303      	orrs	r3, r0
 800398a:	608b      	str	r3, [r1, #8]
 800398c:	e78a      	b.n	80038a4 <HAL_RCC_ClockConfig+0x38>
 800398e:	bf00      	nop
 8003990:	40023c00 	.word	0x40023c00
 8003994:	40023800 	.word	0x40023800
 8003998:	0800961e 	.word	0x0800961e
 800399c:	20000000 	.word	0x20000000
 80039a0:	20000008 	.word	0x20000008

080039a4 <HAL_RCC_GetHCLKFreq>:
 80039a4:	4b01      	ldr	r3, [pc, #4]	; (80039ac <HAL_RCC_GetHCLKFreq+0x8>)
 80039a6:	6818      	ldr	r0, [r3, #0]
 80039a8:	4770      	bx	lr
 80039aa:	bf00      	nop
 80039ac:	20000000 	.word	0x20000000

080039b0 <HAL_RCC_GetPCLK1Freq>:
 80039b0:	4b04      	ldr	r3, [pc, #16]	; (80039c4 <HAL_RCC_GetPCLK1Freq+0x14>)
 80039b2:	4a05      	ldr	r2, [pc, #20]	; (80039c8 <HAL_RCC_GetPCLK1Freq+0x18>)
 80039b4:	689b      	ldr	r3, [r3, #8]
 80039b6:	f3c3 2382 	ubfx	r3, r3, #10, #3
 80039ba:	5cd3      	ldrb	r3, [r2, r3]
 80039bc:	4a03      	ldr	r2, [pc, #12]	; (80039cc <HAL_RCC_GetPCLK1Freq+0x1c>)
 80039be:	6810      	ldr	r0, [r2, #0]
 80039c0:	40d8      	lsrs	r0, r3
 80039c2:	4770      	bx	lr
 80039c4:	40023800 	.word	0x40023800
 80039c8:	0800962e 	.word	0x0800962e
 80039cc:	20000000 	.word	0x20000000

080039d0 <HAL_RCC_GetPCLK2Freq>:
 80039d0:	4b04      	ldr	r3, [pc, #16]	; (80039e4 <HAL_RCC_GetPCLK2Freq+0x14>)
 80039d2:	4a05      	ldr	r2, [pc, #20]	; (80039e8 <HAL_RCC_GetPCLK2Freq+0x18>)
 80039d4:	689b      	ldr	r3, [r3, #8]
 80039d6:	f3c3 3342 	ubfx	r3, r3, #13, #3
 80039da:	5cd3      	ldrb	r3, [r2, r3]
 80039dc:	4a03      	ldr	r2, [pc, #12]	; (80039ec <HAL_RCC_GetPCLK2Freq+0x1c>)
 80039de:	6810      	ldr	r0, [r2, #0]
 80039e0:	40d8      	lsrs	r0, r3
 80039e2:	4770      	bx	lr
 80039e4:	40023800 	.word	0x40023800
 80039e8:	0800962e 	.word	0x0800962e
 80039ec:	20000000 	.word	0x20000000

080039f0 <HAL_RCCEx_PeriphCLKConfig>:
 80039f0:	6803      	ldr	r3, [r0, #0]
 80039f2:	e92d 43f7 	stmdb	sp!, {r0, r1, r2, r4, r5, r6, r7, r8, r9, lr}
 80039f6:	f013 0601 	ands.w	r6, r3, #1
 80039fa:	4604      	mov	r4, r0
 80039fc:	d00b      	beq.n	8003a16 <HAL_RCCEx_PeriphCLKConfig+0x26>
 80039fe:	49ab      	ldr	r1, [pc, #684]	; (8003cac <HAL_RCCEx_PeriphCLKConfig+0x2bc>)
 8003a00:	6b86      	ldr	r6, [r0, #56]	; 0x38
 8003a02:	f8d1 208c 	ldr.w	r2, [r1, #140]	; 0x8c
 8003a06:	f022 62c0 	bic.w	r2, r2, #100663296	; 0x6000000
 8003a0a:	4332      	orrs	r2, r6
 8003a0c:	fab6 f686 	clz	r6, r6
 8003a10:	f8c1 208c 	str.w	r2, [r1, #140]	; 0x8c
 8003a14:	0976      	lsrs	r6, r6, #5
 8003a16:	079d      	lsls	r5, r3, #30
 8003a18:	d50b      	bpl.n	8003a32 <HAL_RCCEx_PeriphCLKConfig+0x42>
 8003a1a:	48a4      	ldr	r0, [pc, #656]	; (8003cac <HAL_RCCEx_PeriphCLKConfig+0x2bc>)
 8003a1c:	6be1      	ldr	r1, [r4, #60]	; 0x3c
 8003a1e:	f8d0 208c 	ldr.w	r2, [r0, #140]	; 0x8c
 8003a22:	f022 52c0 	bic.w	r2, r2, #402653184	; 0x18000000
 8003a26:	430a      	orrs	r2, r1
 8003a28:	2900      	cmp	r1, #0
 8003a2a:	f8c0 208c 	str.w	r2, [r0, #140]	; 0x8c
 8003a2e:	bf08      	it	eq
 8003a30:	2601      	moveq	r6, #1
 8003a32:	f013 0504 	ands.w	r5, r3, #4
 8003a36:	d012      	beq.n	8003a5e <HAL_RCCEx_PeriphCLKConfig+0x6e>
 8003a38:	499c      	ldr	r1, [pc, #624]	; (8003cac <HAL_RCCEx_PeriphCLKConfig+0x2bc>)
 8003a3a:	6b25      	ldr	r5, [r4, #48]	; 0x30
 8003a3c:	f8d1 208c 	ldr.w	r2, [r1, #140]	; 0x8c
 8003a40:	f5b5 1f80 	cmp.w	r5, #1048576	; 0x100000
 8003a44:	f422 1240 	bic.w	r2, r2, #3145728	; 0x300000
 8003a48:	ea42 0205 	orr.w	r2, r2, r5
 8003a4c:	bf18      	it	ne
 8003a4e:	fab5 f585 	clzne	r5, r5
 8003a52:	f8c1 208c 	str.w	r2, [r1, #140]	; 0x8c
 8003a56:	bf12      	itee	ne
 8003a58:	096d      	lsrne	r5, r5, #5
 8003a5a:	2500      	moveq	r5, #0
 8003a5c:	2601      	moveq	r6, #1
 8003a5e:	0718      	lsls	r0, r3, #28
 8003a60:	d50f      	bpl.n	8003a82 <HAL_RCCEx_PeriphCLKConfig+0x92>
 8003a62:	4892      	ldr	r0, [pc, #584]	; (8003cac <HAL_RCCEx_PeriphCLKConfig+0x2bc>)
 8003a64:	6b61      	ldr	r1, [r4, #52]	; 0x34
 8003a66:	f8d0 208c 	ldr.w	r2, [r0, #140]	; 0x8c
 8003a6a:	f422 0240 	bic.w	r2, r2, #12582912	; 0xc00000
 8003a6e:	430a      	orrs	r2, r1
 8003a70:	f5b1 0f80 	cmp.w	r1, #4194304	; 0x400000
 8003a74:	f8c0 208c 	str.w	r2, [r0, #140]	; 0x8c
 8003a78:	f000 810b 	beq.w	8003c92 <HAL_RCCEx_PeriphCLKConfig+0x2a2>
 8003a7c:	2900      	cmp	r1, #0
 8003a7e:	bf08      	it	eq
 8003a80:	2501      	moveq	r5, #1
 8003a82:	0699      	lsls	r1, r3, #26
 8003a84:	d533      	bpl.n	8003aee <HAL_RCCEx_PeriphCLKConfig+0xfe>
 8003a86:	2300      	movs	r3, #0
 8003a88:	9301      	str	r3, [sp, #4]
 8003a8a:	4b88      	ldr	r3, [pc, #544]	; (8003cac <HAL_RCCEx_PeriphCLKConfig+0x2bc>)
 8003a8c:	4f88      	ldr	r7, [pc, #544]	; (8003cb0 <HAL_RCCEx_PeriphCLKConfig+0x2c0>)
 8003a8e:	6c1a      	ldr	r2, [r3, #64]	; 0x40
 8003a90:	f042 5280 	orr.w	r2, r2, #268435456	; 0x10000000
 8003a94:	641a      	str	r2, [r3, #64]	; 0x40
 8003a96:	6c1b      	ldr	r3, [r3, #64]	; 0x40
 8003a98:	f003 5380 	and.w	r3, r3, #268435456	; 0x10000000
 8003a9c:	9301      	str	r3, [sp, #4]
 8003a9e:	9b01      	ldr	r3, [sp, #4]
 8003aa0:	683b      	ldr	r3, [r7, #0]
 8003aa2:	f443 7380 	orr.w	r3, r3, #256	; 0x100
 8003aa6:	603b      	str	r3, [r7, #0]
 8003aa8:	f7fe fc26 	bl	80022f8 <HAL_GetTick>
 8003aac:	4680      	mov	r8, r0
 8003aae:	683b      	ldr	r3, [r7, #0]
 8003ab0:	05da      	lsls	r2, r3, #23
 8003ab2:	f140 80f0 	bpl.w	8003c96 <HAL_RCCEx_PeriphCLKConfig+0x2a6>
 8003ab6:	4f7d      	ldr	r7, [pc, #500]	; (8003cac <HAL_RCCEx_PeriphCLKConfig+0x2bc>)
 8003ab8:	6f3b      	ldr	r3, [r7, #112]	; 0x70
 8003aba:	f413 7340 	ands.w	r3, r3, #768	; 0x300
 8003abe:	f040 80fd 	bne.w	8003cbc <HAL_RCCEx_PeriphCLKConfig+0x2cc>
 8003ac2:	6c23      	ldr	r3, [r4, #64]	; 0x40
 8003ac4:	f403 7240 	and.w	r2, r3, #768	; 0x300
 8003ac8:	f5b2 7f40 	cmp.w	r2, #768	; 0x300
 8003acc:	4a77      	ldr	r2, [pc, #476]	; (8003cac <HAL_RCCEx_PeriphCLKConfig+0x2bc>)
 8003ace:	f040 8118 	bne.w	8003d02 <HAL_RCCEx_PeriphCLKConfig+0x312>
 8003ad2:	6891      	ldr	r1, [r2, #8]
 8003ad4:	f023 4070 	bic.w	r0, r3, #4026531840	; 0xf0000000
 8003ad8:	f421 11f8 	bic.w	r1, r1, #2031616	; 0x1f0000
 8003adc:	f420 7040 	bic.w	r0, r0, #768	; 0x300
 8003ae0:	4301      	orrs	r1, r0
 8003ae2:	6091      	str	r1, [r2, #8]
 8003ae4:	6f11      	ldr	r1, [r2, #112]	; 0x70
 8003ae6:	f3c3 030b 	ubfx	r3, r3, #0, #12
 8003aea:	430b      	orrs	r3, r1
 8003aec:	6713      	str	r3, [r2, #112]	; 0x70
 8003aee:	6823      	ldr	r3, [r4, #0]
 8003af0:	06d9      	lsls	r1, r3, #27
 8003af2:	bf42      	ittt	mi
 8003af4:	4b6f      	ldrmi	r3, [pc, #444]	; (8003cb4 <HAL_RCCEx_PeriphCLKConfig+0x2c4>)
 8003af6:	f894 2058 	ldrbmi.w	r2, [r4, #88]	; 0x58
 8003afa:	601a      	strmi	r2, [r3, #0]
 8003afc:	6823      	ldr	r3, [r4, #0]
 8003afe:	061a      	lsls	r2, r3, #24
 8003b00:	d508      	bpl.n	8003b14 <HAL_RCCEx_PeriphCLKConfig+0x124>
 8003b02:	496a      	ldr	r1, [pc, #424]	; (8003cac <HAL_RCCEx_PeriphCLKConfig+0x2bc>)
 8003b04:	6ce0      	ldr	r0, [r4, #76]	; 0x4c
 8003b06:	f8d1 2094 	ldr.w	r2, [r1, #148]	; 0x94
 8003b0a:	f422 0240 	bic.w	r2, r2, #12582912	; 0xc00000
 8003b0e:	4302      	orrs	r2, r0
 8003b10:	f8c1 2094 	str.w	r2, [r1, #148]	; 0x94
 8003b14:	065f      	lsls	r7, r3, #25
 8003b16:	d508      	bpl.n	8003b2a <HAL_RCCEx_PeriphCLKConfig+0x13a>
 8003b18:	4964      	ldr	r1, [pc, #400]	; (8003cac <HAL_RCCEx_PeriphCLKConfig+0x2bc>)
 8003b1a:	6ca0      	ldr	r0, [r4, #72]	; 0x48
 8003b1c:	f8d1 2094 	ldr.w	r2, [r1, #148]	; 0x94
 8003b20:	f022 6280 	bic.w	r2, r2, #67108864	; 0x4000000
 8003b24:	4302      	orrs	r2, r0
 8003b26:	f8c1 2094 	str.w	r2, [r1, #148]	; 0x94
 8003b2a:	05d8      	lsls	r0, r3, #23
 8003b2c:	d50c      	bpl.n	8003b48 <HAL_RCCEx_PeriphCLKConfig+0x158>
 8003b2e:	485f      	ldr	r0, [pc, #380]	; (8003cac <HAL_RCCEx_PeriphCLKConfig+0x2bc>)
 8003b30:	6d61      	ldr	r1, [r4, #84]	; 0x54
 8003b32:	f8d0 2094 	ldr.w	r2, [r0, #148]	; 0x94
 8003b36:	f022 6200 	bic.w	r2, r2, #134217728	; 0x8000000
 8003b3a:	430a      	orrs	r2, r1
 8003b3c:	f1b1 6f00 	cmp.w	r1, #134217728	; 0x8000000
 8003b40:	f8c0 2094 	str.w	r2, [r0, #148]	; 0x94
 8003b44:	bf08      	it	eq
 8003b46:	2501      	moveq	r5, #1
 8003b48:	0599      	lsls	r1, r3, #22
 8003b4a:	d508      	bpl.n	8003b5e <HAL_RCCEx_PeriphCLKConfig+0x16e>
 8003b4c:	4957      	ldr	r1, [pc, #348]	; (8003cac <HAL_RCCEx_PeriphCLKConfig+0x2bc>)
 8003b4e:	6c60      	ldr	r0, [r4, #68]	; 0x44
 8003b50:	f8d1 2094 	ldr.w	r2, [r1, #148]	; 0x94
 8003b54:	f022 5280 	bic.w	r2, r2, #268435456	; 0x10000000
 8003b58:	4302      	orrs	r2, r0
 8003b5a:	f8c1 2094 	str.w	r2, [r1, #148]	; 0x94
 8003b5e:	055a      	lsls	r2, r3, #21
 8003b60:	f100 80d3 	bmi.w	8003d0a <HAL_RCCEx_PeriphCLKConfig+0x31a>
 8003b64:	2e01      	cmp	r6, #1
 8003b66:	f040 80de 	bne.w	8003d26 <HAL_RCCEx_PeriphCLKConfig+0x336>
 8003b6a:	4e53      	ldr	r6, [pc, #332]	; (8003cb8 <HAL_RCCEx_PeriphCLKConfig+0x2c8>)
 8003b6c:	f8df 913c 	ldr.w	r9, [pc, #316]	; 8003cac <HAL_RCCEx_PeriphCLKConfig+0x2bc>
 8003b70:	2300      	movs	r3, #0
 8003b72:	6033      	str	r3, [r6, #0]
 8003b74:	f7fe fbc0 	bl	80022f8 <HAL_GetTick>
 8003b78:	464f      	mov	r7, r9
 8003b7a:	4680      	mov	r8, r0
 8003b7c:	f8d9 3000 	ldr.w	r3, [r9]
 8003b80:	011b      	lsls	r3, r3, #4
 8003b82:	f100 8126 	bmi.w	8003dd2 <HAL_RCCEx_PeriphCLKConfig+0x3e2>
 8003b86:	6822      	ldr	r2, [r4, #0]
 8003b88:	07d0      	lsls	r0, r2, #31
 8003b8a:	d501      	bpl.n	8003b90 <HAL_RCCEx_PeriphCLKConfig+0x1a0>
 8003b8c:	6ba3      	ldr	r3, [r4, #56]	; 0x38
 8003b8e:	b11b      	cbz	r3, 8003b98 <HAL_RCCEx_PeriphCLKConfig+0x1a8>
 8003b90:	0791      	lsls	r1, r2, #30
 8003b92:	d514      	bpl.n	8003bbe <HAL_RCCEx_PeriphCLKConfig+0x1ce>
 8003b94:	6be3      	ldr	r3, [r4, #60]	; 0x3c
 8003b96:	b993      	cbnz	r3, 8003bbe <HAL_RCCEx_PeriphCLKConfig+0x1ce>
 8003b98:	f8d7 3084 	ldr.w	r3, [r7, #132]	; 0x84
 8003b9c:	f8d7 1084 	ldr.w	r1, [r7, #132]	; 0x84
 8003ba0:	f403 3340 	and.w	r3, r3, #196608	; 0x30000
 8003ba4:	f001 6170 	and.w	r1, r1, #251658240	; 0xf000000
 8003ba8:	430b      	orrs	r3, r1
 8003baa:	6861      	ldr	r1, [r4, #4]
 8003bac:	430b      	orrs	r3, r1
 8003bae:	68a1      	ldr	r1, [r4, #8]
 8003bb0:	ea43 1381 	orr.w	r3, r3, r1, lsl #6
 8003bb4:	6961      	ldr	r1, [r4, #20]
 8003bb6:	ea43 7301 	orr.w	r3, r3, r1, lsl #28
 8003bba:	f8c7 3084 	str.w	r3, [r7, #132]	; 0x84
 8003bbe:	0753      	lsls	r3, r2, #29
 8003bc0:	d503      	bpl.n	8003bca <HAL_RCCEx_PeriphCLKConfig+0x1da>
 8003bc2:	6b23      	ldr	r3, [r4, #48]	; 0x30
 8003bc4:	f5b3 1f80 	cmp.w	r3, #1048576	; 0x100000
 8003bc8:	d005      	beq.n	8003bd6 <HAL_RCCEx_PeriphCLKConfig+0x1e6>
 8003bca:	0717      	lsls	r7, r2, #28
 8003bcc:	d520      	bpl.n	8003c10 <HAL_RCCEx_PeriphCLKConfig+0x220>
 8003bce:	6b63      	ldr	r3, [r4, #52]	; 0x34
 8003bd0:	f5b3 0f80 	cmp.w	r3, #4194304	; 0x400000
 8003bd4:	d11c      	bne.n	8003c10 <HAL_RCCEx_PeriphCLKConfig+0x220>
 8003bd6:	4935      	ldr	r1, [pc, #212]	; (8003cac <HAL_RCCEx_PeriphCLKConfig+0x2bc>)
 8003bd8:	f8d1 3084 	ldr.w	r3, [r1, #132]	; 0x84
 8003bdc:	f8d1 0084 	ldr.w	r0, [r1, #132]	; 0x84
 8003be0:	f403 3340 	and.w	r3, r3, #196608	; 0x30000
 8003be4:	f000 40e0 	and.w	r0, r0, #1879048192	; 0x70000000
 8003be8:	4303      	orrs	r3, r0
 8003bea:	6860      	ldr	r0, [r4, #4]
 8003bec:	4303      	orrs	r3, r0
 8003bee:	68a0      	ldr	r0, [r4, #8]
 8003bf0:	ea43 1380 	orr.w	r3, r3, r0, lsl #6
 8003bf4:	6920      	ldr	r0, [r4, #16]
 8003bf6:	ea43 6300 	orr.w	r3, r3, r0, lsl #24
 8003bfa:	f8c1 3084 	str.w	r3, [r1, #132]	; 0x84
 8003bfe:	f8d1 008c 	ldr.w	r0, [r1, #140]	; 0x8c
 8003c02:	6aa3      	ldr	r3, [r4, #40]	; 0x28
 8003c04:	f020 001f 	bic.w	r0, r0, #31
 8003c08:	3b01      	subs	r3, #1
 8003c0a:	4303      	orrs	r3, r0
 8003c0c:	f8c1 308c 	str.w	r3, [r1, #140]	; 0x8c
 8003c10:	0550      	lsls	r0, r2, #21
 8003c12:	d51b      	bpl.n	8003c4c <HAL_RCCEx_PeriphCLKConfig+0x25c>
 8003c14:	6d23      	ldr	r3, [r4, #80]	; 0x50
 8003c16:	f1b3 5f00 	cmp.w	r3, #536870912	; 0x20000000
 8003c1a:	d117      	bne.n	8003c4c <HAL_RCCEx_PeriphCLKConfig+0x25c>
 8003c1c:	4823      	ldr	r0, [pc, #140]	; (8003cac <HAL_RCCEx_PeriphCLKConfig+0x2bc>)
 8003c1e:	6867      	ldr	r7, [r4, #4]
 8003c20:	f8d0 1084 	ldr.w	r1, [r0, #132]	; 0x84
 8003c24:	f8d0 3084 	ldr.w	r3, [r0, #132]	; 0x84
 8003c28:	f003 43e0 	and.w	r3, r3, #1879048192	; 0x70000000
 8003c2c:	433b      	orrs	r3, r7
 8003c2e:	68a7      	ldr	r7, [r4, #8]
 8003c30:	f3c1 4101 	ubfx	r1, r1, #16, #2
 8003c34:	3101      	adds	r1, #1
 8003c36:	ea43 1387 	orr.w	r3, r3, r7, lsl #6
 8003c3a:	ea43 6341 	orr.w	r3, r3, r1, lsl #25
 8003c3e:	68e1      	ldr	r1, [r4, #12]
 8003c40:	0849      	lsrs	r1, r1, #1
 8003c42:	3901      	subs	r1, #1
 8003c44:	ea43 4301 	orr.w	r3, r3, r1, lsl #16
 8003c48:	f8c0 3084 	str.w	r3, [r0, #132]	; 0x84
 8003c4c:	0511      	lsls	r1, r2, #20
 8003c4e:	d511      	bpl.n	8003c74 <HAL_RCCEx_PeriphCLKConfig+0x284>
 8003c50:	6923      	ldr	r3, [r4, #16]
 8003c52:	68a2      	ldr	r2, [r4, #8]
 8003c54:	061b      	lsls	r3, r3, #24
 8003c56:	ea43 1382 	orr.w	r3, r3, r2, lsl #6
 8003c5a:	6862      	ldr	r2, [r4, #4]
 8003c5c:	4313      	orrs	r3, r2
 8003c5e:	6962      	ldr	r2, [r4, #20]
 8003c60:	ea43 7302 	orr.w	r3, r3, r2, lsl #28
 8003c64:	68e2      	ldr	r2, [r4, #12]
 8003c66:	0852      	lsrs	r2, r2, #1
 8003c68:	3a01      	subs	r2, #1
 8003c6a:	ea43 4302 	orr.w	r3, r3, r2, lsl #16
 8003c6e:	4a0f      	ldr	r2, [pc, #60]	; (8003cac <HAL_RCCEx_PeriphCLKConfig+0x2bc>)
 8003c70:	f8c2 3084 	str.w	r3, [r2, #132]	; 0x84
 8003c74:	2301      	movs	r3, #1
 8003c76:	6033      	str	r3, [r6, #0]
 8003c78:	f7fe fb3e 	bl	80022f8 <HAL_GetTick>
 8003c7c:	4f0b      	ldr	r7, [pc, #44]	; (8003cac <HAL_RCCEx_PeriphCLKConfig+0x2bc>)
 8003c7e:	4606      	mov	r6, r0
 8003c80:	683b      	ldr	r3, [r7, #0]
 8003c82:	011a      	lsls	r2, r3, #4
 8003c84:	d453      	bmi.n	8003d2e <HAL_RCCEx_PeriphCLKConfig+0x33e>
 8003c86:	f7fe fb37 	bl	80022f8 <HAL_GetTick>
 8003c8a:	1b80      	subs	r0, r0, r6
 8003c8c:	2802      	cmp	r0, #2
 8003c8e:	d9f7      	bls.n	8003c80 <HAL_RCCEx_PeriphCLKConfig+0x290>
 8003c90:	e008      	b.n	8003ca4 <HAL_RCCEx_PeriphCLKConfig+0x2b4>
 8003c92:	2601      	movs	r6, #1
 8003c94:	e6f5      	b.n	8003a82 <HAL_RCCEx_PeriphCLKConfig+0x92>
 8003c96:	f7fe fb2f 	bl	80022f8 <HAL_GetTick>
 8003c9a:	eba0 0008 	sub.w	r0, r0, r8
 8003c9e:	2802      	cmp	r0, #2
 8003ca0:	f67f af05 	bls.w	8003aae <HAL_RCCEx_PeriphCLKConfig+0xbe>
 8003ca4:	2003      	movs	r0, #3
 8003ca6:	b003      	add	sp, #12
 8003ca8:	e8bd 83f0 	ldmia.w	sp!, {r4, r5, r6, r7, r8, r9, pc}
 8003cac:	40023800 	.word	0x40023800
 8003cb0:	40007000 	.word	0x40007000
 8003cb4:	424711e0 	.word	0x424711e0
 8003cb8:	42470068 	.word	0x42470068
 8003cbc:	6c22      	ldr	r2, [r4, #64]	; 0x40
 8003cbe:	f402 7240 	and.w	r2, r2, #768	; 0x300
 8003cc2:	429a      	cmp	r2, r3
 8003cc4:	f43f aefd 	beq.w	8003ac2 <HAL_RCCEx_PeriphCLKConfig+0xd2>
 8003cc8:	6f3b      	ldr	r3, [r7, #112]	; 0x70
 8003cca:	4a4c      	ldr	r2, [pc, #304]	; (8003dfc <HAL_RCCEx_PeriphCLKConfig+0x40c>)
 8003ccc:	2101      	movs	r1, #1
 8003cce:	6011      	str	r1, [r2, #0]
 8003cd0:	f423 7340 	bic.w	r3, r3, #768	; 0x300
 8003cd4:	2100      	movs	r1, #0
 8003cd6:	6011      	str	r1, [r2, #0]
 8003cd8:	673b      	str	r3, [r7, #112]	; 0x70
 8003cda:	6f3b      	ldr	r3, [r7, #112]	; 0x70
 8003cdc:	07db      	lsls	r3, r3, #31
 8003cde:	f57f aef0 	bpl.w	8003ac2 <HAL_RCCEx_PeriphCLKConfig+0xd2>
 8003ce2:	f7fe fb09 	bl	80022f8 <HAL_GetTick>
 8003ce6:	f241 3988 	movw	r9, #5000	; 0x1388
 8003cea:	4680      	mov	r8, r0
 8003cec:	6f3b      	ldr	r3, [r7, #112]	; 0x70
 8003cee:	0798      	lsls	r0, r3, #30
 8003cf0:	f53f aee7 	bmi.w	8003ac2 <HAL_RCCEx_PeriphCLKConfig+0xd2>
 8003cf4:	f7fe fb00 	bl	80022f8 <HAL_GetTick>
 8003cf8:	eba0 0008 	sub.w	r0, r0, r8
 8003cfc:	4548      	cmp	r0, r9
 8003cfe:	d9f5      	bls.n	8003cec <HAL_RCCEx_PeriphCLKConfig+0x2fc>
 8003d00:	e7d0      	b.n	8003ca4 <HAL_RCCEx_PeriphCLKConfig+0x2b4>
 8003d02:	6891      	ldr	r1, [r2, #8]
 8003d04:	f421 11f8 	bic.w	r1, r1, #2031616	; 0x1f0000
 8003d08:	e6eb      	b.n	8003ae2 <HAL_RCCEx_PeriphCLKConfig+0xf2>
 8003d0a:	483d      	ldr	r0, [pc, #244]	; (8003e00 <HAL_RCCEx_PeriphCLKConfig+0x410>)
 8003d0c:	6d21      	ldr	r1, [r4, #80]	; 0x50
 8003d0e:	f8d0 2094 	ldr.w	r2, [r0, #148]	; 0x94
 8003d12:	f022 5200 	bic.w	r2, r2, #536870912	; 0x20000000
 8003d16:	430a      	orrs	r2, r1
 8003d18:	f1b1 5f00 	cmp.w	r1, #536870912	; 0x20000000
 8003d1c:	f8c0 2094 	str.w	r2, [r0, #148]	; 0x94
 8003d20:	f47f af20 	bne.w	8003b64 <HAL_RCCEx_PeriphCLKConfig+0x174>
 8003d24:	e721      	b.n	8003b6a <HAL_RCCEx_PeriphCLKConfig+0x17a>
 8003d26:	f5b3 6f00 	cmp.w	r3, #2048	; 0x800
 8003d2a:	f43f af1e 	beq.w	8003b6a <HAL_RCCEx_PeriphCLKConfig+0x17a>
 8003d2e:	2d01      	cmp	r5, #1
 8003d30:	d14d      	bne.n	8003dce <HAL_RCCEx_PeriphCLKConfig+0x3de>
 8003d32:	4d34      	ldr	r5, [pc, #208]	; (8003e04 <HAL_RCCEx_PeriphCLKConfig+0x414>)
 8003d34:	f8df 80c8 	ldr.w	r8, [pc, #200]	; 8003e00 <HAL_RCCEx_PeriphCLKConfig+0x410>
 8003d38:	2300      	movs	r3, #0
 8003d3a:	602b      	str	r3, [r5, #0]
 8003d3c:	f7fe fadc 	bl	80022f8 <HAL_GetTick>
 8003d40:	4646      	mov	r6, r8
 8003d42:	4607      	mov	r7, r0
 8003d44:	f8d8 3000 	ldr.w	r3, [r8]
 8003d48:	009b      	lsls	r3, r3, #2
 8003d4a:	d44a      	bmi.n	8003de2 <HAL_RCCEx_PeriphCLKConfig+0x3f2>
 8003d4c:	6822      	ldr	r2, [r4, #0]
 8003d4e:	0750      	lsls	r0, r2, #29
 8003d50:	d501      	bpl.n	8003d56 <HAL_RCCEx_PeriphCLKConfig+0x366>
 8003d52:	6b23      	ldr	r3, [r4, #48]	; 0x30
 8003d54:	b11b      	cbz	r3, 8003d5e <HAL_RCCEx_PeriphCLKConfig+0x36e>
 8003d56:	0711      	lsls	r1, r2, #28
 8003d58:	d519      	bpl.n	8003d8e <HAL_RCCEx_PeriphCLKConfig+0x39e>
 8003d5a:	6b63      	ldr	r3, [r4, #52]	; 0x34
 8003d5c:	b9bb      	cbnz	r3, 8003d8e <HAL_RCCEx_PeriphCLKConfig+0x39e>
 8003d5e:	f8d6 3088 	ldr.w	r3, [r6, #136]	; 0x88
 8003d62:	69a1      	ldr	r1, [r4, #24]
 8003d64:	f403 3340 	and.w	r3, r3, #196608	; 0x30000
 8003d68:	430b      	orrs	r3, r1
 8003d6a:	69e1      	ldr	r1, [r4, #28]
 8003d6c:	ea43 1381 	orr.w	r3, r3, r1, lsl #6
 8003d70:	6a61      	ldr	r1, [r4, #36]	; 0x24
 8003d72:	ea43 6301 	orr.w	r3, r3, r1, lsl #24
 8003d76:	f8c6 3088 	str.w	r3, [r6, #136]	; 0x88
 8003d7a:	f8d6 308c 	ldr.w	r3, [r6, #140]	; 0x8c
 8003d7e:	6ae1      	ldr	r1, [r4, #44]	; 0x2c
 8003d80:	f423 53f8 	bic.w	r3, r3, #7936	; 0x1f00
 8003d84:	3901      	subs	r1, #1
 8003d86:	ea43 2301 	orr.w	r3, r3, r1, lsl #8
 8003d8a:	f8c6 308c 	str.w	r3, [r6, #140]	; 0x8c
 8003d8e:	05d2      	lsls	r2, r2, #23
 8003d90:	d514      	bpl.n	8003dbc <HAL_RCCEx_PeriphCLKConfig+0x3cc>
 8003d92:	6d63      	ldr	r3, [r4, #84]	; 0x54
 8003d94:	f1b3 6f00 	cmp.w	r3, #134217728	; 0x8000000
 8003d98:	d110      	bne.n	8003dbc <HAL_RCCEx_PeriphCLKConfig+0x3cc>
 8003d9a:	4919      	ldr	r1, [pc, #100]	; (8003e00 <HAL_RCCEx_PeriphCLKConfig+0x410>)
 8003d9c:	69a2      	ldr	r2, [r4, #24]
 8003d9e:	f8d1 3088 	ldr.w	r3, [r1, #136]	; 0x88
 8003da2:	f003 6370 	and.w	r3, r3, #251658240	; 0xf000000
 8003da6:	4313      	orrs	r3, r2
 8003da8:	69e2      	ldr	r2, [r4, #28]
 8003daa:	ea43 1382 	orr.w	r3, r3, r2, lsl #6
 8003dae:	6a22      	ldr	r2, [r4, #32]
 8003db0:	0852      	lsrs	r2, r2, #1
 8003db2:	3a01      	subs	r2, #1
 8003db4:	ea43 4302 	orr.w	r3, r3, r2, lsl #16
 8003db8:	f8c1 3088 	str.w	r3, [r1, #136]	; 0x88
 8003dbc:	2301      	movs	r3, #1
 8003dbe:	602b      	str	r3, [r5, #0]
 8003dc0:	f7fe fa9a 	bl	80022f8 <HAL_GetTick>
 8003dc4:	4d0e      	ldr	r5, [pc, #56]	; (8003e00 <HAL_RCCEx_PeriphCLKConfig+0x410>)
 8003dc6:	4604      	mov	r4, r0
 8003dc8:	682b      	ldr	r3, [r5, #0]
 8003dca:	009b      	lsls	r3, r3, #2
 8003dcc:	d50f      	bpl.n	8003dee <HAL_RCCEx_PeriphCLKConfig+0x3fe>
 8003dce:	2000      	movs	r0, #0
 8003dd0:	e769      	b.n	8003ca6 <HAL_RCCEx_PeriphCLKConfig+0x2b6>
 8003dd2:	f7fe fa91 	bl	80022f8 <HAL_GetTick>
 8003dd6:	eba0 0008 	sub.w	r0, r0, r8
 8003dda:	2802      	cmp	r0, #2
 8003ddc:	f67f aece 	bls.w	8003b7c <HAL_RCCEx_PeriphCLKConfig+0x18c>
 8003de0:	e760      	b.n	8003ca4 <HAL_RCCEx_PeriphCLKConfig+0x2b4>
 8003de2:	f7fe fa89 	bl	80022f8 <HAL_GetTick>
 8003de6:	1bc0      	subs	r0, r0, r7
 8003de8:	2802      	cmp	r0, #2
 8003dea:	d9ab      	bls.n	8003d44 <HAL_RCCEx_PeriphCLKConfig+0x354>
 8003dec:	e75a      	b.n	8003ca4 <HAL_RCCEx_PeriphCLKConfig+0x2b4>
 8003dee:	f7fe fa83 	bl	80022f8 <HAL_GetTick>
 8003df2:	1b00      	subs	r0, r0, r4
 8003df4:	2802      	cmp	r0, #2
 8003df6:	d9e7      	bls.n	8003dc8 <HAL_RCCEx_PeriphCLKConfig+0x3d8>
 8003df8:	e754      	b.n	8003ca4 <HAL_RCCEx_PeriphCLKConfig+0x2b4>
 8003dfa:	bf00      	nop
 8003dfc:	42470e40 	.word	0x42470e40
 8003e00:	40023800 	.word	0x40023800
 8003e04:	42470070 	.word	0x42470070

08003e08 <HAL_RCC_GetSysClockFreq>:
 8003e08:	4920      	ldr	r1, [pc, #128]	; (8003e8c <HAL_RCC_GetSysClockFreq+0x84>)
 8003e0a:	b508      	push	{r3, lr}
 8003e0c:	688b      	ldr	r3, [r1, #8]
 8003e0e:	f003 030c 	and.w	r3, r3, #12
 8003e12:	2b08      	cmp	r3, #8
 8003e14:	d007      	beq.n	8003e26 <HAL_RCC_GetSysClockFreq+0x1e>
 8003e16:	2b0c      	cmp	r3, #12
 8003e18:	d020      	beq.n	8003e5c <HAL_RCC_GetSysClockFreq+0x54>
 8003e1a:	481d      	ldr	r0, [pc, #116]	; (8003e90 <HAL_RCC_GetSysClockFreq+0x88>)
 8003e1c:	4a1d      	ldr	r2, [pc, #116]	; (8003e94 <HAL_RCC_GetSysClockFreq+0x8c>)
 8003e1e:	2b04      	cmp	r3, #4
 8003e20:	bf08      	it	eq
 8003e22:	4610      	moveq	r0, r2
 8003e24:	bd08      	pop	{r3, pc}
 8003e26:	684a      	ldr	r2, [r1, #4]
 8003e28:	684b      	ldr	r3, [r1, #4]
 8003e2a:	6849      	ldr	r1, [r1, #4]
 8003e2c:	f413 0380 	ands.w	r3, r3, #4194304	; 0x400000
 8003e30:	bf14      	ite	ne
 8003e32:	4818      	ldrne	r0, [pc, #96]	; (8003e94 <HAL_RCC_GetSysClockFreq+0x8c>)
 8003e34:	4816      	ldreq	r0, [pc, #88]	; (8003e90 <HAL_RCC_GetSysClockFreq+0x88>)
 8003e36:	f3c1 1188 	ubfx	r1, r1, #6, #9
 8003e3a:	bf18      	it	ne
 8003e3c:	2300      	movne	r3, #0
 8003e3e:	f002 023f 	and.w	r2, r2, #63	; 0x3f
 8003e42:	fba1 0100 	umull	r0, r1, r1, r0
 8003e46:	f7fc ff1f 	bl	8000c88 <__aeabi_uldivmod>
 8003e4a:	4b10      	ldr	r3, [pc, #64]	; (8003e8c <HAL_RCC_GetSysClockFreq+0x84>)
 8003e4c:	685b      	ldr	r3, [r3, #4]
 8003e4e:	f3c3 4301 	ubfx	r3, r3, #16, #2
 8003e52:	3301      	adds	r3, #1
 8003e54:	005b      	lsls	r3, r3, #1
 8003e56:	fbb0 f0f3 	udiv	r0, r0, r3
 8003e5a:	e7e3      	b.n	8003e24 <HAL_RCC_GetSysClockFreq+0x1c>
 8003e5c:	684a      	ldr	r2, [r1, #4]
 8003e5e:	684b      	ldr	r3, [r1, #4]
 8003e60:	6849      	ldr	r1, [r1, #4]
 8003e62:	f413 0380 	ands.w	r3, r3, #4194304	; 0x400000
 8003e66:	bf14      	ite	ne
 8003e68:	480a      	ldrne	r0, [pc, #40]	; (8003e94 <HAL_RCC_GetSysClockFreq+0x8c>)
 8003e6a:	4809      	ldreq	r0, [pc, #36]	; (8003e90 <HAL_RCC_GetSysClockFreq+0x88>)
 8003e6c:	f3c1 1188 	ubfx	r1, r1, #6, #9
 8003e70:	bf18      	it	ne
 8003e72:	2300      	movne	r3, #0
 8003e74:	f002 023f 	and.w	r2, r2, #63	; 0x3f
 8003e78:	fba1 0100 	umull	r0, r1, r1, r0
 8003e7c:	f7fc ff04 	bl	8000c88 <__aeabi_uldivmod>
 8003e80:	4b02      	ldr	r3, [pc, #8]	; (8003e8c <HAL_RCC_GetSysClockFreq+0x84>)
 8003e82:	685b      	ldr	r3, [r3, #4]
 8003e84:	f3c3 7302 	ubfx	r3, r3, #28, #3
 8003e88:	e7e5      	b.n	8003e56 <HAL_RCC_GetSysClockFreq+0x4e>
 8003e8a:	bf00      	nop
 8003e8c:	40023800 	.word	0x40023800
 8003e90:	00f42400 	.word	0x00f42400
 8003e94:	007a1200 	.word	0x007a1200

08003e98 <HAL_RCC_OscConfig>:
 8003e98:	e92d 41f3 	stmdb	sp!, {r0, r1, r4, r5, r6, r7, r8, lr}
 8003e9c:	4604      	mov	r4, r0
 8003e9e:	2800      	cmp	r0, #0
 8003ea0:	d030      	beq.n	8003f04 <HAL_RCC_OscConfig+0x6c>
 8003ea2:	6803      	ldr	r3, [r0, #0]
 8003ea4:	07df      	lsls	r7, r3, #31
 8003ea6:	d410      	bmi.n	8003eca <HAL_RCC_OscConfig+0x32>
 8003ea8:	6823      	ldr	r3, [r4, #0]
 8003eaa:	079e      	lsls	r6, r3, #30
 8003eac:	d463      	bmi.n	8003f76 <HAL_RCC_OscConfig+0xde>
 8003eae:	6823      	ldr	r3, [r4, #0]
 8003eb0:	071a      	lsls	r2, r3, #28
 8003eb2:	f100 80ad 	bmi.w	8004010 <HAL_RCC_OscConfig+0x178>
 8003eb6:	6823      	ldr	r3, [r4, #0]
 8003eb8:	075b      	lsls	r3, r3, #29
 8003eba:	f100 80cb 	bmi.w	8004054 <HAL_RCC_OscConfig+0x1bc>
 8003ebe:	69a0      	ldr	r0, [r4, #24]
 8003ec0:	2800      	cmp	r0, #0
 8003ec2:	f040 8135 	bne.w	8004130 <HAL_RCC_OscConfig+0x298>
 8003ec6:	2000      	movs	r0, #0
 8003ec8:	e034      	b.n	8003f34 <HAL_RCC_OscConfig+0x9c>
 8003eca:	4b95      	ldr	r3, [pc, #596]	; (8004120 <HAL_RCC_OscConfig+0x288>)
 8003ecc:	689a      	ldr	r2, [r3, #8]
 8003ece:	f002 020c 	and.w	r2, r2, #12
 8003ed2:	2a04      	cmp	r2, #4
 8003ed4:	d00f      	beq.n	8003ef6 <HAL_RCC_OscConfig+0x5e>
 8003ed6:	689a      	ldr	r2, [r3, #8]
 8003ed8:	f002 020c 	and.w	r2, r2, #12
 8003edc:	2a08      	cmp	r2, #8
 8003ede:	d102      	bne.n	8003ee6 <HAL_RCC_OscConfig+0x4e>
 8003ee0:	685a      	ldr	r2, [r3, #4]
 8003ee2:	0255      	lsls	r5, r2, #9
 8003ee4:	d407      	bmi.n	8003ef6 <HAL_RCC_OscConfig+0x5e>
 8003ee6:	689a      	ldr	r2, [r3, #8]
 8003ee8:	f002 020c 	and.w	r2, r2, #12
 8003eec:	2a0c      	cmp	r2, #12
 8003eee:	d10b      	bne.n	8003f08 <HAL_RCC_OscConfig+0x70>
 8003ef0:	685b      	ldr	r3, [r3, #4]
 8003ef2:	0258      	lsls	r0, r3, #9
 8003ef4:	d508      	bpl.n	8003f08 <HAL_RCC_OscConfig+0x70>
 8003ef6:	4b8a      	ldr	r3, [pc, #552]	; (8004120 <HAL_RCC_OscConfig+0x288>)
 8003ef8:	681b      	ldr	r3, [r3, #0]
 8003efa:	0399      	lsls	r1, r3, #14
 8003efc:	d5d4      	bpl.n	8003ea8 <HAL_RCC_OscConfig+0x10>
 8003efe:	6863      	ldr	r3, [r4, #4]
 8003f00:	2b00      	cmp	r3, #0
 8003f02:	d1d1      	bne.n	8003ea8 <HAL_RCC_OscConfig+0x10>
 8003f04:	2001      	movs	r0, #1
 8003f06:	e015      	b.n	8003f34 <HAL_RCC_OscConfig+0x9c>
 8003f08:	6863      	ldr	r3, [r4, #4]
 8003f0a:	4d85      	ldr	r5, [pc, #532]	; (8004120 <HAL_RCC_OscConfig+0x288>)
 8003f0c:	f5b3 3f80 	cmp.w	r3, #65536	; 0x10000
 8003f10:	d113      	bne.n	8003f3a <HAL_RCC_OscConfig+0xa2>
 8003f12:	682b      	ldr	r3, [r5, #0]
 8003f14:	f443 3380 	orr.w	r3, r3, #65536	; 0x10000
 8003f18:	602b      	str	r3, [r5, #0]
 8003f1a:	f7fe f9ed 	bl	80022f8 <HAL_GetTick>
 8003f1e:	4e80      	ldr	r6, [pc, #512]	; (8004120 <HAL_RCC_OscConfig+0x288>)
 8003f20:	4605      	mov	r5, r0
 8003f22:	6833      	ldr	r3, [r6, #0]
 8003f24:	039a      	lsls	r2, r3, #14
 8003f26:	d4bf      	bmi.n	8003ea8 <HAL_RCC_OscConfig+0x10>
 8003f28:	f7fe f9e6 	bl	80022f8 <HAL_GetTick>
 8003f2c:	1b40      	subs	r0, r0, r5
 8003f2e:	2864      	cmp	r0, #100	; 0x64
 8003f30:	d9f7      	bls.n	8003f22 <HAL_RCC_OscConfig+0x8a>
 8003f32:	2003      	movs	r0, #3
 8003f34:	b002      	add	sp, #8
 8003f36:	e8bd 81f0 	ldmia.w	sp!, {r4, r5, r6, r7, r8, pc}
 8003f3a:	f5b3 2fa0 	cmp.w	r3, #327680	; 0x50000
 8003f3e:	d104      	bne.n	8003f4a <HAL_RCC_OscConfig+0xb2>
 8003f40:	682b      	ldr	r3, [r5, #0]
 8003f42:	f443 2380 	orr.w	r3, r3, #262144	; 0x40000
 8003f46:	602b      	str	r3, [r5, #0]
 8003f48:	e7e3      	b.n	8003f12 <HAL_RCC_OscConfig+0x7a>
 8003f4a:	682a      	ldr	r2, [r5, #0]
 8003f4c:	f422 3280 	bic.w	r2, r2, #65536	; 0x10000
 8003f50:	602a      	str	r2, [r5, #0]
 8003f52:	682a      	ldr	r2, [r5, #0]
 8003f54:	f422 2280 	bic.w	r2, r2, #262144	; 0x40000
 8003f58:	602a      	str	r2, [r5, #0]
 8003f5a:	2b00      	cmp	r3, #0
 8003f5c:	d1dd      	bne.n	8003f1a <HAL_RCC_OscConfig+0x82>
 8003f5e:	f7fe f9cb 	bl	80022f8 <HAL_GetTick>
 8003f62:	4606      	mov	r6, r0
 8003f64:	682b      	ldr	r3, [r5, #0]
 8003f66:	039b      	lsls	r3, r3, #14
 8003f68:	d59e      	bpl.n	8003ea8 <HAL_RCC_OscConfig+0x10>
 8003f6a:	f7fe f9c5 	bl	80022f8 <HAL_GetTick>
 8003f6e:	1b80      	subs	r0, r0, r6
 8003f70:	2864      	cmp	r0, #100	; 0x64
 8003f72:	d9f7      	bls.n	8003f64 <HAL_RCC_OscConfig+0xcc>
 8003f74:	e7dd      	b.n	8003f32 <HAL_RCC_OscConfig+0x9a>
 8003f76:	4b6a      	ldr	r3, [pc, #424]	; (8004120 <HAL_RCC_OscConfig+0x288>)
 8003f78:	689a      	ldr	r2, [r3, #8]
 8003f7a:	f012 0f0c 	tst.w	r2, #12
 8003f7e:	d00f      	beq.n	8003fa0 <HAL_RCC_OscConfig+0x108>
 8003f80:	689a      	ldr	r2, [r3, #8]
 8003f82:	f002 020c 	and.w	r2, r2, #12
 8003f86:	2a08      	cmp	r2, #8
 8003f88:	d102      	bne.n	8003f90 <HAL_RCC_OscConfig+0xf8>
 8003f8a:	685a      	ldr	r2, [r3, #4]
 8003f8c:	0257      	lsls	r7, r2, #9
 8003f8e:	d507      	bpl.n	8003fa0 <HAL_RCC_OscConfig+0x108>
 8003f90:	689a      	ldr	r2, [r3, #8]
 8003f92:	f002 020c 	and.w	r2, r2, #12
 8003f96:	2a0c      	cmp	r2, #12
 8003f98:	d111      	bne.n	8003fbe <HAL_RCC_OscConfig+0x126>
 8003f9a:	685b      	ldr	r3, [r3, #4]
 8003f9c:	025e      	lsls	r6, r3, #9
 8003f9e:	d40e      	bmi.n	8003fbe <HAL_RCC_OscConfig+0x126>
 8003fa0:	4b5f      	ldr	r3, [pc, #380]	; (8004120 <HAL_RCC_OscConfig+0x288>)
 8003fa2:	681a      	ldr	r2, [r3, #0]
 8003fa4:	0795      	lsls	r5, r2, #30
 8003fa6:	d502      	bpl.n	8003fae <HAL_RCC_OscConfig+0x116>
 8003fa8:	68e2      	ldr	r2, [r4, #12]
 8003faa:	2a01      	cmp	r2, #1
 8003fac:	d1aa      	bne.n	8003f04 <HAL_RCC_OscConfig+0x6c>
 8003fae:	681a      	ldr	r2, [r3, #0]
 8003fb0:	6921      	ldr	r1, [r4, #16]
 8003fb2:	f022 02f8 	bic.w	r2, r2, #248	; 0xf8
 8003fb6:	ea42 02c1 	orr.w	r2, r2, r1, lsl #3
 8003fba:	601a      	str	r2, [r3, #0]
 8003fbc:	e777      	b.n	8003eae <HAL_RCC_OscConfig+0x16>
 8003fbe:	68e2      	ldr	r2, [r4, #12]
 8003fc0:	4b58      	ldr	r3, [pc, #352]	; (8004124 <HAL_RCC_OscConfig+0x28c>)
 8003fc2:	b1b2      	cbz	r2, 8003ff2 <HAL_RCC_OscConfig+0x15a>
 8003fc4:	2201      	movs	r2, #1
 8003fc6:	601a      	str	r2, [r3, #0]
 8003fc8:	f7fe f996 	bl	80022f8 <HAL_GetTick>
 8003fcc:	4d54      	ldr	r5, [pc, #336]	; (8004120 <HAL_RCC_OscConfig+0x288>)
 8003fce:	4606      	mov	r6, r0
 8003fd0:	682b      	ldr	r3, [r5, #0]
 8003fd2:	0798      	lsls	r0, r3, #30
 8003fd4:	d507      	bpl.n	8003fe6 <HAL_RCC_OscConfig+0x14e>
 8003fd6:	682b      	ldr	r3, [r5, #0]
 8003fd8:	6922      	ldr	r2, [r4, #16]
 8003fda:	f023 03f8 	bic.w	r3, r3, #248	; 0xf8
 8003fde:	ea43 03c2 	orr.w	r3, r3, r2, lsl #3
 8003fe2:	602b      	str	r3, [r5, #0]
 8003fe4:	e763      	b.n	8003eae <HAL_RCC_OscConfig+0x16>
 8003fe6:	f7fe f987 	bl	80022f8 <HAL_GetTick>
 8003fea:	1b80      	subs	r0, r0, r6
 8003fec:	2802      	cmp	r0, #2
 8003fee:	d9ef      	bls.n	8003fd0 <HAL_RCC_OscConfig+0x138>
 8003ff0:	e79f      	b.n	8003f32 <HAL_RCC_OscConfig+0x9a>
 8003ff2:	601a      	str	r2, [r3, #0]
 8003ff4:	f7fe f980 	bl	80022f8 <HAL_GetTick>
 8003ff8:	4e49      	ldr	r6, [pc, #292]	; (8004120 <HAL_RCC_OscConfig+0x288>)
 8003ffa:	4605      	mov	r5, r0
 8003ffc:	6833      	ldr	r3, [r6, #0]
 8003ffe:	0799      	lsls	r1, r3, #30
 8004000:	f57f af55 	bpl.w	8003eae <HAL_RCC_OscConfig+0x16>
 8004004:	f7fe f978 	bl	80022f8 <HAL_GetTick>
 8004008:	1b40      	subs	r0, r0, r5
 800400a:	2802      	cmp	r0, #2
 800400c:	d9f6      	bls.n	8003ffc <HAL_RCC_OscConfig+0x164>
 800400e:	e790      	b.n	8003f32 <HAL_RCC_OscConfig+0x9a>
 8004010:	6962      	ldr	r2, [r4, #20]
 8004012:	4b45      	ldr	r3, [pc, #276]	; (8004128 <HAL_RCC_OscConfig+0x290>)
 8004014:	b17a      	cbz	r2, 8004036 <HAL_RCC_OscConfig+0x19e>
 8004016:	2201      	movs	r2, #1
 8004018:	601a      	str	r2, [r3, #0]
 800401a:	f7fe f96d 	bl	80022f8 <HAL_GetTick>
 800401e:	4e40      	ldr	r6, [pc, #256]	; (8004120 <HAL_RCC_OscConfig+0x288>)
 8004020:	4605      	mov	r5, r0
 8004022:	6f73      	ldr	r3, [r6, #116]	; 0x74
 8004024:	079f      	lsls	r7, r3, #30
 8004026:	f53f af46 	bmi.w	8003eb6 <HAL_RCC_OscConfig+0x1e>
 800402a:	f7fe f965 	bl	80022f8 <HAL_GetTick>
 800402e:	1b40      	subs	r0, r0, r5
 8004030:	2802      	cmp	r0, #2
 8004032:	d9f6      	bls.n	8004022 <HAL_RCC_OscConfig+0x18a>
 8004034:	e77d      	b.n	8003f32 <HAL_RCC_OscConfig+0x9a>
 8004036:	601a      	str	r2, [r3, #0]
 8004038:	f7fe f95e 	bl	80022f8 <HAL_GetTick>
 800403c:	4e38      	ldr	r6, [pc, #224]	; (8004120 <HAL_RCC_OscConfig+0x288>)
 800403e:	4605      	mov	r5, r0
 8004040:	6f73      	ldr	r3, [r6, #116]	; 0x74
 8004042:	0798      	lsls	r0, r3, #30
 8004044:	f57f af37 	bpl.w	8003eb6 <HAL_RCC_OscConfig+0x1e>
 8004048:	f7fe f956 	bl	80022f8 <HAL_GetTick>
 800404c:	1b40      	subs	r0, r0, r5
 800404e:	2802      	cmp	r0, #2
 8004050:	d9f6      	bls.n	8004040 <HAL_RCC_OscConfig+0x1a8>
 8004052:	e76e      	b.n	8003f32 <HAL_RCC_OscConfig+0x9a>
 8004054:	4b32      	ldr	r3, [pc, #200]	; (8004120 <HAL_RCC_OscConfig+0x288>)
 8004056:	6c1a      	ldr	r2, [r3, #64]	; 0x40
 8004058:	f012 5280 	ands.w	r2, r2, #268435456	; 0x10000000
 800405c:	d128      	bne.n	80040b0 <HAL_RCC_OscConfig+0x218>
 800405e:	9201      	str	r2, [sp, #4]
 8004060:	6c1a      	ldr	r2, [r3, #64]	; 0x40
 8004062:	f042 5280 	orr.w	r2, r2, #268435456	; 0x10000000
 8004066:	641a      	str	r2, [r3, #64]	; 0x40
 8004068:	6c1b      	ldr	r3, [r3, #64]	; 0x40
 800406a:	f003 5380 	and.w	r3, r3, #268435456	; 0x10000000
 800406e:	9301      	str	r3, [sp, #4]
 8004070:	9b01      	ldr	r3, [sp, #4]
 8004072:	2701      	movs	r7, #1
 8004074:	4d2d      	ldr	r5, [pc, #180]	; (800412c <HAL_RCC_OscConfig+0x294>)
 8004076:	682b      	ldr	r3, [r5, #0]
 8004078:	05d9      	lsls	r1, r3, #23
 800407a:	d51b      	bpl.n	80040b4 <HAL_RCC_OscConfig+0x21c>
 800407c:	68a3      	ldr	r3, [r4, #8]
 800407e:	4d28      	ldr	r5, [pc, #160]	; (8004120 <HAL_RCC_OscConfig+0x288>)
 8004080:	2b01      	cmp	r3, #1
 8004082:	d127      	bne.n	80040d4 <HAL_RCC_OscConfig+0x23c>
 8004084:	6f2b      	ldr	r3, [r5, #112]	; 0x70
 8004086:	f043 0301 	orr.w	r3, r3, #1
 800408a:	672b      	str	r3, [r5, #112]	; 0x70
 800408c:	f7fe f934 	bl	80022f8 <HAL_GetTick>
 8004090:	4e23      	ldr	r6, [pc, #140]	; (8004120 <HAL_RCC_OscConfig+0x288>)
 8004092:	4605      	mov	r5, r0
 8004094:	f241 3888 	movw	r8, #5000	; 0x1388
 8004098:	6f33      	ldr	r3, [r6, #112]	; 0x70
 800409a:	079b      	lsls	r3, r3, #30
 800409c:	d539      	bpl.n	8004112 <HAL_RCC_OscConfig+0x27a>
 800409e:	2f00      	cmp	r7, #0
 80040a0:	f43f af0d 	beq.w	8003ebe <HAL_RCC_OscConfig+0x26>
 80040a4:	4a1e      	ldr	r2, [pc, #120]	; (8004120 <HAL_RCC_OscConfig+0x288>)
 80040a6:	6c13      	ldr	r3, [r2, #64]	; 0x40
 80040a8:	f023 5380 	bic.w	r3, r3, #268435456	; 0x10000000
 80040ac:	6413      	str	r3, [r2, #64]	; 0x40
 80040ae:	e706      	b.n	8003ebe <HAL_RCC_OscConfig+0x26>
 80040b0:	2700      	movs	r7, #0
 80040b2:	e7df      	b.n	8004074 <HAL_RCC_OscConfig+0x1dc>
 80040b4:	682b      	ldr	r3, [r5, #0]
 80040b6:	f443 7380 	orr.w	r3, r3, #256	; 0x100
 80040ba:	602b      	str	r3, [r5, #0]
 80040bc:	f7fe f91c 	bl	80022f8 <HAL_GetTick>
 80040c0:	4606      	mov	r6, r0
 80040c2:	682b      	ldr	r3, [r5, #0]
 80040c4:	05da      	lsls	r2, r3, #23
 80040c6:	d4d9      	bmi.n	800407c <HAL_RCC_OscConfig+0x1e4>
 80040c8:	f7fe f916 	bl	80022f8 <HAL_GetTick>
 80040cc:	1b80      	subs	r0, r0, r6
 80040ce:	2802      	cmp	r0, #2
 80040d0:	d9f7      	bls.n	80040c2 <HAL_RCC_OscConfig+0x22a>
 80040d2:	e72e      	b.n	8003f32 <HAL_RCC_OscConfig+0x9a>
 80040d4:	2b05      	cmp	r3, #5
 80040d6:	d104      	bne.n	80040e2 <HAL_RCC_OscConfig+0x24a>
 80040d8:	6f2b      	ldr	r3, [r5, #112]	; 0x70
 80040da:	f043 0304 	orr.w	r3, r3, #4
 80040de:	672b      	str	r3, [r5, #112]	; 0x70
 80040e0:	e7d0      	b.n	8004084 <HAL_RCC_OscConfig+0x1ec>
 80040e2:	6f2a      	ldr	r2, [r5, #112]	; 0x70
 80040e4:	f022 0201 	bic.w	r2, r2, #1
 80040e8:	672a      	str	r2, [r5, #112]	; 0x70
 80040ea:	6f2a      	ldr	r2, [r5, #112]	; 0x70
 80040ec:	f022 0204 	bic.w	r2, r2, #4
 80040f0:	672a      	str	r2, [r5, #112]	; 0x70
 80040f2:	2b00      	cmp	r3, #0
 80040f4:	d1ca      	bne.n	800408c <HAL_RCC_OscConfig+0x1f4>
 80040f6:	f7fe f8ff 	bl	80022f8 <HAL_GetTick>
 80040fa:	f241 3888 	movw	r8, #5000	; 0x1388
 80040fe:	4606      	mov	r6, r0
 8004100:	6f2b      	ldr	r3, [r5, #112]	; 0x70
 8004102:	0798      	lsls	r0, r3, #30
 8004104:	d5cb      	bpl.n	800409e <HAL_RCC_OscConfig+0x206>
 8004106:	f7fe f8f7 	bl	80022f8 <HAL_GetTick>
 800410a:	1b80      	subs	r0, r0, r6
 800410c:	4540      	cmp	r0, r8
 800410e:	d9f7      	bls.n	8004100 <HAL_RCC_OscConfig+0x268>
 8004110:	e70f      	b.n	8003f32 <HAL_RCC_OscConfig+0x9a>
 8004112:	f7fe f8f1 	bl	80022f8 <HAL_GetTick>
 8004116:	1b40      	subs	r0, r0, r5
 8004118:	4540      	cmp	r0, r8
 800411a:	d9bd      	bls.n	8004098 <HAL_RCC_OscConfig+0x200>
 800411c:	e709      	b.n	8003f32 <HAL_RCC_OscConfig+0x9a>
 800411e:	bf00      	nop
 8004120:	40023800 	.word	0x40023800
 8004124:	42470000 	.word	0x42470000
 8004128:	42470e80 	.word	0x42470e80
 800412c:	40007000 	.word	0x40007000
 8004130:	4d3a      	ldr	r5, [pc, #232]	; (800421c <HAL_RCC_OscConfig+0x384>)
 8004132:	68ab      	ldr	r3, [r5, #8]
 8004134:	f003 030c 	and.w	r3, r3, #12
 8004138:	2b08      	cmp	r3, #8
 800413a:	d03f      	beq.n	80041bc <HAL_RCC_OscConfig+0x324>
 800413c:	4e38      	ldr	r6, [pc, #224]	; (8004220 <HAL_RCC_OscConfig+0x388>)
 800413e:	2300      	movs	r3, #0
 8004140:	2802      	cmp	r0, #2
 8004142:	6033      	str	r3, [r6, #0]
 8004144:	d12d      	bne.n	80041a2 <HAL_RCC_OscConfig+0x30a>
 8004146:	f7fe f8d7 	bl	80022f8 <HAL_GetTick>
 800414a:	4607      	mov	r7, r0
 800414c:	682b      	ldr	r3, [r5, #0]
 800414e:	0199      	lsls	r1, r3, #6
 8004150:	d421      	bmi.n	8004196 <HAL_RCC_OscConfig+0x2fe>
 8004152:	e9d4 3207 	ldrd	r3, r2, [r4, #28]
 8004156:	4313      	orrs	r3, r2
 8004158:	6a62      	ldr	r2, [r4, #36]	; 0x24
 800415a:	ea43 1382 	orr.w	r3, r3, r2, lsl #6
 800415e:	6ae2      	ldr	r2, [r4, #44]	; 0x2c
 8004160:	ea43 6302 	orr.w	r3, r3, r2, lsl #24
 8004164:	6b22      	ldr	r2, [r4, #48]	; 0x30
 8004166:	ea43 7302 	orr.w	r3, r3, r2, lsl #28
 800416a:	6aa2      	ldr	r2, [r4, #40]	; 0x28
 800416c:	0852      	lsrs	r2, r2, #1
 800416e:	3a01      	subs	r2, #1
 8004170:	ea43 4302 	orr.w	r3, r3, r2, lsl #16
 8004174:	606b      	str	r3, [r5, #4]
 8004176:	2301      	movs	r3, #1
 8004178:	6033      	str	r3, [r6, #0]
 800417a:	f7fe f8bd 	bl	80022f8 <HAL_GetTick>
 800417e:	4d27      	ldr	r5, [pc, #156]	; (800421c <HAL_RCC_OscConfig+0x384>)
 8004180:	4604      	mov	r4, r0
 8004182:	682b      	ldr	r3, [r5, #0]
 8004184:	019a      	lsls	r2, r3, #6
 8004186:	f53f ae9e 	bmi.w	8003ec6 <HAL_RCC_OscConfig+0x2e>
 800418a:	f7fe f8b5 	bl	80022f8 <HAL_GetTick>
 800418e:	1b00      	subs	r0, r0, r4
 8004190:	2802      	cmp	r0, #2
 8004192:	d9f6      	bls.n	8004182 <HAL_RCC_OscConfig+0x2ea>
 8004194:	e6cd      	b.n	8003f32 <HAL_RCC_OscConfig+0x9a>
 8004196:	f7fe f8af 	bl	80022f8 <HAL_GetTick>
 800419a:	1bc0      	subs	r0, r0, r7
 800419c:	2802      	cmp	r0, #2
 800419e:	d9d5      	bls.n	800414c <HAL_RCC_OscConfig+0x2b4>
 80041a0:	e6c7      	b.n	8003f32 <HAL_RCC_OscConfig+0x9a>
 80041a2:	f7fe f8a9 	bl	80022f8 <HAL_GetTick>
 80041a6:	4604      	mov	r4, r0
 80041a8:	682b      	ldr	r3, [r5, #0]
 80041aa:	019b      	lsls	r3, r3, #6
 80041ac:	f57f ae8b 	bpl.w	8003ec6 <HAL_RCC_OscConfig+0x2e>
 80041b0:	f7fe f8a2 	bl	80022f8 <HAL_GetTick>
 80041b4:	1b00      	subs	r0, r0, r4
 80041b6:	2802      	cmp	r0, #2
 80041b8:	d9f6      	bls.n	80041a8 <HAL_RCC_OscConfig+0x310>
 80041ba:	e6ba      	b.n	8003f32 <HAL_RCC_OscConfig+0x9a>
 80041bc:	2801      	cmp	r0, #1
 80041be:	f43f aeb9 	beq.w	8003f34 <HAL_RCC_OscConfig+0x9c>
 80041c2:	686b      	ldr	r3, [r5, #4]
 80041c4:	69e2      	ldr	r2, [r4, #28]
 80041c6:	f403 0180 	and.w	r1, r3, #4194304	; 0x400000
 80041ca:	4291      	cmp	r1, r2
 80041cc:	f47f ae9a 	bne.w	8003f04 <HAL_RCC_OscConfig+0x6c>
 80041d0:	6a21      	ldr	r1, [r4, #32]
 80041d2:	f003 023f 	and.w	r2, r3, #63	; 0x3f
 80041d6:	428a      	cmp	r2, r1
 80041d8:	f47f ae94 	bne.w	8003f04 <HAL_RCC_OscConfig+0x6c>
 80041dc:	6a61      	ldr	r1, [r4, #36]	; 0x24
 80041de:	f647 72c0 	movw	r2, #32704	; 0x7fc0
 80041e2:	401a      	ands	r2, r3
 80041e4:	ebb2 1f81 	cmp.w	r2, r1, lsl #6
 80041e8:	f47f ae8c 	bne.w	8003f04 <HAL_RCC_OscConfig+0x6c>
 80041ec:	6aa2      	ldr	r2, [r4, #40]	; 0x28
 80041ee:	0852      	lsrs	r2, r2, #1
 80041f0:	f403 3140 	and.w	r1, r3, #196608	; 0x30000
 80041f4:	3a01      	subs	r2, #1
 80041f6:	ebb1 4f02 	cmp.w	r1, r2, lsl #16
 80041fa:	f47f ae83 	bne.w	8003f04 <HAL_RCC_OscConfig+0x6c>
 80041fe:	6ae1      	ldr	r1, [r4, #44]	; 0x2c
 8004200:	f003 6270 	and.w	r2, r3, #251658240	; 0xf000000
 8004204:	ebb2 6f01 	cmp.w	r2, r1, lsl #24
 8004208:	f47f ae7c 	bne.w	8003f04 <HAL_RCC_OscConfig+0x6c>
 800420c:	6b22      	ldr	r2, [r4, #48]	; 0x30
 800420e:	f003 43e0 	and.w	r3, r3, #1879048192	; 0x70000000
 8004212:	ebb3 7f02 	cmp.w	r3, r2, lsl #28
 8004216:	f43f ae56 	beq.w	8003ec6 <HAL_RCC_OscConfig+0x2e>
 800421a:	e673      	b.n	8003f04 <HAL_RCC_OscConfig+0x6c>
 800421c:	40023800 	.word	0x40023800
 8004220:	42470060 	.word	0x42470060

08004224 <SPI_WaitFlagStateUntilTimeout.constprop.0>:
 8004224:	e92d 41f3 	stmdb	sp!, {r0, r1, r4, r5, r6, r7, r8, lr}
 8004228:	461d      	mov	r5, r3
 800422a:	4617      	mov	r7, r2
 800422c:	4688      	mov	r8, r1
 800422e:	4606      	mov	r6, r0
 8004230:	f7fe f862 	bl	80022f8 <HAL_GetTick>
 8004234:	443d      	add	r5, r7
 8004236:	1a2c      	subs	r4, r5, r0
 8004238:	f7fe f85e 	bl	80022f8 <HAL_GetTick>
 800423c:	4b22      	ldr	r3, [pc, #136]	; (80042c8 <SPI_WaitFlagStateUntilTimeout.constprop.0+0xa4>)
 800423e:	681b      	ldr	r3, [r3, #0]
 8004240:	f3c3 33cb 	ubfx	r3, r3, #15, #12
 8004244:	4605      	mov	r5, r0
 8004246:	4363      	muls	r3, r4
 8004248:	6832      	ldr	r2, [r6, #0]
 800424a:	9301      	str	r3, [sp, #4]
 800424c:	6893      	ldr	r3, [r2, #8]
 800424e:	ea38 0303 	bics.w	r3, r8, r3
 8004252:	d001      	beq.n	8004258 <SPI_WaitFlagStateUntilTimeout.constprop.0+0x34>
 8004254:	2000      	movs	r0, #0
 8004256:	e02d      	b.n	80042b4 <SPI_WaitFlagStateUntilTimeout.constprop.0+0x90>
 8004258:	1c7b      	adds	r3, r7, #1
 800425a:	d0f7      	beq.n	800424c <SPI_WaitFlagStateUntilTimeout.constprop.0+0x28>
 800425c:	f7fe f84c 	bl	80022f8 <HAL_GetTick>
 8004260:	1b40      	subs	r0, r0, r5
 8004262:	42a0      	cmp	r0, r4
 8004264:	d329      	bcc.n	80042ba <SPI_WaitFlagStateUntilTimeout.constprop.0+0x96>
 8004266:	6833      	ldr	r3, [r6, #0]
 8004268:	685a      	ldr	r2, [r3, #4]
 800426a:	f022 02e0 	bic.w	r2, r2, #224	; 0xe0
 800426e:	605a      	str	r2, [r3, #4]
 8004270:	6872      	ldr	r2, [r6, #4]
 8004272:	f5b2 7f82 	cmp.w	r2, #260	; 0x104
 8004276:	d10a      	bne.n	800428e <SPI_WaitFlagStateUntilTimeout.constprop.0+0x6a>
 8004278:	68b2      	ldr	r2, [r6, #8]
 800427a:	f5b2 4f00 	cmp.w	r2, #32768	; 0x8000
 800427e:	d002      	beq.n	8004286 <SPI_WaitFlagStateUntilTimeout.constprop.0+0x62>
 8004280:	f5b2 6f80 	cmp.w	r2, #1024	; 0x400
 8004284:	d103      	bne.n	800428e <SPI_WaitFlagStateUntilTimeout.constprop.0+0x6a>
 8004286:	681a      	ldr	r2, [r3, #0]
 8004288:	f022 0240 	bic.w	r2, r2, #64	; 0x40
 800428c:	601a      	str	r2, [r3, #0]
 800428e:	6ab2      	ldr	r2, [r6, #40]	; 0x28
 8004290:	f5b2 5f00 	cmp.w	r2, #8192	; 0x2000
 8004294:	d107      	bne.n	80042a6 <SPI_WaitFlagStateUntilTimeout.constprop.0+0x82>
 8004296:	681a      	ldr	r2, [r3, #0]
 8004298:	f422 5200 	bic.w	r2, r2, #8192	; 0x2000
 800429c:	601a      	str	r2, [r3, #0]
 800429e:	681a      	ldr	r2, [r3, #0]
 80042a0:	f442 5200 	orr.w	r2, r2, #8192	; 0x2000
 80042a4:	601a      	str	r2, [r3, #0]
 80042a6:	2301      	movs	r3, #1
 80042a8:	f886 3051 	strb.w	r3, [r6, #81]	; 0x51
 80042ac:	2300      	movs	r3, #0
 80042ae:	f886 3050 	strb.w	r3, [r6, #80]	; 0x50
 80042b2:	2003      	movs	r0, #3
 80042b4:	b002      	add	sp, #8
 80042b6:	e8bd 81f0 	ldmia.w	sp!, {r4, r5, r6, r7, r8, pc}
 80042ba:	9b01      	ldr	r3, [sp, #4]
 80042bc:	2b00      	cmp	r3, #0
 80042be:	9b01      	ldr	r3, [sp, #4]
 80042c0:	bf08      	it	eq
 80042c2:	2400      	moveq	r4, #0
 80042c4:	3b01      	subs	r3, #1
 80042c6:	e7bf      	b.n	8004248 <SPI_WaitFlagStateUntilTimeout.constprop.0+0x24>
 80042c8:	20000000 	.word	0x20000000

080042cc <SPI_EndRxTxTransaction>:
 80042cc:	b537      	push	{r0, r1, r2, r4, r5, lr}
 80042ce:	4613      	mov	r3, r2
 80042d0:	4a12      	ldr	r2, [pc, #72]	; (800431c <SPI_EndRxTxTransaction+0x50>)
 80042d2:	4d13      	ldr	r5, [pc, #76]	; (8004320 <SPI_EndRxTxTransaction+0x54>)
 80042d4:	6812      	ldr	r2, [r2, #0]
 80042d6:	fbb2 f5f5 	udiv	r5, r2, r5
 80042da:	f44f 727a 	mov.w	r2, #1000	; 0x3e8
 80042de:	436a      	muls	r2, r5
 80042e0:	9201      	str	r2, [sp, #4]
 80042e2:	6842      	ldr	r2, [r0, #4]
 80042e4:	f5b2 7f82 	cmp.w	r2, #260	; 0x104
 80042e8:	4604      	mov	r4, r0
 80042ea:	d10b      	bne.n	8004304 <SPI_EndRxTxTransaction+0x38>
 80042ec:	460a      	mov	r2, r1
 80042ee:	2180      	movs	r1, #128	; 0x80
 80042f0:	f7ff ff98 	bl	8004224 <SPI_WaitFlagStateUntilTimeout.constprop.0>
 80042f4:	b178      	cbz	r0, 8004316 <SPI_EndRxTxTransaction+0x4a>
 80042f6:	6d63      	ldr	r3, [r4, #84]	; 0x54
 80042f8:	f043 0320 	orr.w	r3, r3, #32
 80042fc:	6563      	str	r3, [r4, #84]	; 0x54
 80042fe:	2003      	movs	r0, #3
 8004300:	b003      	add	sp, #12
 8004302:	bd30      	pop	{r4, r5, pc}
 8004304:	9b01      	ldr	r3, [sp, #4]
 8004306:	b133      	cbz	r3, 8004316 <SPI_EndRxTxTransaction+0x4a>
 8004308:	9b01      	ldr	r3, [sp, #4]
 800430a:	3b01      	subs	r3, #1
 800430c:	9301      	str	r3, [sp, #4]
 800430e:	6823      	ldr	r3, [r4, #0]
 8004310:	689b      	ldr	r3, [r3, #8]
 8004312:	061b      	lsls	r3, r3, #24
 8004314:	d4f6      	bmi.n	8004304 <SPI_EndRxTxTransaction+0x38>
 8004316:	2000      	movs	r0, #0
 8004318:	e7f2      	b.n	8004300 <SPI_EndRxTxTransaction+0x34>
 800431a:	bf00      	nop
 800431c:	20000000 	.word	0x20000000
 8004320:	016e3600 	.word	0x016e3600

08004324 <HAL_SPI_Init>:
 8004324:	b510      	push	{r4, lr}
 8004326:	4604      	mov	r4, r0
 8004328:	2800      	cmp	r0, #0
 800432a:	d055      	beq.n	80043d8 <HAL_SPI_Init+0xb4>
 800432c:	6a43      	ldr	r3, [r0, #36]	; 0x24
 800432e:	2b00      	cmp	r3, #0
 8004330:	d14e      	bne.n	80043d0 <HAL_SPI_Init+0xac>
 8004332:	6842      	ldr	r2, [r0, #4]
 8004334:	f5b2 7f82 	cmp.w	r2, #260	; 0x104
 8004338:	d000      	beq.n	800433c <HAL_SPI_Init+0x18>
 800433a:	61c3      	str	r3, [r0, #28]
 800433c:	2300      	movs	r3, #0
 800433e:	62a3      	str	r3, [r4, #40]	; 0x28
 8004340:	f894 3051 	ldrb.w	r3, [r4, #81]	; 0x51
 8004344:	f003 02ff 	and.w	r2, r3, #255	; 0xff
 8004348:	b923      	cbnz	r3, 8004354 <HAL_SPI_Init+0x30>
 800434a:	f884 2050 	strb.w	r2, [r4, #80]	; 0x50
 800434e:	4620      	mov	r0, r4
 8004350:	f7fd fd56 	bl	8001e00 <HAL_SPI_MspInit>
 8004354:	6821      	ldr	r1, [r4, #0]
 8004356:	68a0      	ldr	r0, [r4, #8]
 8004358:	69a2      	ldr	r2, [r4, #24]
 800435a:	2302      	movs	r3, #2
 800435c:	f884 3051 	strb.w	r3, [r4, #81]	; 0x51
 8004360:	680b      	ldr	r3, [r1, #0]
 8004362:	f023 0340 	bic.w	r3, r3, #64	; 0x40
 8004366:	600b      	str	r3, [r1, #0]
 8004368:	6863      	ldr	r3, [r4, #4]
 800436a:	f400 4004 	and.w	r0, r0, #33792	; 0x8400
 800436e:	f403 7382 	and.w	r3, r3, #260	; 0x104
 8004372:	4303      	orrs	r3, r0
 8004374:	68e0      	ldr	r0, [r4, #12]
 8004376:	f400 6000 	and.w	r0, r0, #2048	; 0x800
 800437a:	4303      	orrs	r3, r0
 800437c:	6920      	ldr	r0, [r4, #16]
 800437e:	f000 0002 	and.w	r0, r0, #2
 8004382:	4303      	orrs	r3, r0
 8004384:	6960      	ldr	r0, [r4, #20]
 8004386:	f000 0001 	and.w	r0, r0, #1
 800438a:	4303      	orrs	r3, r0
 800438c:	f402 7000 	and.w	r0, r2, #512	; 0x200
 8004390:	4303      	orrs	r3, r0
 8004392:	69e0      	ldr	r0, [r4, #28]
 8004394:	f000 0038 	and.w	r0, r0, #56	; 0x38
 8004398:	4303      	orrs	r3, r0
 800439a:	6a20      	ldr	r0, [r4, #32]
 800439c:	f000 0080 	and.w	r0, r0, #128	; 0x80
 80043a0:	4303      	orrs	r3, r0
 80043a2:	6aa0      	ldr	r0, [r4, #40]	; 0x28
 80043a4:	f400 5000 	and.w	r0, r0, #8192	; 0x2000
 80043a8:	4303      	orrs	r3, r0
 80043aa:	600b      	str	r3, [r1, #0]
 80043ac:	6a63      	ldr	r3, [r4, #36]	; 0x24
 80043ae:	0c12      	lsrs	r2, r2, #16
 80043b0:	f003 0310 	and.w	r3, r3, #16
 80043b4:	f002 0204 	and.w	r2, r2, #4
 80043b8:	431a      	orrs	r2, r3
 80043ba:	604a      	str	r2, [r1, #4]
 80043bc:	69cb      	ldr	r3, [r1, #28]
 80043be:	f423 6300 	bic.w	r3, r3, #2048	; 0x800
 80043c2:	61cb      	str	r3, [r1, #28]
 80043c4:	2000      	movs	r0, #0
 80043c6:	2301      	movs	r3, #1
 80043c8:	6560      	str	r0, [r4, #84]	; 0x54
 80043ca:	f884 3051 	strb.w	r3, [r4, #81]	; 0x51
 80043ce:	bd10      	pop	{r4, pc}
 80043d0:	2300      	movs	r3, #0
 80043d2:	e9c0 3304 	strd	r3, r3, [r0, #16]
 80043d6:	e7b1      	b.n	800433c <HAL_SPI_Init+0x18>
 80043d8:	2001      	movs	r0, #1
 80043da:	e7f8      	b.n	80043ce <HAL_SPI_Init+0xaa>

080043dc <HAL_SPI_TransmitReceive>:
 80043dc:	e92d 43f7 	stmdb	sp!, {r0, r1, r2, r4, r5, r6, r7, r8, r9, lr}
 80043e0:	461e      	mov	r6, r3
 80043e2:	f890 3050 	ldrb.w	r3, [r0, #80]	; 0x50
 80043e6:	f8dd 8028 	ldr.w	r8, [sp, #40]	; 0x28
 80043ea:	2b01      	cmp	r3, #1
 80043ec:	4604      	mov	r4, r0
 80043ee:	460d      	mov	r5, r1
 80043f0:	4691      	mov	r9, r2
 80043f2:	f000 80e0 	beq.w	80045b6 <HAL_SPI_TransmitReceive+0x1da>
 80043f6:	2301      	movs	r3, #1
 80043f8:	f880 3050 	strb.w	r3, [r0, #80]	; 0x50
 80043fc:	f7fd ff7c 	bl	80022f8 <HAL_GetTick>
 8004400:	f894 3051 	ldrb.w	r3, [r4, #81]	; 0x51
 8004404:	6862      	ldr	r2, [r4, #4]
 8004406:	2b01      	cmp	r3, #1
 8004408:	4607      	mov	r7, r0
 800440a:	b2d9      	uxtb	r1, r3
 800440c:	d00a      	beq.n	8004424 <HAL_SPI_TransmitReceive+0x48>
 800440e:	f5b2 7f82 	cmp.w	r2, #260	; 0x104
 8004412:	f040 80ce 	bne.w	80045b2 <HAL_SPI_TransmitReceive+0x1d6>
 8004416:	68a3      	ldr	r3, [r4, #8]
 8004418:	2b00      	cmp	r3, #0
 800441a:	f040 80ca 	bne.w	80045b2 <HAL_SPI_TransmitReceive+0x1d6>
 800441e:	2904      	cmp	r1, #4
 8004420:	f040 80c7 	bne.w	80045b2 <HAL_SPI_TransmitReceive+0x1d6>
 8004424:	2d00      	cmp	r5, #0
 8004426:	d03f      	beq.n	80044a8 <HAL_SPI_TransmitReceive+0xcc>
 8004428:	f1b9 0f00 	cmp.w	r9, #0
 800442c:	d03c      	beq.n	80044a8 <HAL_SPI_TransmitReceive+0xcc>
 800442e:	2e00      	cmp	r6, #0
 8004430:	d03a      	beq.n	80044a8 <HAL_SPI_TransmitReceive+0xcc>
 8004432:	f894 3051 	ldrb.w	r3, [r4, #81]	; 0x51
 8004436:	f8c4 9038 	str.w	r9, [r4, #56]	; 0x38
 800443a:	2b04      	cmp	r3, #4
 800443c:	bf1c      	itt	ne
 800443e:	2305      	movne	r3, #5
 8004440:	f884 3051 	strbne.w	r3, [r4, #81]	; 0x51
 8004444:	2300      	movs	r3, #0
 8004446:	6563      	str	r3, [r4, #84]	; 0x54
 8004448:	e9c4 3310 	strd	r3, r3, [r4, #64]	; 0x40
 800444c:	6823      	ldr	r3, [r4, #0]
 800444e:	87e6      	strh	r6, [r4, #62]	; 0x3e
 8004450:	86e6      	strh	r6, [r4, #54]	; 0x36
 8004452:	6819      	ldr	r1, [r3, #0]
 8004454:	87a6      	strh	r6, [r4, #60]	; 0x3c
 8004456:	0649      	lsls	r1, r1, #25
 8004458:	bf58      	it	pl
 800445a:	6819      	ldrpl	r1, [r3, #0]
 800445c:	6325      	str	r5, [r4, #48]	; 0x30
 800445e:	bf58      	it	pl
 8004460:	f041 0140 	orrpl.w	r1, r1, #64	; 0x40
 8004464:	86a6      	strh	r6, [r4, #52]	; 0x34
 8004466:	bf58      	it	pl
 8004468:	6019      	strpl	r1, [r3, #0]
 800446a:	68e1      	ldr	r1, [r4, #12]
 800446c:	f5b1 6f00 	cmp.w	r1, #2048	; 0x800
 8004470:	d151      	bne.n	8004516 <HAL_SPI_TransmitReceive+0x13a>
 8004472:	b10a      	cbz	r2, 8004478 <HAL_SPI_TransmitReceive+0x9c>
 8004474:	2e01      	cmp	r6, #1
 8004476:	d107      	bne.n	8004488 <HAL_SPI_TransmitReceive+0xac>
 8004478:	f835 2b02 	ldrh.w	r2, [r5], #2
 800447c:	60da      	str	r2, [r3, #12]
 800447e:	8ee3      	ldrh	r3, [r4, #54]	; 0x36
 8004480:	6325      	str	r5, [r4, #48]	; 0x30
 8004482:	3b01      	subs	r3, #1
 8004484:	b29b      	uxth	r3, r3
 8004486:	86e3      	strh	r3, [r4, #54]	; 0x36
 8004488:	2501      	movs	r5, #1
 800448a:	8ee3      	ldrh	r3, [r4, #54]	; 0x36
 800448c:	b29b      	uxth	r3, r3
 800448e:	b96b      	cbnz	r3, 80044ac <HAL_SPI_TransmitReceive+0xd0>
 8004490:	8fe3      	ldrh	r3, [r4, #62]	; 0x3e
 8004492:	b29b      	uxth	r3, r3
 8004494:	b953      	cbnz	r3, 80044ac <HAL_SPI_TransmitReceive+0xd0>
 8004496:	463a      	mov	r2, r7
 8004498:	4641      	mov	r1, r8
 800449a:	4620      	mov	r0, r4
 800449c:	f7ff ff16 	bl	80042cc <SPI_EndRxTxTransaction>
 80044a0:	2800      	cmp	r0, #0
 80044a2:	d07b      	beq.n	800459c <HAL_SPI_TransmitReceive+0x1c0>
 80044a4:	2320      	movs	r3, #32
 80044a6:	6563      	str	r3, [r4, #84]	; 0x54
 80044a8:	2001      	movs	r0, #1
 80044aa:	e02b      	b.n	8004504 <HAL_SPI_TransmitReceive+0x128>
 80044ac:	6821      	ldr	r1, [r4, #0]
 80044ae:	688b      	ldr	r3, [r1, #8]
 80044b0:	079a      	lsls	r2, r3, #30
 80044b2:	d50d      	bpl.n	80044d0 <HAL_SPI_TransmitReceive+0xf4>
 80044b4:	8ee3      	ldrh	r3, [r4, #54]	; 0x36
 80044b6:	b29b      	uxth	r3, r3
 80044b8:	b153      	cbz	r3, 80044d0 <HAL_SPI_TransmitReceive+0xf4>
 80044ba:	b14d      	cbz	r5, 80044d0 <HAL_SPI_TransmitReceive+0xf4>
 80044bc:	6b23      	ldr	r3, [r4, #48]	; 0x30
 80044be:	f833 2b02 	ldrh.w	r2, [r3], #2
 80044c2:	60ca      	str	r2, [r1, #12]
 80044c4:	6323      	str	r3, [r4, #48]	; 0x30
 80044c6:	8ee3      	ldrh	r3, [r4, #54]	; 0x36
 80044c8:	3b01      	subs	r3, #1
 80044ca:	b29b      	uxth	r3, r3
 80044cc:	86e3      	strh	r3, [r4, #54]	; 0x36
 80044ce:	2500      	movs	r5, #0
 80044d0:	688a      	ldr	r2, [r1, #8]
 80044d2:	f012 0201 	ands.w	r2, r2, #1
 80044d6:	d00c      	beq.n	80044f2 <HAL_SPI_TransmitReceive+0x116>
 80044d8:	8fe3      	ldrh	r3, [r4, #62]	; 0x3e
 80044da:	b29b      	uxth	r3, r3
 80044dc:	b14b      	cbz	r3, 80044f2 <HAL_SPI_TransmitReceive+0x116>
 80044de:	6ba3      	ldr	r3, [r4, #56]	; 0x38
 80044e0:	68c9      	ldr	r1, [r1, #12]
 80044e2:	f823 1b02 	strh.w	r1, [r3], #2
 80044e6:	63a3      	str	r3, [r4, #56]	; 0x38
 80044e8:	8fe3      	ldrh	r3, [r4, #62]	; 0x3e
 80044ea:	3b01      	subs	r3, #1
 80044ec:	b29b      	uxth	r3, r3
 80044ee:	87e3      	strh	r3, [r4, #62]	; 0x3e
 80044f0:	4615      	mov	r5, r2
 80044f2:	f7fd ff01 	bl	80022f8 <HAL_GetTick>
 80044f6:	1bc0      	subs	r0, r0, r7
 80044f8:	4540      	cmp	r0, r8
 80044fa:	d3c6      	bcc.n	800448a <HAL_SPI_TransmitReceive+0xae>
 80044fc:	f1b8 3fff 	cmp.w	r8, #4294967295
 8004500:	d0c3      	beq.n	800448a <HAL_SPI_TransmitReceive+0xae>
 8004502:	2003      	movs	r0, #3
 8004504:	2301      	movs	r3, #1
 8004506:	f884 3051 	strb.w	r3, [r4, #81]	; 0x51
 800450a:	2300      	movs	r3, #0
 800450c:	f884 3050 	strb.w	r3, [r4, #80]	; 0x50
 8004510:	b003      	add	sp, #12
 8004512:	e8bd 83f0 	ldmia.w	sp!, {r4, r5, r6, r7, r8, r9, pc}
 8004516:	b10a      	cbz	r2, 800451c <HAL_SPI_TransmitReceive+0x140>
 8004518:	2e01      	cmp	r6, #1
 800451a:	d108      	bne.n	800452e <HAL_SPI_TransmitReceive+0x152>
 800451c:	782a      	ldrb	r2, [r5, #0]
 800451e:	731a      	strb	r2, [r3, #12]
 8004520:	6b23      	ldr	r3, [r4, #48]	; 0x30
 8004522:	3301      	adds	r3, #1
 8004524:	6323      	str	r3, [r4, #48]	; 0x30
 8004526:	8ee3      	ldrh	r3, [r4, #54]	; 0x36
 8004528:	3b01      	subs	r3, #1
 800452a:	b29b      	uxth	r3, r3
 800452c:	86e3      	strh	r3, [r4, #54]	; 0x36
 800452e:	2501      	movs	r5, #1
 8004530:	8ee3      	ldrh	r3, [r4, #54]	; 0x36
 8004532:	b29b      	uxth	r3, r3
 8004534:	b91b      	cbnz	r3, 800453e <HAL_SPI_TransmitReceive+0x162>
 8004536:	8fe3      	ldrh	r3, [r4, #62]	; 0x3e
 8004538:	b29b      	uxth	r3, r3
 800453a:	2b00      	cmp	r3, #0
 800453c:	d0ab      	beq.n	8004496 <HAL_SPI_TransmitReceive+0xba>
 800453e:	6822      	ldr	r2, [r4, #0]
 8004540:	6893      	ldr	r3, [r2, #8]
 8004542:	079b      	lsls	r3, r3, #30
 8004544:	d50e      	bpl.n	8004564 <HAL_SPI_TransmitReceive+0x188>
 8004546:	8ee3      	ldrh	r3, [r4, #54]	; 0x36
 8004548:	b29b      	uxth	r3, r3
 800454a:	b15b      	cbz	r3, 8004564 <HAL_SPI_TransmitReceive+0x188>
 800454c:	b155      	cbz	r5, 8004564 <HAL_SPI_TransmitReceive+0x188>
 800454e:	6b23      	ldr	r3, [r4, #48]	; 0x30
 8004550:	781b      	ldrb	r3, [r3, #0]
 8004552:	7313      	strb	r3, [r2, #12]
 8004554:	6b23      	ldr	r3, [r4, #48]	; 0x30
 8004556:	3301      	adds	r3, #1
 8004558:	6323      	str	r3, [r4, #48]	; 0x30
 800455a:	8ee3      	ldrh	r3, [r4, #54]	; 0x36
 800455c:	3b01      	subs	r3, #1
 800455e:	b29b      	uxth	r3, r3
 8004560:	86e3      	strh	r3, [r4, #54]	; 0x36
 8004562:	2500      	movs	r5, #0
 8004564:	6822      	ldr	r2, [r4, #0]
 8004566:	6891      	ldr	r1, [r2, #8]
 8004568:	f011 0101 	ands.w	r1, r1, #1
 800456c:	d00d      	beq.n	800458a <HAL_SPI_TransmitReceive+0x1ae>
 800456e:	8fe3      	ldrh	r3, [r4, #62]	; 0x3e
 8004570:	b29b      	uxth	r3, r3
 8004572:	b153      	cbz	r3, 800458a <HAL_SPI_TransmitReceive+0x1ae>
 8004574:	6ba3      	ldr	r3, [r4, #56]	; 0x38
 8004576:	68d2      	ldr	r2, [r2, #12]
 8004578:	701a      	strb	r2, [r3, #0]
 800457a:	6ba3      	ldr	r3, [r4, #56]	; 0x38
 800457c:	3301      	adds	r3, #1
 800457e:	63a3      	str	r3, [r4, #56]	; 0x38
 8004580:	8fe3      	ldrh	r3, [r4, #62]	; 0x3e
 8004582:	3b01      	subs	r3, #1
 8004584:	b29b      	uxth	r3, r3
 8004586:	87e3      	strh	r3, [r4, #62]	; 0x3e
 8004588:	460d      	mov	r5, r1
 800458a:	f7fd feb5 	bl	80022f8 <HAL_GetTick>
 800458e:	1bc0      	subs	r0, r0, r7
 8004590:	4540      	cmp	r0, r8
 8004592:	d3cd      	bcc.n	8004530 <HAL_SPI_TransmitReceive+0x154>
 8004594:	f1b8 3fff 	cmp.w	r8, #4294967295
 8004598:	d0ca      	beq.n	8004530 <HAL_SPI_TransmitReceive+0x154>
 800459a:	e7b2      	b.n	8004502 <HAL_SPI_TransmitReceive+0x126>
 800459c:	68a3      	ldr	r3, [r4, #8]
 800459e:	2b00      	cmp	r3, #0
 80045a0:	d1b0      	bne.n	8004504 <HAL_SPI_TransmitReceive+0x128>
 80045a2:	6823      	ldr	r3, [r4, #0]
 80045a4:	9001      	str	r0, [sp, #4]
 80045a6:	68da      	ldr	r2, [r3, #12]
 80045a8:	9201      	str	r2, [sp, #4]
 80045aa:	689b      	ldr	r3, [r3, #8]
 80045ac:	9301      	str	r3, [sp, #4]
 80045ae:	9b01      	ldr	r3, [sp, #4]
 80045b0:	e7a8      	b.n	8004504 <HAL_SPI_TransmitReceive+0x128>
 80045b2:	2002      	movs	r0, #2
 80045b4:	e7a6      	b.n	8004504 <HAL_SPI_TransmitReceive+0x128>
 80045b6:	2002      	movs	r0, #2
 80045b8:	e7aa      	b.n	8004510 <HAL_SPI_TransmitReceive+0x134>
	...

080045bc <TIM_OC1_SetConfig>:
 80045bc:	6a03      	ldr	r3, [r0, #32]
 80045be:	f023 0301 	bic.w	r3, r3, #1
 80045c2:	6203      	str	r3, [r0, #32]
 80045c4:	6a03      	ldr	r3, [r0, #32]
 80045c6:	b570      	push	{r4, r5, r6, lr}
 80045c8:	6844      	ldr	r4, [r0, #4]
 80045ca:	6982      	ldr	r2, [r0, #24]
 80045cc:	680d      	ldr	r5, [r1, #0]
 80045ce:	f022 0273 	bic.w	r2, r2, #115	; 0x73
 80045d2:	432a      	orrs	r2, r5
 80045d4:	688d      	ldr	r5, [r1, #8]
 80045d6:	f023 0302 	bic.w	r3, r3, #2
 80045da:	432b      	orrs	r3, r5
 80045dc:	4d0e      	ldr	r5, [pc, #56]	; (8004618 <TIM_OC1_SetConfig+0x5c>)
 80045de:	42a8      	cmp	r0, r5
 80045e0:	d002      	beq.n	80045e8 <TIM_OC1_SetConfig+0x2c>
 80045e2:	4e0e      	ldr	r6, [pc, #56]	; (800461c <TIM_OC1_SetConfig+0x60>)
 80045e4:	42b0      	cmp	r0, r6
 80045e6:	d110      	bne.n	800460a <TIM_OC1_SetConfig+0x4e>
 80045e8:	68ce      	ldr	r6, [r1, #12]
 80045ea:	f023 0308 	bic.w	r3, r3, #8
 80045ee:	4333      	orrs	r3, r6
 80045f0:	42a8      	cmp	r0, r5
 80045f2:	f023 0304 	bic.w	r3, r3, #4
 80045f6:	d002      	beq.n	80045fe <TIM_OC1_SetConfig+0x42>
 80045f8:	4d08      	ldr	r5, [pc, #32]	; (800461c <TIM_OC1_SetConfig+0x60>)
 80045fa:	42a8      	cmp	r0, r5
 80045fc:	d105      	bne.n	800460a <TIM_OC1_SetConfig+0x4e>
 80045fe:	e9d1 5605 	ldrd	r5, r6, [r1, #20]
 8004602:	f424 7440 	bic.w	r4, r4, #768	; 0x300
 8004606:	4335      	orrs	r5, r6
 8004608:	432c      	orrs	r4, r5
 800460a:	6044      	str	r4, [r0, #4]
 800460c:	6182      	str	r2, [r0, #24]
 800460e:	684a      	ldr	r2, [r1, #4]
 8004610:	6342      	str	r2, [r0, #52]	; 0x34
 8004612:	6203      	str	r3, [r0, #32]
 8004614:	bd70      	pop	{r4, r5, r6, pc}
 8004616:	bf00      	nop
 8004618:	40010000 	.word	0x40010000
 800461c:	40010400 	.word	0x40010400

08004620 <TIM_OC3_SetConfig>:
 8004620:	6a03      	ldr	r3, [r0, #32]
 8004622:	f423 7380 	bic.w	r3, r3, #256	; 0x100
 8004626:	6203      	str	r3, [r0, #32]
 8004628:	6a03      	ldr	r3, [r0, #32]
 800462a:	b570      	push	{r4, r5, r6, lr}
 800462c:	6844      	ldr	r4, [r0, #4]
 800462e:	69c2      	ldr	r2, [r0, #28]
 8004630:	680d      	ldr	r5, [r1, #0]
 8004632:	f022 0273 	bic.w	r2, r2, #115	; 0x73
 8004636:	432a      	orrs	r2, r5
 8004638:	688d      	ldr	r5, [r1, #8]
 800463a:	f423 7300 	bic.w	r3, r3, #512	; 0x200
 800463e:	ea43 2305 	orr.w	r3, r3, r5, lsl #8
 8004642:	4d11      	ldr	r5, [pc, #68]	; (8004688 <TIM_OC3_SetConfig+0x68>)
 8004644:	42a8      	cmp	r0, r5
 8004646:	d003      	beq.n	8004650 <TIM_OC3_SetConfig+0x30>
 8004648:	f505 6580 	add.w	r5, r5, #1024	; 0x400
 800464c:	42a8      	cmp	r0, r5
 800464e:	d114      	bne.n	800467a <TIM_OC3_SetConfig+0x5a>
 8004650:	68cd      	ldr	r5, [r1, #12]
 8004652:	f423 6300 	bic.w	r3, r3, #2048	; 0x800
 8004656:	ea43 2305 	orr.w	r3, r3, r5, lsl #8
 800465a:	4d0b      	ldr	r5, [pc, #44]	; (8004688 <TIM_OC3_SetConfig+0x68>)
 800465c:	42a8      	cmp	r0, r5
 800465e:	f423 6380 	bic.w	r3, r3, #1024	; 0x400
 8004662:	d003      	beq.n	800466c <TIM_OC3_SetConfig+0x4c>
 8004664:	f505 6580 	add.w	r5, r5, #1024	; 0x400
 8004668:	42a8      	cmp	r0, r5
 800466a:	d106      	bne.n	800467a <TIM_OC3_SetConfig+0x5a>
 800466c:	e9d1 5605 	ldrd	r5, r6, [r1, #20]
 8004670:	f424 5440 	bic.w	r4, r4, #12288	; 0x3000
 8004674:	4335      	orrs	r5, r6
 8004676:	ea44 1405 	orr.w	r4, r4, r5, lsl #4
 800467a:	6044      	str	r4, [r0, #4]
 800467c:	61c2      	str	r2, [r0, #28]
 800467e:	684a      	ldr	r2, [r1, #4]
 8004680:	63c2      	str	r2, [r0, #60]	; 0x3c
 8004682:	6203      	str	r3, [r0, #32]
 8004684:	bd70      	pop	{r4, r5, r6, pc}
 8004686:	bf00      	nop
 8004688:	40010000 	.word	0x40010000

0800468c <TIM_OC4_SetConfig>:
 800468c:	6a03      	ldr	r3, [r0, #32]
 800468e:	f423 5380 	bic.w	r3, r3, #4096	; 0x1000
 8004692:	6203      	str	r3, [r0, #32]
 8004694:	6a03      	ldr	r3, [r0, #32]
 8004696:	b530      	push	{r4, r5, lr}
 8004698:	6844      	ldr	r4, [r0, #4]
 800469a:	69c2      	ldr	r2, [r0, #28]
 800469c:	680d      	ldr	r5, [r1, #0]
 800469e:	f422 42e6 	bic.w	r2, r2, #29440	; 0x7300
 80046a2:	ea42 2205 	orr.w	r2, r2, r5, lsl #8
 80046a6:	688d      	ldr	r5, [r1, #8]
 80046a8:	f423 5300 	bic.w	r3, r3, #8192	; 0x2000
 80046ac:	ea43 3305 	orr.w	r3, r3, r5, lsl #12
 80046b0:	4d08      	ldr	r5, [pc, #32]	; (80046d4 <TIM_OC4_SetConfig+0x48>)
 80046b2:	42a8      	cmp	r0, r5
 80046b4:	d003      	beq.n	80046be <TIM_OC4_SetConfig+0x32>
 80046b6:	f505 6580 	add.w	r5, r5, #1024	; 0x400
 80046ba:	42a8      	cmp	r0, r5
 80046bc:	d104      	bne.n	80046c8 <TIM_OC4_SetConfig+0x3c>
 80046be:	694d      	ldr	r5, [r1, #20]
 80046c0:	f424 4480 	bic.w	r4, r4, #16384	; 0x4000
 80046c4:	ea44 1485 	orr.w	r4, r4, r5, lsl #6
 80046c8:	6044      	str	r4, [r0, #4]
 80046ca:	61c2      	str	r2, [r0, #28]
 80046cc:	684a      	ldr	r2, [r1, #4]
 80046ce:	6402      	str	r2, [r0, #64]	; 0x40
 80046d0:	6203      	str	r3, [r0, #32]
 80046d2:	bd30      	pop	{r4, r5, pc}
 80046d4:	40010000 	.word	0x40010000

080046d8 <HAL_TIM_Base_Start_IT>:
 80046d8:	f890 303d 	ldrb.w	r3, [r0, #61]	; 0x3d
 80046dc:	2b01      	cmp	r3, #1
 80046de:	d130      	bne.n	8004742 <HAL_TIM_Base_Start_IT+0x6a>
 80046e0:	2302      	movs	r3, #2
 80046e2:	f880 303d 	strb.w	r3, [r0, #61]	; 0x3d
 80046e6:	6803      	ldr	r3, [r0, #0]
 80046e8:	68da      	ldr	r2, [r3, #12]
 80046ea:	f042 0201 	orr.w	r2, r2, #1
 80046ee:	60da      	str	r2, [r3, #12]
 80046f0:	4a15      	ldr	r2, [pc, #84]	; (8004748 <HAL_TIM_Base_Start_IT+0x70>)
 80046f2:	4293      	cmp	r3, r2
 80046f4:	d01a      	beq.n	800472c <HAL_TIM_Base_Start_IT+0x54>
 80046f6:	f1b3 4f80 	cmp.w	r3, #1073741824	; 0x40000000
 80046fa:	d017      	beq.n	800472c <HAL_TIM_Base_Start_IT+0x54>
 80046fc:	f5a2 427c 	sub.w	r2, r2, #64512	; 0xfc00
 8004700:	4293      	cmp	r3, r2
 8004702:	d013      	beq.n	800472c <HAL_TIM_Base_Start_IT+0x54>
 8004704:	f502 6280 	add.w	r2, r2, #1024	; 0x400
 8004708:	4293      	cmp	r3, r2
 800470a:	d00f      	beq.n	800472c <HAL_TIM_Base_Start_IT+0x54>
 800470c:	f502 6280 	add.w	r2, r2, #1024	; 0x400
 8004710:	4293      	cmp	r3, r2
 8004712:	d00b      	beq.n	800472c <HAL_TIM_Base_Start_IT+0x54>
 8004714:	f502 4278 	add.w	r2, r2, #63488	; 0xf800
 8004718:	4293      	cmp	r3, r2
 800471a:	d007      	beq.n	800472c <HAL_TIM_Base_Start_IT+0x54>
 800471c:	f502 5270 	add.w	r2, r2, #15360	; 0x3c00
 8004720:	4293      	cmp	r3, r2
 8004722:	d003      	beq.n	800472c <HAL_TIM_Base_Start_IT+0x54>
 8004724:	f5a2 3294 	sub.w	r2, r2, #75776	; 0x12800
 8004728:	4293      	cmp	r3, r2
 800472a:	d104      	bne.n	8004736 <HAL_TIM_Base_Start_IT+0x5e>
 800472c:	689a      	ldr	r2, [r3, #8]
 800472e:	f002 0207 	and.w	r2, r2, #7
 8004732:	2a06      	cmp	r2, #6
 8004734:	d003      	beq.n	800473e <HAL_TIM_Base_Start_IT+0x66>
 8004736:	681a      	ldr	r2, [r3, #0]
 8004738:	f042 0201 	orr.w	r2, r2, #1
 800473c:	601a      	str	r2, [r3, #0]
 800473e:	2000      	movs	r0, #0
 8004740:	4770      	bx	lr
 8004742:	2001      	movs	r0, #1
 8004744:	4770      	bx	lr
 8004746:	bf00      	nop
 8004748:	40010000 	.word	0x40010000

0800474c <HAL_TIM_PeriodElapsedCallback>:
 800474c:	4770      	bx	lr

0800474e <HAL_TIM_OC_DelayElapsedCallback>:
 800474e:	4770      	bx	lr

08004750 <HAL_TIM_IC_CaptureCallback>:
 8004750:	4770      	bx	lr

08004752 <HAL_TIM_PWM_PulseFinishedCallback>:
 8004752:	4770      	bx	lr

08004754 <HAL_TIM_TriggerCallback>:
 8004754:	4770      	bx	lr

08004756 <HAL_TIM_IRQHandler>:
 8004756:	6803      	ldr	r3, [r0, #0]
 8004758:	691a      	ldr	r2, [r3, #16]
 800475a:	0791      	lsls	r1, r2, #30
 800475c:	b510      	push	{r4, lr}
 800475e:	4604      	mov	r4, r0
 8004760:	d50e      	bpl.n	8004780 <HAL_TIM_IRQHandler+0x2a>
 8004762:	68da      	ldr	r2, [r3, #12]
 8004764:	0792      	lsls	r2, r2, #30
 8004766:	d50b      	bpl.n	8004780 <HAL_TIM_IRQHandler+0x2a>
 8004768:	f06f 0202 	mvn.w	r2, #2
 800476c:	611a      	str	r2, [r3, #16]
 800476e:	2201      	movs	r2, #1
 8004770:	7702      	strb	r2, [r0, #28]
 8004772:	699b      	ldr	r3, [r3, #24]
 8004774:	079b      	lsls	r3, r3, #30
 8004776:	d077      	beq.n	8004868 <HAL_TIM_IRQHandler+0x112>
 8004778:	f7ff ffea 	bl	8004750 <HAL_TIM_IC_CaptureCallback>
 800477c:	2300      	movs	r3, #0
 800477e:	7723      	strb	r3, [r4, #28]
 8004780:	6823      	ldr	r3, [r4, #0]
 8004782:	691a      	ldr	r2, [r3, #16]
 8004784:	0750      	lsls	r0, r2, #29
 8004786:	d510      	bpl.n	80047aa <HAL_TIM_IRQHandler+0x54>
 8004788:	68da      	ldr	r2, [r3, #12]
 800478a:	0751      	lsls	r1, r2, #29
 800478c:	d50d      	bpl.n	80047aa <HAL_TIM_IRQHandler+0x54>
 800478e:	f06f 0204 	mvn.w	r2, #4
 8004792:	611a      	str	r2, [r3, #16]
 8004794:	2202      	movs	r2, #2
 8004796:	7722      	strb	r2, [r4, #28]
 8004798:	699b      	ldr	r3, [r3, #24]
 800479a:	f413 7f40 	tst.w	r3, #768	; 0x300
 800479e:	4620      	mov	r0, r4
 80047a0:	d068      	beq.n	8004874 <HAL_TIM_IRQHandler+0x11e>
 80047a2:	f7ff ffd5 	bl	8004750 <HAL_TIM_IC_CaptureCallback>
 80047a6:	2300      	movs	r3, #0
 80047a8:	7723      	strb	r3, [r4, #28]
 80047aa:	6823      	ldr	r3, [r4, #0]
 80047ac:	691a      	ldr	r2, [r3, #16]
 80047ae:	0712      	lsls	r2, r2, #28
 80047b0:	d50f      	bpl.n	80047d2 <HAL_TIM_IRQHandler+0x7c>
 80047b2:	68da      	ldr	r2, [r3, #12]
 80047b4:	0710      	lsls	r0, r2, #28
 80047b6:	d50c      	bpl.n	80047d2 <HAL_TIM_IRQHandler+0x7c>
 80047b8:	f06f 0208 	mvn.w	r2, #8
 80047bc:	611a      	str	r2, [r3, #16]
 80047be:	2204      	movs	r2, #4
 80047c0:	7722      	strb	r2, [r4, #28]
 80047c2:	69db      	ldr	r3, [r3, #28]
 80047c4:	0799      	lsls	r1, r3, #30
 80047c6:	4620      	mov	r0, r4
 80047c8:	d05a      	beq.n	8004880 <HAL_TIM_IRQHandler+0x12a>
 80047ca:	f7ff ffc1 	bl	8004750 <HAL_TIM_IC_CaptureCallback>
 80047ce:	2300      	movs	r3, #0
 80047d0:	7723      	strb	r3, [r4, #28]
 80047d2:	6823      	ldr	r3, [r4, #0]
 80047d4:	691a      	ldr	r2, [r3, #16]
 80047d6:	06d2      	lsls	r2, r2, #27
 80047d8:	d510      	bpl.n	80047fc <HAL_TIM_IRQHandler+0xa6>
 80047da:	68da      	ldr	r2, [r3, #12]
 80047dc:	06d0      	lsls	r0, r2, #27
 80047de:	d50d      	bpl.n	80047fc <HAL_TIM_IRQHandler+0xa6>
 80047e0:	f06f 0210 	mvn.w	r2, #16
 80047e4:	611a      	str	r2, [r3, #16]
 80047e6:	2208      	movs	r2, #8
 80047e8:	7722      	strb	r2, [r4, #28]
 80047ea:	69db      	ldr	r3, [r3, #28]
 80047ec:	f413 7f40 	tst.w	r3, #768	; 0x300
 80047f0:	4620      	mov	r0, r4
 80047f2:	d04b      	beq.n	800488c <HAL_TIM_IRQHandler+0x136>
 80047f4:	f7ff ffac 	bl	8004750 <HAL_TIM_IC_CaptureCallback>
 80047f8:	2300      	movs	r3, #0
 80047fa:	7723      	strb	r3, [r4, #28]
 80047fc:	6823      	ldr	r3, [r4, #0]
 80047fe:	691a      	ldr	r2, [r3, #16]
 8004800:	07d1      	lsls	r1, r2, #31
 8004802:	d508      	bpl.n	8004816 <HAL_TIM_IRQHandler+0xc0>
 8004804:	68da      	ldr	r2, [r3, #12]
 8004806:	07d2      	lsls	r2, r2, #31
 8004808:	d505      	bpl.n	8004816 <HAL_TIM_IRQHandler+0xc0>
 800480a:	f06f 0201 	mvn.w	r2, #1
 800480e:	611a      	str	r2, [r3, #16]
 8004810:	4620      	mov	r0, r4
 8004812:	f7ff ff9b 	bl	800474c <HAL_TIM_PeriodElapsedCallback>
 8004816:	6823      	ldr	r3, [r4, #0]
 8004818:	691a      	ldr	r2, [r3, #16]
 800481a:	0610      	lsls	r0, r2, #24
 800481c:	d508      	bpl.n	8004830 <HAL_TIM_IRQHandler+0xda>
 800481e:	68da      	ldr	r2, [r3, #12]
 8004820:	0611      	lsls	r1, r2, #24
 8004822:	d505      	bpl.n	8004830 <HAL_TIM_IRQHandler+0xda>
 8004824:	f06f 0280 	mvn.w	r2, #128	; 0x80
 8004828:	611a      	str	r2, [r3, #16]
 800482a:	4620      	mov	r0, r4
 800482c:	f000 fa0f 	bl	8004c4e <HAL_TIMEx_BreakCallback>
 8004830:	6823      	ldr	r3, [r4, #0]
 8004832:	691a      	ldr	r2, [r3, #16]
 8004834:	0652      	lsls	r2, r2, #25
 8004836:	d508      	bpl.n	800484a <HAL_TIM_IRQHandler+0xf4>
 8004838:	68da      	ldr	r2, [r3, #12]
 800483a:	0650      	lsls	r0, r2, #25
 800483c:	d505      	bpl.n	800484a <HAL_TIM_IRQHandler+0xf4>
 800483e:	f06f 0240 	mvn.w	r2, #64	; 0x40
 8004842:	611a      	str	r2, [r3, #16]
 8004844:	4620      	mov	r0, r4
 8004846:	f7ff ff85 	bl	8004754 <HAL_TIM_TriggerCallback>
 800484a:	6823      	ldr	r3, [r4, #0]
 800484c:	691a      	ldr	r2, [r3, #16]
 800484e:	0691      	lsls	r1, r2, #26
 8004850:	d522      	bpl.n	8004898 <HAL_TIM_IRQHandler+0x142>
 8004852:	68da      	ldr	r2, [r3, #12]
 8004854:	0692      	lsls	r2, r2, #26
 8004856:	d51f      	bpl.n	8004898 <HAL_TIM_IRQHandler+0x142>
 8004858:	f06f 0220 	mvn.w	r2, #32
 800485c:	4620      	mov	r0, r4
 800485e:	611a      	str	r2, [r3, #16]
 8004860:	e8bd 4010 	ldmia.w	sp!, {r4, lr}
 8004864:	f000 b9f2 	b.w	8004c4c <HAL_TIMEx_CommutCallback>
 8004868:	f7ff ff71 	bl	800474e <HAL_TIM_OC_DelayElapsedCallback>
 800486c:	4620      	mov	r0, r4
 800486e:	f7ff ff70 	bl	8004752 <HAL_TIM_PWM_PulseFinishedCallback>
 8004872:	e783      	b.n	800477c <HAL_TIM_IRQHandler+0x26>
 8004874:	f7ff ff6b 	bl	800474e <HAL_TIM_OC_DelayElapsedCallback>
 8004878:	4620      	mov	r0, r4
 800487a:	f7ff ff6a 	bl	8004752 <HAL_TIM_PWM_PulseFinishedCallback>
 800487e:	e792      	b.n	80047a6 <HAL_TIM_IRQHandler+0x50>
 8004880:	f7ff ff65 	bl	800474e <HAL_TIM_OC_DelayElapsedCallback>
 8004884:	4620      	mov	r0, r4
 8004886:	f7ff ff64 	bl	8004752 <HAL_TIM_PWM_PulseFinishedCallback>
 800488a:	e7a0      	b.n	80047ce <HAL_TIM_IRQHandler+0x78>
 800488c:	f7ff ff5f 	bl	800474e <HAL_TIM_OC_DelayElapsedCallback>
 8004890:	4620      	mov	r0, r4
 8004892:	f7ff ff5e 	bl	8004752 <HAL_TIM_PWM_PulseFinishedCallback>
 8004896:	e7af      	b.n	80047f8 <HAL_TIM_IRQHandler+0xa2>
 8004898:	bd10      	pop	{r4, pc}
	...

0800489c <TIM_Base_SetConfig>:
 800489c:	4a30      	ldr	r2, [pc, #192]	; (8004960 <TIM_Base_SetConfig+0xc4>)
 800489e:	6803      	ldr	r3, [r0, #0]
 80048a0:	4290      	cmp	r0, r2
 80048a2:	d012      	beq.n	80048ca <TIM_Base_SetConfig+0x2e>
 80048a4:	f1b0 4f80 	cmp.w	r0, #1073741824	; 0x40000000
 80048a8:	d00f      	beq.n	80048ca <TIM_Base_SetConfig+0x2e>
 80048aa:	f5a2 427c 	sub.w	r2, r2, #64512	; 0xfc00
 80048ae:	4290      	cmp	r0, r2
 80048b0:	d00b      	beq.n	80048ca <TIM_Base_SetConfig+0x2e>
 80048b2:	f502 6280 	add.w	r2, r2, #1024	; 0x400
 80048b6:	4290      	cmp	r0, r2
 80048b8:	d007      	beq.n	80048ca <TIM_Base_SetConfig+0x2e>
 80048ba:	f502 6280 	add.w	r2, r2, #1024	; 0x400
 80048be:	4290      	cmp	r0, r2
 80048c0:	d003      	beq.n	80048ca <TIM_Base_SetConfig+0x2e>
 80048c2:	f502 4278 	add.w	r2, r2, #63488	; 0xf800
 80048c6:	4290      	cmp	r0, r2
 80048c8:	d119      	bne.n	80048fe <TIM_Base_SetConfig+0x62>
 80048ca:	684a      	ldr	r2, [r1, #4]
 80048cc:	f023 0370 	bic.w	r3, r3, #112	; 0x70
 80048d0:	4313      	orrs	r3, r2
 80048d2:	4a23      	ldr	r2, [pc, #140]	; (8004960 <TIM_Base_SetConfig+0xc4>)
 80048d4:	4290      	cmp	r0, r2
 80048d6:	d029      	beq.n	800492c <TIM_Base_SetConfig+0x90>
 80048d8:	f1b0 4f80 	cmp.w	r0, #1073741824	; 0x40000000
 80048dc:	d026      	beq.n	800492c <TIM_Base_SetConfig+0x90>
 80048de:	f5a2 427c 	sub.w	r2, r2, #64512	; 0xfc00
 80048e2:	4290      	cmp	r0, r2
 80048e4:	d022      	beq.n	800492c <TIM_Base_SetConfig+0x90>
 80048e6:	f502 6280 	add.w	r2, r2, #1024	; 0x400
 80048ea:	4290      	cmp	r0, r2
 80048ec:	d01e      	beq.n	800492c <TIM_Base_SetConfig+0x90>
 80048ee:	f502 6280 	add.w	r2, r2, #1024	; 0x400
 80048f2:	4290      	cmp	r0, r2
 80048f4:	d01a      	beq.n	800492c <TIM_Base_SetConfig+0x90>
 80048f6:	f502 4278 	add.w	r2, r2, #63488	; 0xf800
 80048fa:	4290      	cmp	r0, r2
 80048fc:	d016      	beq.n	800492c <TIM_Base_SetConfig+0x90>
 80048fe:	4a19      	ldr	r2, [pc, #100]	; (8004964 <TIM_Base_SetConfig+0xc8>)
 8004900:	4290      	cmp	r0, r2
 8004902:	d013      	beq.n	800492c <TIM_Base_SetConfig+0x90>
 8004904:	f502 6280 	add.w	r2, r2, #1024	; 0x400
 8004908:	4290      	cmp	r0, r2
 800490a:	d00f      	beq.n	800492c <TIM_Base_SetConfig+0x90>
 800490c:	f502 6280 	add.w	r2, r2, #1024	; 0x400
 8004910:	4290      	cmp	r0, r2
 8004912:	d00b      	beq.n	800492c <TIM_Base_SetConfig+0x90>
 8004914:	f5a2 3298 	sub.w	r2, r2, #77824	; 0x13000
 8004918:	4290      	cmp	r0, r2
 800491a:	d007      	beq.n	800492c <TIM_Base_SetConfig+0x90>
 800491c:	f502 6280 	add.w	r2, r2, #1024	; 0x400
 8004920:	4290      	cmp	r0, r2
 8004922:	d003      	beq.n	800492c <TIM_Base_SetConfig+0x90>
 8004924:	f502 6280 	add.w	r2, r2, #1024	; 0x400
 8004928:	4290      	cmp	r0, r2
 800492a:	d103      	bne.n	8004934 <TIM_Base_SetConfig+0x98>
 800492c:	68ca      	ldr	r2, [r1, #12]
 800492e:	f423 7340 	bic.w	r3, r3, #768	; 0x300
 8004932:	4313      	orrs	r3, r2
 8004934:	694a      	ldr	r2, [r1, #20]
 8004936:	f023 0380 	bic.w	r3, r3, #128	; 0x80
 800493a:	4313      	orrs	r3, r2
 800493c:	6003      	str	r3, [r0, #0]
 800493e:	688b      	ldr	r3, [r1, #8]
 8004940:	62c3      	str	r3, [r0, #44]	; 0x2c
 8004942:	680b      	ldr	r3, [r1, #0]
 8004944:	6283      	str	r3, [r0, #40]	; 0x28
 8004946:	4b06      	ldr	r3, [pc, #24]	; (8004960 <TIM_Base_SetConfig+0xc4>)
 8004948:	4298      	cmp	r0, r3
 800494a:	d003      	beq.n	8004954 <TIM_Base_SetConfig+0xb8>
 800494c:	f503 6380 	add.w	r3, r3, #1024	; 0x400
 8004950:	4298      	cmp	r0, r3
 8004952:	d101      	bne.n	8004958 <TIM_Base_SetConfig+0xbc>
 8004954:	690b      	ldr	r3, [r1, #16]
 8004956:	6303      	str	r3, [r0, #48]	; 0x30
 8004958:	2301      	movs	r3, #1
 800495a:	6143      	str	r3, [r0, #20]
 800495c:	4770      	bx	lr
 800495e:	bf00      	nop
 8004960:	40010000 	.word	0x40010000
 8004964:	40014000 	.word	0x40014000

08004968 <HAL_TIM_PWM_Init>:
 8004968:	b510      	push	{r4, lr}
 800496a:	4604      	mov	r4, r0
 800496c:	b330      	cbz	r0, 80049bc <HAL_TIM_PWM_Init+0x54>
 800496e:	f890 303d 	ldrb.w	r3, [r0, #61]	; 0x3d
 8004972:	f003 02ff 	and.w	r2, r3, #255	; 0xff
 8004976:	b91b      	cbnz	r3, 8004980 <HAL_TIM_PWM_Init+0x18>
 8004978:	f880 203c 	strb.w	r2, [r0, #60]	; 0x3c
 800497c:	f7fd fb56 	bl	800202c <HAL_TIM_PWM_MspInit>
 8004980:	2302      	movs	r3, #2
 8004982:	6820      	ldr	r0, [r4, #0]
 8004984:	f884 303d 	strb.w	r3, [r4, #61]	; 0x3d
 8004988:	1d21      	adds	r1, r4, #4
 800498a:	f7ff ff87 	bl	800489c <TIM_Base_SetConfig>
 800498e:	2301      	movs	r3, #1
 8004990:	f884 3046 	strb.w	r3, [r4, #70]	; 0x46
 8004994:	2000      	movs	r0, #0
 8004996:	f884 303e 	strb.w	r3, [r4, #62]	; 0x3e
 800499a:	f884 303f 	strb.w	r3, [r4, #63]	; 0x3f
 800499e:	f884 3040 	strb.w	r3, [r4, #64]	; 0x40
 80049a2:	f884 3041 	strb.w	r3, [r4, #65]	; 0x41
 80049a6:	f884 3042 	strb.w	r3, [r4, #66]	; 0x42
 80049aa:	f884 3043 	strb.w	r3, [r4, #67]	; 0x43
 80049ae:	f884 3044 	strb.w	r3, [r4, #68]	; 0x44
 80049b2:	f884 3045 	strb.w	r3, [r4, #69]	; 0x45
 80049b6:	f884 303d 	strb.w	r3, [r4, #61]	; 0x3d
 80049ba:	bd10      	pop	{r4, pc}
 80049bc:	2001      	movs	r0, #1
 80049be:	e7fc      	b.n	80049ba <HAL_TIM_PWM_Init+0x52>

080049c0 <TIM_OC2_SetConfig>:
 80049c0:	6a03      	ldr	r3, [r0, #32]
 80049c2:	f023 0310 	bic.w	r3, r3, #16
 80049c6:	6203      	str	r3, [r0, #32]
 80049c8:	6a03      	ldr	r3, [r0, #32]
 80049ca:	b570      	push	{r4, r5, r6, lr}
 80049cc:	6844      	ldr	r4, [r0, #4]
 80049ce:	6982      	ldr	r2, [r0, #24]
 80049d0:	680d      	ldr	r5, [r1, #0]
 80049d2:	f422 42e6 	bic.w	r2, r2, #29440	; 0x7300
 80049d6:	ea42 2205 	orr.w	r2, r2, r5, lsl #8
 80049da:	688d      	ldr	r5, [r1, #8]
 80049dc:	f023 0320 	bic.w	r3, r3, #32
 80049e0:	ea43 1305 	orr.w	r3, r3, r5, lsl #4
 80049e4:	4d10      	ldr	r5, [pc, #64]	; (8004a28 <TIM_OC2_SetConfig+0x68>)
 80049e6:	42a8      	cmp	r0, r5
 80049e8:	d003      	beq.n	80049f2 <TIM_OC2_SetConfig+0x32>
 80049ea:	f505 6580 	add.w	r5, r5, #1024	; 0x400
 80049ee:	42a8      	cmp	r0, r5
 80049f0:	d114      	bne.n	8004a1c <TIM_OC2_SetConfig+0x5c>
 80049f2:	68cd      	ldr	r5, [r1, #12]
 80049f4:	f023 0380 	bic.w	r3, r3, #128	; 0x80
 80049f8:	ea43 1305 	orr.w	r3, r3, r5, lsl #4
 80049fc:	4d0a      	ldr	r5, [pc, #40]	; (8004a28 <TIM_OC2_SetConfig+0x68>)
 80049fe:	42a8      	cmp	r0, r5
 8004a00:	f023 0340 	bic.w	r3, r3, #64	; 0x40
 8004a04:	d003      	beq.n	8004a0e <TIM_OC2_SetConfig+0x4e>
 8004a06:	f505 6580 	add.w	r5, r5, #1024	; 0x400
 8004a0a:	42a8      	cmp	r0, r5
 8004a0c:	d106      	bne.n	8004a1c <TIM_OC2_SetConfig+0x5c>
 8004a0e:	e9d1 5605 	ldrd	r5, r6, [r1, #20]
 8004a12:	f424 6440 	bic.w	r4, r4, #3072	; 0xc00
 8004a16:	4335      	orrs	r5, r6
 8004a18:	ea44 0485 	orr.w	r4, r4, r5, lsl #2
 8004a1c:	6044      	str	r4, [r0, #4]
 8004a1e:	6182      	str	r2, [r0, #24]
 8004a20:	684a      	ldr	r2, [r1, #4]
 8004a22:	6382      	str	r2, [r0, #56]	; 0x38
 8004a24:	6203      	str	r3, [r0, #32]
 8004a26:	bd70      	pop	{r4, r5, r6, pc}
 8004a28:	40010000 	.word	0x40010000

08004a2c <HAL_TIM_PWM_ConfigChannel>:
 8004a2c:	b538      	push	{r3, r4, r5, lr}
 8004a2e:	f890 303c 	ldrb.w	r3, [r0, #60]	; 0x3c
 8004a32:	2b01      	cmp	r3, #1
 8004a34:	4604      	mov	r4, r0
 8004a36:	d052      	beq.n	8004ade <HAL_TIM_PWM_ConfigChannel+0xb2>
 8004a38:	2301      	movs	r3, #1
 8004a3a:	2a08      	cmp	r2, #8
 8004a3c:	f880 303c 	strb.w	r3, [r0, #60]	; 0x3c
 8004a40:	d03c      	beq.n	8004abc <HAL_TIM_PWM_ConfigChannel+0x90>
 8004a42:	d806      	bhi.n	8004a52 <HAL_TIM_PWM_ConfigChannel+0x26>
 8004a44:	b1c2      	cbz	r2, 8004a78 <HAL_TIM_PWM_ConfigChannel+0x4c>
 8004a46:	2a04      	cmp	r2, #4
 8004a48:	d027      	beq.n	8004a9a <HAL_TIM_PWM_ConfigChannel+0x6e>
 8004a4a:	2000      	movs	r0, #0
 8004a4c:	f884 003c 	strb.w	r0, [r4, #60]	; 0x3c
 8004a50:	bd38      	pop	{r3, r4, r5, pc}
 8004a52:	2a0c      	cmp	r2, #12
 8004a54:	d1f9      	bne.n	8004a4a <HAL_TIM_PWM_ConfigChannel+0x1e>
 8004a56:	6800      	ldr	r0, [r0, #0]
 8004a58:	f7ff fe18 	bl	800468c <TIM_OC4_SetConfig>
 8004a5c:	6823      	ldr	r3, [r4, #0]
 8004a5e:	6909      	ldr	r1, [r1, #16]
 8004a60:	69da      	ldr	r2, [r3, #28]
 8004a62:	f442 6200 	orr.w	r2, r2, #2048	; 0x800
 8004a66:	61da      	str	r2, [r3, #28]
 8004a68:	69da      	ldr	r2, [r3, #28]
 8004a6a:	f422 6280 	bic.w	r2, r2, #1024	; 0x400
 8004a6e:	61da      	str	r2, [r3, #28]
 8004a70:	69da      	ldr	r2, [r3, #28]
 8004a72:	ea42 2201 	orr.w	r2, r2, r1, lsl #8
 8004a76:	e030      	b.n	8004ada <HAL_TIM_PWM_ConfigChannel+0xae>
 8004a78:	6800      	ldr	r0, [r0, #0]
 8004a7a:	f7ff fd9f 	bl	80045bc <TIM_OC1_SetConfig>
 8004a7e:	6823      	ldr	r3, [r4, #0]
 8004a80:	6909      	ldr	r1, [r1, #16]
 8004a82:	699a      	ldr	r2, [r3, #24]
 8004a84:	f042 0208 	orr.w	r2, r2, #8
 8004a88:	619a      	str	r2, [r3, #24]
 8004a8a:	699a      	ldr	r2, [r3, #24]
 8004a8c:	f022 0204 	bic.w	r2, r2, #4
 8004a90:	619a      	str	r2, [r3, #24]
 8004a92:	699a      	ldr	r2, [r3, #24]
 8004a94:	430a      	orrs	r2, r1
 8004a96:	619a      	str	r2, [r3, #24]
 8004a98:	e7d7      	b.n	8004a4a <HAL_TIM_PWM_ConfigChannel+0x1e>
 8004a9a:	6800      	ldr	r0, [r0, #0]
 8004a9c:	f7ff ff90 	bl	80049c0 <TIM_OC2_SetConfig>
 8004aa0:	6823      	ldr	r3, [r4, #0]
 8004aa2:	6909      	ldr	r1, [r1, #16]
 8004aa4:	699a      	ldr	r2, [r3, #24]
 8004aa6:	f442 6200 	orr.w	r2, r2, #2048	; 0x800
 8004aaa:	619a      	str	r2, [r3, #24]
 8004aac:	699a      	ldr	r2, [r3, #24]
 8004aae:	f422 6280 	bic.w	r2, r2, #1024	; 0x400
 8004ab2:	619a      	str	r2, [r3, #24]
 8004ab4:	699a      	ldr	r2, [r3, #24]
 8004ab6:	ea42 2201 	orr.w	r2, r2, r1, lsl #8
 8004aba:	e7ec      	b.n	8004a96 <HAL_TIM_PWM_ConfigChannel+0x6a>
 8004abc:	6800      	ldr	r0, [r0, #0]
 8004abe:	f7ff fdaf 	bl	8004620 <TIM_OC3_SetConfig>
 8004ac2:	6823      	ldr	r3, [r4, #0]
 8004ac4:	6909      	ldr	r1, [r1, #16]
 8004ac6:	69da      	ldr	r2, [r3, #28]
 8004ac8:	f042 0208 	orr.w	r2, r2, #8
 8004acc:	61da      	str	r2, [r3, #28]
 8004ace:	69da      	ldr	r2, [r3, #28]
 8004ad0:	f022 0204 	bic.w	r2, r2, #4
 8004ad4:	61da      	str	r2, [r3, #28]
 8004ad6:	69da      	ldr	r2, [r3, #28]
 8004ad8:	430a      	orrs	r2, r1
 8004ada:	61da      	str	r2, [r3, #28]
 8004adc:	e7b5      	b.n	8004a4a <HAL_TIM_PWM_ConfigChannel+0x1e>
 8004ade:	2002      	movs	r0, #2
 8004ae0:	e7b6      	b.n	8004a50 <HAL_TIM_PWM_ConfigChannel+0x24>

08004ae2 <TIM_CCxChannelCmd>:
 8004ae2:	6a03      	ldr	r3, [r0, #32]
 8004ae4:	f001 011f 	and.w	r1, r1, #31
 8004ae8:	b510      	push	{r4, lr}
 8004aea:	2401      	movs	r4, #1
 8004aec:	408c      	lsls	r4, r1
 8004aee:	ea23 0304 	bic.w	r3, r3, r4
 8004af2:	6203      	str	r3, [r0, #32]
 8004af4:	6a03      	ldr	r3, [r0, #32]
 8004af6:	408a      	lsls	r2, r1
 8004af8:	431a      	orrs	r2, r3
 8004afa:	6202      	str	r2, [r0, #32]
 8004afc:	bd10      	pop	{r4, pc}
	...

08004b00 <HAL_TIM_OC_Start>:
 8004b00:	b510      	push	{r4, lr}
 8004b02:	4604      	mov	r4, r0
 8004b04:	b929      	cbnz	r1, 8004b12 <HAL_TIM_OC_Start+0x12>
 8004b06:	f890 303e 	ldrb.w	r3, [r0, #62]	; 0x3e
 8004b0a:	2b01      	cmp	r3, #1
 8004b0c:	d01d      	beq.n	8004b4a <HAL_TIM_OC_Start+0x4a>
 8004b0e:	2001      	movs	r0, #1
 8004b10:	e032      	b.n	8004b78 <HAL_TIM_OC_Start+0x78>
 8004b12:	2904      	cmp	r1, #4
 8004b14:	d107      	bne.n	8004b26 <HAL_TIM_OC_Start+0x26>
 8004b16:	f890 303f 	ldrb.w	r3, [r0, #63]	; 0x3f
 8004b1a:	2b01      	cmp	r3, #1
 8004b1c:	d1f7      	bne.n	8004b0e <HAL_TIM_OC_Start+0xe>
 8004b1e:	2302      	movs	r3, #2
 8004b20:	f880 303f 	strb.w	r3, [r0, #63]	; 0x3f
 8004b24:	e014      	b.n	8004b50 <HAL_TIM_OC_Start+0x50>
 8004b26:	2908      	cmp	r1, #8
 8004b28:	d107      	bne.n	8004b3a <HAL_TIM_OC_Start+0x3a>
 8004b2a:	f890 3040 	ldrb.w	r3, [r0, #64]	; 0x40
 8004b2e:	2b01      	cmp	r3, #1
 8004b30:	d1ed      	bne.n	8004b0e <HAL_TIM_OC_Start+0xe>
 8004b32:	2302      	movs	r3, #2
 8004b34:	f880 3040 	strb.w	r3, [r0, #64]	; 0x40
 8004b38:	e00a      	b.n	8004b50 <HAL_TIM_OC_Start+0x50>
 8004b3a:	f890 3041 	ldrb.w	r3, [r0, #65]	; 0x41
 8004b3e:	2b01      	cmp	r3, #1
 8004b40:	d1e5      	bne.n	8004b0e <HAL_TIM_OC_Start+0xe>
 8004b42:	2302      	movs	r3, #2
 8004b44:	f880 3041 	strb.w	r3, [r0, #65]	; 0x41
 8004b48:	e002      	b.n	8004b50 <HAL_TIM_OC_Start+0x50>
 8004b4a:	2302      	movs	r3, #2
 8004b4c:	f880 303e 	strb.w	r3, [r0, #62]	; 0x3e
 8004b50:	2201      	movs	r2, #1
 8004b52:	6820      	ldr	r0, [r4, #0]
 8004b54:	f7ff ffc5 	bl	8004ae2 <TIM_CCxChannelCmd>
 8004b58:	6823      	ldr	r3, [r4, #0]
 8004b5a:	4a19      	ldr	r2, [pc, #100]	; (8004bc0 <HAL_TIM_OC_Start+0xc0>)
 8004b5c:	4293      	cmp	r3, r2
 8004b5e:	d00c      	beq.n	8004b7a <HAL_TIM_OC_Start+0x7a>
 8004b60:	4918      	ldr	r1, [pc, #96]	; (8004bc4 <HAL_TIM_OC_Start+0xc4>)
 8004b62:	428b      	cmp	r3, r1
 8004b64:	d009      	beq.n	8004b7a <HAL_TIM_OC_Start+0x7a>
 8004b66:	f1b3 4f80 	cmp.w	r3, #1073741824	; 0x40000000
 8004b6a:	d10d      	bne.n	8004b88 <HAL_TIM_OC_Start+0x88>
 8004b6c:	689a      	ldr	r2, [r3, #8]
 8004b6e:	f002 0207 	and.w	r2, r2, #7
 8004b72:	2a06      	cmp	r2, #6
 8004b74:	d11f      	bne.n	8004bb6 <HAL_TIM_OC_Start+0xb6>
 8004b76:	2000      	movs	r0, #0
 8004b78:	bd10      	pop	{r4, pc}
 8004b7a:	6c59      	ldr	r1, [r3, #68]	; 0x44
 8004b7c:	4293      	cmp	r3, r2
 8004b7e:	f441 4100 	orr.w	r1, r1, #32768	; 0x8000
 8004b82:	6459      	str	r1, [r3, #68]	; 0x44
 8004b84:	d0f2      	beq.n	8004b6c <HAL_TIM_OC_Start+0x6c>
 8004b86:	e7ee      	b.n	8004b66 <HAL_TIM_OC_Start+0x66>
 8004b88:	4a0f      	ldr	r2, [pc, #60]	; (8004bc8 <HAL_TIM_OC_Start+0xc8>)
 8004b8a:	4293      	cmp	r3, r2
 8004b8c:	d0ee      	beq.n	8004b6c <HAL_TIM_OC_Start+0x6c>
 8004b8e:	f502 6280 	add.w	r2, r2, #1024	; 0x400
 8004b92:	4293      	cmp	r3, r2
 8004b94:	d0ea      	beq.n	8004b6c <HAL_TIM_OC_Start+0x6c>
 8004b96:	f502 6280 	add.w	r2, r2, #1024	; 0x400
 8004b9a:	4293      	cmp	r3, r2
 8004b9c:	d0e6      	beq.n	8004b6c <HAL_TIM_OC_Start+0x6c>
 8004b9e:	f502 4278 	add.w	r2, r2, #63488	; 0xf800
 8004ba2:	4293      	cmp	r3, r2
 8004ba4:	d0e2      	beq.n	8004b6c <HAL_TIM_OC_Start+0x6c>
 8004ba6:	f502 5270 	add.w	r2, r2, #15360	; 0x3c00
 8004baa:	4293      	cmp	r3, r2
 8004bac:	d0de      	beq.n	8004b6c <HAL_TIM_OC_Start+0x6c>
 8004bae:	f5a2 3294 	sub.w	r2, r2, #75776	; 0x12800
 8004bb2:	4293      	cmp	r3, r2
 8004bb4:	d0da      	beq.n	8004b6c <HAL_TIM_OC_Start+0x6c>
 8004bb6:	681a      	ldr	r2, [r3, #0]
 8004bb8:	f042 0201 	orr.w	r2, r2, #1
 8004bbc:	601a      	str	r2, [r3, #0]
 8004bbe:	e7da      	b.n	8004b76 <HAL_TIM_OC_Start+0x76>
 8004bc0:	40010000 	.word	0x40010000
 8004bc4:	40010400 	.word	0x40010400
 8004bc8:	40000400 	.word	0x40000400

08004bcc <HAL_TIM_PWM_Start>:
 8004bcc:	f7ff bf98 	b.w	8004b00 <HAL_TIM_OC_Start>

08004bd0 <HAL_TIMEx_MasterConfigSynchronization>:
 8004bd0:	b530      	push	{r4, r5, lr}
 8004bd2:	f890 303c 	ldrb.w	r3, [r0, #60]	; 0x3c
 8004bd6:	2b01      	cmp	r3, #1
 8004bd8:	f04f 0302 	mov.w	r3, #2
 8004bdc:	d032      	beq.n	8004c44 <HAL_TIMEx_MasterConfigSynchronization+0x74>
 8004bde:	f880 303d 	strb.w	r3, [r0, #61]	; 0x3d
 8004be2:	6803      	ldr	r3, [r0, #0]
 8004be4:	680d      	ldr	r5, [r1, #0]
 8004be6:	685c      	ldr	r4, [r3, #4]
 8004be8:	689a      	ldr	r2, [r3, #8]
 8004bea:	f024 0470 	bic.w	r4, r4, #112	; 0x70
 8004bee:	432c      	orrs	r4, r5
 8004bf0:	605c      	str	r4, [r3, #4]
 8004bf2:	4c15      	ldr	r4, [pc, #84]	; (8004c48 <HAL_TIMEx_MasterConfigSynchronization+0x78>)
 8004bf4:	42a3      	cmp	r3, r4
 8004bf6:	d01a      	beq.n	8004c2e <HAL_TIMEx_MasterConfigSynchronization+0x5e>
 8004bf8:	f1b3 4f80 	cmp.w	r3, #1073741824	; 0x40000000
 8004bfc:	d017      	beq.n	8004c2e <HAL_TIMEx_MasterConfigSynchronization+0x5e>
 8004bfe:	f5a4 447c 	sub.w	r4, r4, #64512	; 0xfc00
 8004c02:	42a3      	cmp	r3, r4
 8004c04:	d013      	beq.n	8004c2e <HAL_TIMEx_MasterConfigSynchronization+0x5e>
 8004c06:	f504 6480 	add.w	r4, r4, #1024	; 0x400
 8004c0a:	42a3      	cmp	r3, r4
 8004c0c:	d00f      	beq.n	8004c2e <HAL_TIMEx_MasterConfigSynchronization+0x5e>
 8004c0e:	f504 6480 	add.w	r4, r4, #1024	; 0x400
 8004c12:	42a3      	cmp	r3, r4
 8004c14:	d00b      	beq.n	8004c2e <HAL_TIMEx_MasterConfigSynchronization+0x5e>
 8004c16:	f504 4478 	add.w	r4, r4, #63488	; 0xf800
 8004c1a:	42a3      	cmp	r3, r4
 8004c1c:	d007      	beq.n	8004c2e <HAL_TIMEx_MasterConfigSynchronization+0x5e>
 8004c1e:	f504 5470 	add.w	r4, r4, #15360	; 0x3c00
 8004c22:	42a3      	cmp	r3, r4
 8004c24:	d003      	beq.n	8004c2e <HAL_TIMEx_MasterConfigSynchronization+0x5e>
 8004c26:	f5a4 3494 	sub.w	r4, r4, #75776	; 0x12800
 8004c2a:	42a3      	cmp	r3, r4
 8004c2c:	d104      	bne.n	8004c38 <HAL_TIMEx_MasterConfigSynchronization+0x68>
 8004c2e:	6849      	ldr	r1, [r1, #4]
 8004c30:	f022 0280 	bic.w	r2, r2, #128	; 0x80
 8004c34:	430a      	orrs	r2, r1
 8004c36:	609a      	str	r2, [r3, #8]
 8004c38:	2301      	movs	r3, #1
 8004c3a:	f880 303d 	strb.w	r3, [r0, #61]	; 0x3d
 8004c3e:	2300      	movs	r3, #0
 8004c40:	f880 303c 	strb.w	r3, [r0, #60]	; 0x3c
 8004c44:	4618      	mov	r0, r3
 8004c46:	bd30      	pop	{r4, r5, pc}
 8004c48:	40010000 	.word	0x40010000

08004c4c <HAL_TIMEx_CommutCallback>:
 8004c4c:	4770      	bx	lr

08004c4e <HAL_TIMEx_BreakCallback>:
 8004c4e:	4770      	bx	lr

08004c50 <UART_SetConfig>:
 8004c50:	6802      	ldr	r2, [r0, #0]
 8004c52:	68c1      	ldr	r1, [r0, #12]
 8004c54:	b538      	push	{r3, r4, r5, lr}
 8004c56:	6913      	ldr	r3, [r2, #16]
 8004c58:	f423 5340 	bic.w	r3, r3, #12288	; 0x3000
 8004c5c:	430b      	orrs	r3, r1
 8004c5e:	6113      	str	r3, [r2, #16]
 8004c60:	4605      	mov	r5, r0
 8004c62:	6883      	ldr	r3, [r0, #8]
 8004c64:	6900      	ldr	r0, [r0, #16]
 8004c66:	68d1      	ldr	r1, [r2, #12]
 8004c68:	4303      	orrs	r3, r0
 8004c6a:	6968      	ldr	r0, [r5, #20]
 8004c6c:	4303      	orrs	r3, r0
 8004c6e:	69e8      	ldr	r0, [r5, #28]
 8004c70:	f421 4116 	bic.w	r1, r1, #38400	; 0x9600
 8004c74:	f021 010c 	bic.w	r1, r1, #12
 8004c78:	4303      	orrs	r3, r0
 8004c7a:	430b      	orrs	r3, r1
 8004c7c:	60d3      	str	r3, [r2, #12]
 8004c7e:	6953      	ldr	r3, [r2, #20]
 8004c80:	69a9      	ldr	r1, [r5, #24]
 8004c82:	f423 7340 	bic.w	r3, r3, #768	; 0x300
 8004c86:	430b      	orrs	r3, r1
 8004c88:	6153      	str	r3, [r2, #20]
 8004c8a:	4b1f      	ldr	r3, [pc, #124]	; (8004d08 <UART_SetConfig+0xb8>)
 8004c8c:	429a      	cmp	r2, r3
 8004c8e:	d003      	beq.n	8004c98 <UART_SetConfig+0x48>
 8004c90:	f503 6380 	add.w	r3, r3, #1024	; 0x400
 8004c94:	429a      	cmp	r2, r3
 8004c96:	d124      	bne.n	8004ce2 <UART_SetConfig+0x92>
 8004c98:	f7fe fe9a 	bl	80039d0 <HAL_RCC_GetPCLK2Freq>
 8004c9c:	69ea      	ldr	r2, [r5, #28]
 8004c9e:	2319      	movs	r3, #25
 8004ca0:	f5b2 4f00 	cmp.w	r2, #32768	; 0x8000
 8004ca4:	fba0 0103 	umull	r0, r1, r0, r3
 8004ca8:	e9d5 4300 	ldrd	r4, r3, [r5]
 8004cac:	d11c      	bne.n	8004ce8 <UART_SetConfig+0x98>
 8004cae:	461a      	mov	r2, r3
 8004cb0:	1892      	adds	r2, r2, r2
 8004cb2:	f04f 0300 	mov.w	r3, #0
 8004cb6:	415b      	adcs	r3, r3
 8004cb8:	f7fb ffe6 	bl	8000c88 <__aeabi_uldivmod>
 8004cbc:	2164      	movs	r1, #100	; 0x64
 8004cbe:	fbb0 f5f1 	udiv	r5, r0, r1
 8004cc2:	fb01 0315 	mls	r3, r1, r5, r0
 8004cc6:	00db      	lsls	r3, r3, #3
 8004cc8:	3332      	adds	r3, #50	; 0x32
 8004cca:	fbb3 f3f1 	udiv	r3, r3, r1
 8004cce:	f003 0207 	and.w	r2, r3, #7
 8004cd2:	005b      	lsls	r3, r3, #1
 8004cd4:	eb02 1205 	add.w	r2, r2, r5, lsl #4
 8004cd8:	f403 73f8 	and.w	r3, r3, #496	; 0x1f0
 8004cdc:	4413      	add	r3, r2
 8004cde:	60a3      	str	r3, [r4, #8]
 8004ce0:	bd38      	pop	{r3, r4, r5, pc}
 8004ce2:	f7fe fe65 	bl	80039b0 <HAL_RCC_GetPCLK1Freq>
 8004ce6:	e7d9      	b.n	8004c9c <UART_SetConfig+0x4c>
 8004ce8:	009a      	lsls	r2, r3, #2
 8004cea:	0f9b      	lsrs	r3, r3, #30
 8004cec:	f7fb ffcc 	bl	8000c88 <__aeabi_uldivmod>
 8004cf0:	2264      	movs	r2, #100	; 0x64
 8004cf2:	fbb0 f1f2 	udiv	r1, r0, r2
 8004cf6:	fb02 0311 	mls	r3, r2, r1, r0
 8004cfa:	011b      	lsls	r3, r3, #4
 8004cfc:	3332      	adds	r3, #50	; 0x32
 8004cfe:	fbb3 f3f2 	udiv	r3, r3, r2
 8004d02:	eb03 1301 	add.w	r3, r3, r1, lsl #4
 8004d06:	e7ea      	b.n	8004cde <UART_SetConfig+0x8e>
 8004d08:	40011000 	.word	0x40011000

08004d0c <UART_WaitOnFlagUntilTimeout.constprop.0>:
 8004d0c:	b5f8      	push	{r3, r4, r5, r6, r7, lr}
 8004d0e:	4604      	mov	r4, r0
 8004d10:	460e      	mov	r6, r1
 8004d12:	4617      	mov	r7, r2
 8004d14:	461d      	mov	r5, r3
 8004d16:	6822      	ldr	r2, [r4, #0]
 8004d18:	6813      	ldr	r3, [r2, #0]
 8004d1a:	ea36 0303 	bics.w	r3, r6, r3
 8004d1e:	d101      	bne.n	8004d24 <UART_WaitOnFlagUntilTimeout.constprop.0+0x18>
 8004d20:	2000      	movs	r0, #0
 8004d22:	e014      	b.n	8004d4e <UART_WaitOnFlagUntilTimeout.constprop.0+0x42>
 8004d24:	1c6b      	adds	r3, r5, #1
 8004d26:	d0f7      	beq.n	8004d18 <UART_WaitOnFlagUntilTimeout.constprop.0+0xc>
 8004d28:	b995      	cbnz	r5, 8004d50 <UART_WaitOnFlagUntilTimeout.constprop.0+0x44>
 8004d2a:	6823      	ldr	r3, [r4, #0]
 8004d2c:	68da      	ldr	r2, [r3, #12]
 8004d2e:	f422 72d0 	bic.w	r2, r2, #416	; 0x1a0
 8004d32:	60da      	str	r2, [r3, #12]
 8004d34:	695a      	ldr	r2, [r3, #20]
 8004d36:	f022 0201 	bic.w	r2, r2, #1
 8004d3a:	615a      	str	r2, [r3, #20]
 8004d3c:	2320      	movs	r3, #32
 8004d3e:	f884 303d 	strb.w	r3, [r4, #61]	; 0x3d
 8004d42:	f884 303e 	strb.w	r3, [r4, #62]	; 0x3e
 8004d46:	2300      	movs	r3, #0
 8004d48:	f884 303c 	strb.w	r3, [r4, #60]	; 0x3c
 8004d4c:	2003      	movs	r0, #3
 8004d4e:	bdf8      	pop	{r3, r4, r5, r6, r7, pc}
 8004d50:	f7fd fad2 	bl	80022f8 <HAL_GetTick>
 8004d54:	1bc0      	subs	r0, r0, r7
 8004d56:	4285      	cmp	r5, r0
 8004d58:	d2dd      	bcs.n	8004d16 <UART_WaitOnFlagUntilTimeout.constprop.0+0xa>
 8004d5a:	e7e6      	b.n	8004d2a <UART_WaitOnFlagUntilTimeout.constprop.0+0x1e>

08004d5c <HAL_UART_Init>:
 8004d5c:	b510      	push	{r4, lr}
 8004d5e:	4604      	mov	r4, r0
 8004d60:	b340      	cbz	r0, 8004db4 <HAL_UART_Init+0x58>
 8004d62:	f890 303d 	ldrb.w	r3, [r0, #61]	; 0x3d
 8004d66:	f003 02ff 	and.w	r2, r3, #255	; 0xff
 8004d6a:	b91b      	cbnz	r3, 8004d74 <HAL_UART_Init+0x18>
 8004d6c:	f880 203c 	strb.w	r2, [r0, #60]	; 0x3c
 8004d70:	f7fd fa08 	bl	8002184 <HAL_UART_MspInit>
 8004d74:	6822      	ldr	r2, [r4, #0]
 8004d76:	2324      	movs	r3, #36	; 0x24
 8004d78:	f884 303d 	strb.w	r3, [r4, #61]	; 0x3d
 8004d7c:	68d3      	ldr	r3, [r2, #12]
 8004d7e:	f423 5300 	bic.w	r3, r3, #8192	; 0x2000
 8004d82:	60d3      	str	r3, [r2, #12]
 8004d84:	4620      	mov	r0, r4
 8004d86:	f7ff ff63 	bl	8004c50 <UART_SetConfig>
 8004d8a:	6823      	ldr	r3, [r4, #0]
 8004d8c:	691a      	ldr	r2, [r3, #16]
 8004d8e:	f422 4290 	bic.w	r2, r2, #18432	; 0x4800
 8004d92:	611a      	str	r2, [r3, #16]
 8004d94:	695a      	ldr	r2, [r3, #20]
 8004d96:	f022 022a 	bic.w	r2, r2, #42	; 0x2a
 8004d9a:	615a      	str	r2, [r3, #20]
 8004d9c:	68da      	ldr	r2, [r3, #12]
 8004d9e:	f442 5200 	orr.w	r2, r2, #8192	; 0x2000
 8004da2:	60da      	str	r2, [r3, #12]
 8004da4:	2000      	movs	r0, #0
 8004da6:	2320      	movs	r3, #32
 8004da8:	6420      	str	r0, [r4, #64]	; 0x40
 8004daa:	f884 303d 	strb.w	r3, [r4, #61]	; 0x3d
 8004dae:	f884 303e 	strb.w	r3, [r4, #62]	; 0x3e
 8004db2:	bd10      	pop	{r4, pc}
 8004db4:	2001      	movs	r0, #1
 8004db6:	e7fc      	b.n	8004db2 <HAL_UART_Init+0x56>

08004db8 <HAL_UART_Transmit>:
 8004db8:	b5f7      	push	{r0, r1, r2, r4, r5, r6, r7, lr}
 8004dba:	4617      	mov	r7, r2
 8004dbc:	f890 203d 	ldrb.w	r2, [r0, #61]	; 0x3d
 8004dc0:	9300      	str	r3, [sp, #0]
 8004dc2:	2a20      	cmp	r2, #32
 8004dc4:	4604      	mov	r4, r0
 8004dc6:	460e      	mov	r6, r1
 8004dc8:	d149      	bne.n	8004e5e <HAL_UART_Transmit+0xa6>
 8004dca:	2900      	cmp	r1, #0
 8004dcc:	d045      	beq.n	8004e5a <HAL_UART_Transmit+0xa2>
 8004dce:	2f00      	cmp	r7, #0
 8004dd0:	d043      	beq.n	8004e5a <HAL_UART_Transmit+0xa2>
 8004dd2:	f890 203c 	ldrb.w	r2, [r0, #60]	; 0x3c
 8004dd6:	2a01      	cmp	r2, #1
 8004dd8:	d041      	beq.n	8004e5e <HAL_UART_Transmit+0xa6>
 8004dda:	2201      	movs	r2, #1
 8004ddc:	f880 203c 	strb.w	r2, [r0, #60]	; 0x3c
 8004de0:	2500      	movs	r5, #0
 8004de2:	2221      	movs	r2, #33	; 0x21
 8004de4:	6405      	str	r5, [r0, #64]	; 0x40
 8004de6:	f880 203d 	strb.w	r2, [r0, #61]	; 0x3d
 8004dea:	f7fd fa85 	bl	80022f8 <HAL_GetTick>
 8004dee:	68a1      	ldr	r1, [r4, #8]
 8004df0:	9b00      	ldr	r3, [sp, #0]
 8004df2:	84a7      	strh	r7, [r4, #36]	; 0x24
 8004df4:	f5b1 5f80 	cmp.w	r1, #4096	; 0x1000
 8004df8:	4602      	mov	r2, r0
 8004dfa:	84e7      	strh	r7, [r4, #38]	; 0x26
 8004dfc:	d103      	bne.n	8004e06 <HAL_UART_Transmit+0x4e>
 8004dfe:	6921      	ldr	r1, [r4, #16]
 8004e00:	b909      	cbnz	r1, 8004e06 <HAL_UART_Transmit+0x4e>
 8004e02:	4635      	mov	r5, r6
 8004e04:	460e      	mov	r6, r1
 8004e06:	2100      	movs	r1, #0
 8004e08:	f884 103c 	strb.w	r1, [r4, #60]	; 0x3c
 8004e0c:	8ce1      	ldrh	r1, [r4, #38]	; 0x26
 8004e0e:	b289      	uxth	r1, r1
 8004e10:	b941      	cbnz	r1, 8004e24 <HAL_UART_Transmit+0x6c>
 8004e12:	2140      	movs	r1, #64	; 0x40
 8004e14:	4620      	mov	r0, r4
 8004e16:	f7ff ff79 	bl	8004d0c <UART_WaitOnFlagUntilTimeout.constprop.0>
 8004e1a:	b960      	cbnz	r0, 8004e36 <HAL_UART_Transmit+0x7e>
 8004e1c:	2320      	movs	r3, #32
 8004e1e:	f884 303d 	strb.w	r3, [r4, #61]	; 0x3d
 8004e22:	e009      	b.n	8004e38 <HAL_UART_Transmit+0x80>
 8004e24:	2180      	movs	r1, #128	; 0x80
 8004e26:	4620      	mov	r0, r4
 8004e28:	e9cd 2300 	strd	r2, r3, [sp]
 8004e2c:	f7ff ff6e 	bl	8004d0c <UART_WaitOnFlagUntilTimeout.constprop.0>
 8004e30:	e9dd 2300 	ldrd	r2, r3, [sp]
 8004e34:	b110      	cbz	r0, 8004e3c <HAL_UART_Transmit+0x84>
 8004e36:	2003      	movs	r0, #3
 8004e38:	b003      	add	sp, #12
 8004e3a:	bdf0      	pop	{r4, r5, r6, r7, pc}
 8004e3c:	6820      	ldr	r0, [r4, #0]
 8004e3e:	b94e      	cbnz	r6, 8004e54 <HAL_UART_Transmit+0x9c>
 8004e40:	f835 1b02 	ldrh.w	r1, [r5], #2
 8004e44:	f3c1 0108 	ubfx	r1, r1, #0, #9
 8004e48:	6041      	str	r1, [r0, #4]
 8004e4a:	8ce1      	ldrh	r1, [r4, #38]	; 0x26
 8004e4c:	3901      	subs	r1, #1
 8004e4e:	b289      	uxth	r1, r1
 8004e50:	84e1      	strh	r1, [r4, #38]	; 0x26
 8004e52:	e7db      	b.n	8004e0c <HAL_UART_Transmit+0x54>
 8004e54:	f816 1b01 	ldrb.w	r1, [r6], #1
 8004e58:	e7f6      	b.n	8004e48 <HAL_UART_Transmit+0x90>
 8004e5a:	2001      	movs	r0, #1
 8004e5c:	e7ec      	b.n	8004e38 <HAL_UART_Transmit+0x80>
 8004e5e:	2002      	movs	r0, #2
 8004e60:	e7ea      	b.n	8004e38 <HAL_UART_Transmit+0x80>
	...

08004e64 <USB_CoreReset>:
 8004e64:	4b0a      	ldr	r3, [pc, #40]	; (8004e90 <USB_CoreReset+0x2c>)
 8004e66:	3b01      	subs	r3, #1
 8004e68:	d00f      	beq.n	8004e8a <USB_CoreReset+0x26>
 8004e6a:	6902      	ldr	r2, [r0, #16]
 8004e6c:	2a00      	cmp	r2, #0
 8004e6e:	dafa      	bge.n	8004e66 <USB_CoreReset+0x2>
 8004e70:	6903      	ldr	r3, [r0, #16]
 8004e72:	4a07      	ldr	r2, [pc, #28]	; (8004e90 <USB_CoreReset+0x2c>)
 8004e74:	f043 0301 	orr.w	r3, r3, #1
 8004e78:	6103      	str	r3, [r0, #16]
 8004e7a:	3a01      	subs	r2, #1
 8004e7c:	d005      	beq.n	8004e8a <USB_CoreReset+0x26>
 8004e7e:	6903      	ldr	r3, [r0, #16]
 8004e80:	f013 0301 	ands.w	r3, r3, #1
 8004e84:	d1f9      	bne.n	8004e7a <USB_CoreReset+0x16>
 8004e86:	4618      	mov	r0, r3
 8004e88:	4770      	bx	lr
 8004e8a:	2003      	movs	r0, #3
 8004e8c:	4770      	bx	lr
 8004e8e:	bf00      	nop
 8004e90:	00030d41 	.word	0x00030d41

08004e94 <USB_CoreInit>:
 8004e94:	b084      	sub	sp, #16
 8004e96:	b538      	push	{r3, r4, r5, lr}
 8004e98:	ad05      	add	r5, sp, #20
 8004e9a:	e885 000e 	stmia.w	r5, {r1, r2, r3}
 8004e9e:	9b0a      	ldr	r3, [sp, #40]	; 0x28
 8004ea0:	2b01      	cmp	r3, #1
 8004ea2:	4604      	mov	r4, r0
 8004ea4:	d125      	bne.n	8004ef2 <USB_CoreInit+0x5e>
 8004ea6:	6b83      	ldr	r3, [r0, #56]	; 0x38
 8004ea8:	f423 3380 	bic.w	r3, r3, #65536	; 0x10000
 8004eac:	6383      	str	r3, [r0, #56]	; 0x38
 8004eae:	68c3      	ldr	r3, [r0, #12]
 8004eb0:	f423 0384 	bic.w	r3, r3, #4325376	; 0x420000
 8004eb4:	f023 0340 	bic.w	r3, r3, #64	; 0x40
 8004eb8:	60c3      	str	r3, [r0, #12]
 8004eba:	68c3      	ldr	r3, [r0, #12]
 8004ebc:	f423 1340 	bic.w	r3, r3, #3145728	; 0x300000
 8004ec0:	60c3      	str	r3, [r0, #12]
 8004ec2:	9b11      	ldr	r3, [sp, #68]	; 0x44
 8004ec4:	2b01      	cmp	r3, #1
 8004ec6:	bf02      	ittt	eq
 8004ec8:	68c3      	ldreq	r3, [r0, #12]
 8004eca:	f443 1380 	orreq.w	r3, r3, #1048576	; 0x100000
 8004ece:	60c3      	streq	r3, [r0, #12]
 8004ed0:	f7ff ffc8 	bl	8004e64 <USB_CoreReset>
 8004ed4:	9b08      	ldr	r3, [sp, #32]
 8004ed6:	2b01      	cmp	r3, #1
 8004ed8:	d107      	bne.n	8004eea <USB_CoreInit+0x56>
 8004eda:	68a3      	ldr	r3, [r4, #8]
 8004edc:	f043 0306 	orr.w	r3, r3, #6
 8004ee0:	60a3      	str	r3, [r4, #8]
 8004ee2:	68a3      	ldr	r3, [r4, #8]
 8004ee4:	f043 0320 	orr.w	r3, r3, #32
 8004ee8:	60a3      	str	r3, [r4, #8]
 8004eea:	e8bd 4038 	ldmia.w	sp!, {r3, r4, r5, lr}
 8004eee:	b004      	add	sp, #16
 8004ef0:	4770      	bx	lr
 8004ef2:	68c3      	ldr	r3, [r0, #12]
 8004ef4:	f043 0340 	orr.w	r3, r3, #64	; 0x40
 8004ef8:	60c3      	str	r3, [r0, #12]
 8004efa:	f7ff ffb3 	bl	8004e64 <USB_CoreReset>
 8004efe:	9b0e      	ldr	r3, [sp, #56]	; 0x38
 8004f00:	b923      	cbnz	r3, 8004f0c <USB_CoreInit+0x78>
 8004f02:	6ba3      	ldr	r3, [r4, #56]	; 0x38
 8004f04:	f443 3380 	orr.w	r3, r3, #65536	; 0x10000
 8004f08:	63a3      	str	r3, [r4, #56]	; 0x38
 8004f0a:	e7e3      	b.n	8004ed4 <USB_CoreInit+0x40>
 8004f0c:	6ba3      	ldr	r3, [r4, #56]	; 0x38
 8004f0e:	f423 3380 	bic.w	r3, r3, #65536	; 0x10000
 8004f12:	e7f9      	b.n	8004f08 <USB_CoreInit+0x74>

08004f14 <USB_SetTurnaroundTime>:
 8004f14:	2a02      	cmp	r2, #2
 8004f16:	d14a      	bne.n	8004fae <USB_SetTurnaroundTime+0x9a>
 8004f18:	4b27      	ldr	r3, [pc, #156]	; (8004fb8 <USB_SetTurnaroundTime+0xa4>)
 8004f1a:	4a28      	ldr	r2, [pc, #160]	; (8004fbc <USB_SetTurnaroundTime+0xa8>)
 8004f1c:	440b      	add	r3, r1
 8004f1e:	4293      	cmp	r3, r2
 8004f20:	d939      	bls.n	8004f96 <USB_SetTurnaroundTime+0x82>
 8004f22:	4b27      	ldr	r3, [pc, #156]	; (8004fc0 <USB_SetTurnaroundTime+0xac>)
 8004f24:	4a27      	ldr	r2, [pc, #156]	; (8004fc4 <USB_SetTurnaroundTime+0xb0>)
 8004f26:	440b      	add	r3, r1
 8004f28:	4293      	cmp	r3, r2
 8004f2a:	d936      	bls.n	8004f9a <USB_SetTurnaroundTime+0x86>
 8004f2c:	4a26      	ldr	r2, [pc, #152]	; (8004fc8 <USB_SetTurnaroundTime+0xb4>)
 8004f2e:	f5a1 0374 	sub.w	r3, r1, #15990784	; 0xf40000
 8004f32:	f5a3 5310 	sub.w	r3, r3, #9216	; 0x2400
 8004f36:	4293      	cmp	r3, r2
 8004f38:	d931      	bls.n	8004f9e <USB_SetTurnaroundTime+0x8a>
 8004f3a:	4a24      	ldr	r2, [pc, #144]	; (8004fcc <USB_SetTurnaroundTime+0xb8>)
 8004f3c:	f1a1 7383 	sub.w	r3, r1, #17170432	; 0x1060000
 8004f40:	f5a3 43e7 	sub.w	r3, r3, #29568	; 0x7380
 8004f44:	4293      	cmp	r3, r2
 8004f46:	d32c      	bcc.n	8004fa2 <USB_SetTurnaroundTime+0x8e>
 8004f48:	4b21      	ldr	r3, [pc, #132]	; (8004fd0 <USB_SetTurnaroundTime+0xbc>)
 8004f4a:	4a22      	ldr	r2, [pc, #136]	; (8004fd4 <USB_SetTurnaroundTime+0xc0>)
 8004f4c:	440b      	add	r3, r1
 8004f4e:	4293      	cmp	r3, r2
 8004f50:	d929      	bls.n	8004fa6 <USB_SetTurnaroundTime+0x92>
 8004f52:	4b21      	ldr	r3, [pc, #132]	; (8004fd8 <USB_SetTurnaroundTime+0xc4>)
 8004f54:	4a21      	ldr	r2, [pc, #132]	; (8004fdc <USB_SetTurnaroundTime+0xc8>)
 8004f56:	440b      	add	r3, r1
 8004f58:	4293      	cmp	r3, r2
 8004f5a:	d326      	bcc.n	8004faa <USB_SetTurnaroundTime+0x96>
 8004f5c:	4b20      	ldr	r3, [pc, #128]	; (8004fe0 <USB_SetTurnaroundTime+0xcc>)
 8004f5e:	4a21      	ldr	r2, [pc, #132]	; (8004fe4 <USB_SetTurnaroundTime+0xd0>)
 8004f60:	440b      	add	r3, r1
 8004f62:	4293      	cmp	r3, r2
 8004f64:	d323      	bcc.n	8004fae <USB_SetTurnaroundTime+0x9a>
 8004f66:	4a20      	ldr	r2, [pc, #128]	; (8004fe8 <USB_SetTurnaroundTime+0xd4>)
 8004f68:	f1a1 73b7 	sub.w	r3, r1, #23986176	; 0x16e0000
 8004f6c:	f5a3 5358 	sub.w	r3, r3, #13824	; 0x3600
 8004f70:	4293      	cmp	r3, r2
 8004f72:	d31e      	bcc.n	8004fb2 <USB_SetTurnaroundTime+0x9e>
 8004f74:	4b1d      	ldr	r3, [pc, #116]	; (8004fec <USB_SetTurnaroundTime+0xd8>)
 8004f76:	4a1e      	ldr	r2, [pc, #120]	; (8004ff0 <USB_SetTurnaroundTime+0xdc>)
 8004f78:	440b      	add	r3, r1
 8004f7a:	4293      	cmp	r3, r2
 8004f7c:	bf34      	ite	cc
 8004f7e:	2307      	movcc	r3, #7
 8004f80:	2306      	movcs	r3, #6
 8004f82:	68c2      	ldr	r2, [r0, #12]
 8004f84:	f422 5270 	bic.w	r2, r2, #15360	; 0x3c00
 8004f88:	60c2      	str	r2, [r0, #12]
 8004f8a:	68c2      	ldr	r2, [r0, #12]
 8004f8c:	ea42 2383 	orr.w	r3, r2, r3, lsl #10
 8004f90:	60c3      	str	r3, [r0, #12]
 8004f92:	2000      	movs	r0, #0
 8004f94:	4770      	bx	lr
 8004f96:	230f      	movs	r3, #15
 8004f98:	e7f3      	b.n	8004f82 <USB_SetTurnaroundTime+0x6e>
 8004f9a:	230e      	movs	r3, #14
 8004f9c:	e7f1      	b.n	8004f82 <USB_SetTurnaroundTime+0x6e>
 8004f9e:	230d      	movs	r3, #13
 8004fa0:	e7ef      	b.n	8004f82 <USB_SetTurnaroundTime+0x6e>
 8004fa2:	230c      	movs	r3, #12
 8004fa4:	e7ed      	b.n	8004f82 <USB_SetTurnaroundTime+0x6e>
 8004fa6:	230b      	movs	r3, #11
 8004fa8:	e7eb      	b.n	8004f82 <USB_SetTurnaroundTime+0x6e>
 8004faa:	230a      	movs	r3, #10
 8004fac:	e7e9      	b.n	8004f82 <USB_SetTurnaroundTime+0x6e>
 8004fae:	2309      	movs	r3, #9
 8004fb0:	e7e7      	b.n	8004f82 <USB_SetTurnaroundTime+0x6e>
 8004fb2:	2308      	movs	r3, #8
 8004fb4:	e7e5      	b.n	8004f82 <USB_SetTurnaroundTime+0x6e>
 8004fb6:	bf00      	nop
 8004fb8:	ff275340 	.word	0xff275340
 8004fbc:	000c34ff 	.word	0x000c34ff
 8004fc0:	ff1b1e40 	.word	0xff1b1e40
 8004fc4:	000f423f 	.word	0x000f423f
 8004fc8:	00124f7f 	.word	0x00124f7f
 8004fcc:	0013d620 	.word	0x0013d620
 8004fd0:	fee5b660 	.word	0xfee5b660
 8004fd4:	0016e35f 	.word	0x0016e35f
 8004fd8:	feced300 	.word	0xfeced300
 8004fdc:	001b7740 	.word	0x001b7740
 8004fe0:	feb35bc0 	.word	0xfeb35bc0
 8004fe4:	002191c0 	.word	0x002191c0
 8004fe8:	00387520 	.word	0x00387520
 8004fec:	fe5954e0 	.word	0xfe5954e0
 8004ff0:	00419ce0 	.word	0x00419ce0

08004ff4 <USB_EnableGlobalInt>:
 8004ff4:	6883      	ldr	r3, [r0, #8]
 8004ff6:	f043 0301 	orr.w	r3, r3, #1
 8004ffa:	6083      	str	r3, [r0, #8]
 8004ffc:	2000      	movs	r0, #0
 8004ffe:	4770      	bx	lr

08005000 <USB_DisableGlobalInt>:
 8005000:	6883      	ldr	r3, [r0, #8]
 8005002:	f023 0301 	bic.w	r3, r3, #1
 8005006:	6083      	str	r3, [r0, #8]
 8005008:	2000      	movs	r0, #0
 800500a:	4770      	bx	lr

0800500c <USB_SetCurrentMode>:
 800500c:	b508      	push	{r3, lr}
 800500e:	68c3      	ldr	r3, [r0, #12]
 8005010:	2901      	cmp	r1, #1
 8005012:	f023 43c0 	bic.w	r3, r3, #1610612736	; 0x60000000
 8005016:	60c3      	str	r3, [r0, #12]
 8005018:	d108      	bne.n	800502c <USB_SetCurrentMode+0x20>
 800501a:	68c3      	ldr	r3, [r0, #12]
 800501c:	f043 5300 	orr.w	r3, r3, #536870912	; 0x20000000
 8005020:	60c3      	str	r3, [r0, #12]
 8005022:	2032      	movs	r0, #50	; 0x32
 8005024:	f7fd f96e 	bl	8002304 <HAL_Delay>
 8005028:	2000      	movs	r0, #0
 800502a:	bd08      	pop	{r3, pc}
 800502c:	b919      	cbnz	r1, 8005036 <USB_SetCurrentMode+0x2a>
 800502e:	68c3      	ldr	r3, [r0, #12]
 8005030:	f043 4380 	orr.w	r3, r3, #1073741824	; 0x40000000
 8005034:	e7f4      	b.n	8005020 <USB_SetCurrentMode+0x14>
 8005036:	2001      	movs	r0, #1
 8005038:	e7f7      	b.n	800502a <USB_SetCurrentMode+0x1e>
	...

0800503c <USB_FlushTxFifo>:
 800503c:	0189      	lsls	r1, r1, #6
 800503e:	f041 0120 	orr.w	r1, r1, #32
 8005042:	4a06      	ldr	r2, [pc, #24]	; (800505c <USB_FlushTxFifo+0x20>)
 8005044:	6101      	str	r1, [r0, #16]
 8005046:	3a01      	subs	r2, #1
 8005048:	d005      	beq.n	8005056 <USB_FlushTxFifo+0x1a>
 800504a:	6903      	ldr	r3, [r0, #16]
 800504c:	f013 0320 	ands.w	r3, r3, #32
 8005050:	d1f9      	bne.n	8005046 <USB_FlushTxFifo+0xa>
 8005052:	4618      	mov	r0, r3
 8005054:	4770      	bx	lr
 8005056:	2003      	movs	r0, #3
 8005058:	4770      	bx	lr
 800505a:	bf00      	nop
 800505c:	00030d41 	.word	0x00030d41

08005060 <USB_FlushRxFifo>:
 8005060:	2310      	movs	r3, #16
 8005062:	4a06      	ldr	r2, [pc, #24]	; (800507c <USB_FlushRxFifo+0x1c>)
 8005064:	6103      	str	r3, [r0, #16]
 8005066:	3a01      	subs	r2, #1
 8005068:	d005      	beq.n	8005076 <USB_FlushRxFifo+0x16>
 800506a:	6903      	ldr	r3, [r0, #16]
 800506c:	f013 0310 	ands.w	r3, r3, #16
 8005070:	d1f9      	bne.n	8005066 <USB_FlushRxFifo+0x6>
 8005072:	4618      	mov	r0, r3
 8005074:	4770      	bx	lr
 8005076:	2003      	movs	r0, #3
 8005078:	4770      	bx	lr
 800507a:	bf00      	nop
 800507c:	00030d41 	.word	0x00030d41

08005080 <USB_SetDevSpeed>:
 8005080:	f8d0 3800 	ldr.w	r3, [r0, #2048]	; 0x800
 8005084:	4319      	orrs	r1, r3
 8005086:	f8c0 1800 	str.w	r1, [r0, #2048]	; 0x800
 800508a:	2000      	movs	r0, #0
 800508c:	4770      	bx	lr
	...

08005090 <USB_DevInit>:
 8005090:	b084      	sub	sp, #16
 8005092:	e92d 43f8 	stmdb	sp!, {r3, r4, r5, r6, r7, r8, r9, lr}
 8005096:	4604      	mov	r4, r0
 8005098:	a809      	add	r0, sp, #36	; 0x24
 800509a:	e880 000e 	stmia.w	r0, {r1, r2, r3}
 800509e:	2300      	movs	r3, #0
 80050a0:	9d13      	ldr	r5, [sp, #76]	; 0x4c
 80050a2:	460e      	mov	r6, r1
 80050a4:	4619      	mov	r1, r3
 80050a6:	f103 0240 	add.w	r2, r3, #64	; 0x40
 80050aa:	eb04 0282 	add.w	r2, r4, r2, lsl #2
 80050ae:	3301      	adds	r3, #1
 80050b0:	2b0f      	cmp	r3, #15
 80050b2:	6051      	str	r1, [r2, #4]
 80050b4:	d1f7      	bne.n	80050a6 <USB_DevInit+0x16>
 80050b6:	f504 6700 	add.w	r7, r4, #2048	; 0x800
 80050ba:	2d00      	cmp	r5, #0
 80050bc:	d16c      	bne.n	8005198 <USB_DevInit+0x108>
 80050be:	687b      	ldr	r3, [r7, #4]
 80050c0:	f043 0302 	orr.w	r3, r3, #2
 80050c4:	607b      	str	r3, [r7, #4]
 80050c6:	6ba3      	ldr	r3, [r4, #56]	; 0x38
 80050c8:	f423 1300 	bic.w	r3, r3, #2097152	; 0x200000
 80050cc:	63a3      	str	r3, [r4, #56]	; 0x38
 80050ce:	6823      	ldr	r3, [r4, #0]
 80050d0:	f043 0340 	orr.w	r3, r3, #64	; 0x40
 80050d4:	6023      	str	r3, [r4, #0]
 80050d6:	6823      	ldr	r3, [r4, #0]
 80050d8:	f043 0380 	orr.w	r3, r3, #128	; 0x80
 80050dc:	6023      	str	r3, [r4, #0]
 80050de:	2300      	movs	r3, #0
 80050e0:	f8c4 3e00 	str.w	r3, [r4, #3584]	; 0xe00
 80050e4:	f8d4 3800 	ldr.w	r3, [r4, #2048]	; 0x800
 80050e8:	f8c4 3800 	str.w	r3, [r4, #2048]	; 0x800
 80050ec:	9b0e      	ldr	r3, [sp, #56]	; 0x38
 80050ee:	2b01      	cmp	r3, #1
 80050f0:	d159      	bne.n	80051a6 <USB_DevInit+0x116>
 80050f2:	990b      	ldr	r1, [sp, #44]	; 0x2c
 80050f4:	2900      	cmp	r1, #0
 80050f6:	d154      	bne.n	80051a2 <USB_DevInit+0x112>
 80050f8:	4620      	mov	r0, r4
 80050fa:	f7ff ffc1 	bl	8005080 <USB_SetDevSpeed>
 80050fe:	2110      	movs	r1, #16
 8005100:	4620      	mov	r0, r4
 8005102:	f7ff ff9b 	bl	800503c <USB_FlushTxFifo>
 8005106:	4601      	mov	r1, r0
 8005108:	4620      	mov	r0, r4
 800510a:	f7ff ffa9 	bl	8005060 <USB_FlushRxFifo>
 800510e:	4308      	orrs	r0, r1
 8005110:	b2c0      	uxtb	r0, r0
 8005112:	2300      	movs	r3, #0
 8005114:	3800      	subs	r0, #0
 8005116:	613b      	str	r3, [r7, #16]
 8005118:	bf18      	it	ne
 800511a:	2001      	movne	r0, #1
 800511c:	617b      	str	r3, [r7, #20]
 800511e:	f504 6210 	add.w	r2, r4, #2304	; 0x900
 8005122:	61fb      	str	r3, [r7, #28]
 8005124:	4619      	mov	r1, r3
 8005126:	f04f 4c90 	mov.w	ip, #1207959552	; 0x48000000
 800512a:	f04f 6e00 	mov.w	lr, #134217728	; 0x8000000
 800512e:	f64f 387f 	movw	r8, #64383	; 0xfb7f
 8005132:	42b3      	cmp	r3, r6
 8005134:	d139      	bne.n	80051aa <USB_DevInit+0x11a>
 8005136:	2200      	movs	r2, #0
 8005138:	f504 6330 	add.w	r3, r4, #2816	; 0xb00
 800513c:	4611      	mov	r1, r2
 800513e:	f04f 4c90 	mov.w	ip, #1207959552	; 0x48000000
 8005142:	f04f 6e00 	mov.w	lr, #134217728	; 0x8000000
 8005146:	f64f 387f 	movw	r8, #64383	; 0xfb7f
 800514a:	42b2      	cmp	r2, r6
 800514c:	d140      	bne.n	80051d0 <USB_DevInit+0x140>
 800514e:	693b      	ldr	r3, [r7, #16]
 8005150:	f423 7380 	bic.w	r3, r3, #256	; 0x100
 8005154:	613b      	str	r3, [r7, #16]
 8005156:	2300      	movs	r3, #0
 8005158:	61a3      	str	r3, [r4, #24]
 800515a:	f06f 4380 	mvn.w	r3, #1073741824	; 0x40000000
 800515e:	6163      	str	r3, [r4, #20]
 8005160:	9b0c      	ldr	r3, [sp, #48]	; 0x30
 8005162:	b91b      	cbnz	r3, 800516c <USB_DevInit+0xdc>
 8005164:	69a3      	ldr	r3, [r4, #24]
 8005166:	f043 0310 	orr.w	r3, r3, #16
 800516a:	61a3      	str	r3, [r4, #24]
 800516c:	69a2      	ldr	r2, [r4, #24]
 800516e:	4b22      	ldr	r3, [pc, #136]	; (80051f8 <USB_DevInit+0x168>)
 8005170:	4313      	orrs	r3, r2
 8005172:	61a3      	str	r3, [r4, #24]
 8005174:	9b0f      	ldr	r3, [sp, #60]	; 0x3c
 8005176:	b11b      	cbz	r3, 8005180 <USB_DevInit+0xf0>
 8005178:	69a3      	ldr	r3, [r4, #24]
 800517a:	f043 0308 	orr.w	r3, r3, #8
 800517e:	61a3      	str	r3, [r4, #24]
 8005180:	2d01      	cmp	r5, #1
 8005182:	bf01      	itttt	eq
 8005184:	69a3      	ldreq	r3, [r4, #24]
 8005186:	f043 4380 	orreq.w	r3, r3, #1073741824	; 0x40000000
 800518a:	f043 0304 	orreq.w	r3, r3, #4
 800518e:	61a3      	streq	r3, [r4, #24]
 8005190:	e8bd 43f8 	ldmia.w	sp!, {r3, r4, r5, r6, r7, r8, r9, lr}
 8005194:	b004      	add	sp, #16
 8005196:	4770      	bx	lr
 8005198:	6ba3      	ldr	r3, [r4, #56]	; 0x38
 800519a:	f443 1300 	orr.w	r3, r3, #2097152	; 0x200000
 800519e:	63a3      	str	r3, [r4, #56]	; 0x38
 80051a0:	e79d      	b.n	80050de <USB_DevInit+0x4e>
 80051a2:	4619      	mov	r1, r3
 80051a4:	e7a8      	b.n	80050f8 <USB_DevInit+0x68>
 80051a6:	2103      	movs	r1, #3
 80051a8:	e7a6      	b.n	80050f8 <USB_DevInit+0x68>
 80051aa:	f8d2 9000 	ldr.w	r9, [r2]
 80051ae:	f1b9 0f00 	cmp.w	r9, #0
 80051b2:	da0b      	bge.n	80051cc <USB_DevInit+0x13c>
 80051b4:	b93b      	cbnz	r3, 80051c6 <USB_DevInit+0x136>
 80051b6:	f8c2 e000 	str.w	lr, [r2]
 80051ba:	6111      	str	r1, [r2, #16]
 80051bc:	3301      	adds	r3, #1
 80051be:	f8c2 8008 	str.w	r8, [r2, #8]
 80051c2:	3220      	adds	r2, #32
 80051c4:	e7b5      	b.n	8005132 <USB_DevInit+0xa2>
 80051c6:	f8c2 c000 	str.w	ip, [r2]
 80051ca:	e7f6      	b.n	80051ba <USB_DevInit+0x12a>
 80051cc:	6011      	str	r1, [r2, #0]
 80051ce:	e7f4      	b.n	80051ba <USB_DevInit+0x12a>
 80051d0:	f8d3 9000 	ldr.w	r9, [r3]
 80051d4:	f1b9 0f00 	cmp.w	r9, #0
 80051d8:	da0b      	bge.n	80051f2 <USB_DevInit+0x162>
 80051da:	b93a      	cbnz	r2, 80051ec <USB_DevInit+0x15c>
 80051dc:	f8c3 e000 	str.w	lr, [r3]
 80051e0:	6119      	str	r1, [r3, #16]
 80051e2:	3201      	adds	r2, #1
 80051e4:	f8c3 8008 	str.w	r8, [r3, #8]
 80051e8:	3320      	adds	r3, #32
 80051ea:	e7ae      	b.n	800514a <USB_DevInit+0xba>
 80051ec:	f8c3 c000 	str.w	ip, [r3]
 80051f0:	e7f6      	b.n	80051e0 <USB_DevInit+0x150>
 80051f2:	6019      	str	r1, [r3, #0]
 80051f4:	e7f4      	b.n	80051e0 <USB_DevInit+0x150>
 80051f6:	bf00      	nop
 80051f8:	803c3800 	.word	0x803c3800

080051fc <USB_GetDevSpeed>:
 80051fc:	f8d0 3808 	ldr.w	r3, [r0, #2056]	; 0x808
 8005200:	f013 0006 	ands.w	r0, r3, #6
 8005204:	d004      	beq.n	8005210 <USB_GetDevSpeed+0x14>
 8005206:	f013 0f02 	tst.w	r3, #2
 800520a:	bf14      	ite	ne
 800520c:	2002      	movne	r0, #2
 800520e:	200f      	moveq	r0, #15
 8005210:	4770      	bx	lr

08005212 <USB_ActivateEndpoint>:
 8005212:	b530      	push	{r4, r5, lr}
 8005214:	780d      	ldrb	r5, [r1, #0]
 8005216:	2401      	movs	r4, #1
 8005218:	f005 030f 	and.w	r3, r5, #15
 800521c:	409c      	lsls	r4, r3
 800521e:	784b      	ldrb	r3, [r1, #1]
 8005220:	f500 6200 	add.w	r2, r0, #2048	; 0x800
 8005224:	2b01      	cmp	r3, #1
 8005226:	eb00 1045 	add.w	r0, r0, r5, lsl #5
 800522a:	69d3      	ldr	r3, [r2, #28]
 800522c:	d118      	bne.n	8005260 <USB_ActivateEndpoint+0x4e>
 800522e:	431c      	orrs	r4, r3
 8005230:	61d4      	str	r4, [r2, #28]
 8005232:	f8d0 3900 	ldr.w	r3, [r0, #2304]	; 0x900
 8005236:	041a      	lsls	r2, r3, #16
 8005238:	d410      	bmi.n	800525c <USB_ActivateEndpoint+0x4a>
 800523a:	688a      	ldr	r2, [r1, #8]
 800523c:	f8d0 4900 	ldr.w	r4, [r0, #2304]	; 0x900
 8005240:	f3c2 030a 	ubfx	r3, r2, #0, #11
 8005244:	78ca      	ldrb	r2, [r1, #3]
 8005246:	4323      	orrs	r3, r4
 8005248:	ea43 4382 	orr.w	r3, r3, r2, lsl #18
 800524c:	ea43 5385 	orr.w	r3, r3, r5, lsl #22
 8005250:	f043 5380 	orr.w	r3, r3, #268435456	; 0x10000000
 8005254:	f443 4300 	orr.w	r3, r3, #32768	; 0x8000
 8005258:	f8c0 3900 	str.w	r3, [r0, #2304]	; 0x900
 800525c:	2000      	movs	r0, #0
 800525e:	bd30      	pop	{r4, r5, pc}
 8005260:	ea43 4404 	orr.w	r4, r3, r4, lsl #16
 8005264:	61d4      	str	r4, [r2, #28]
 8005266:	f8d0 3b00 	ldr.w	r3, [r0, #2816]	; 0xb00
 800526a:	041b      	lsls	r3, r3, #16
 800526c:	d4f6      	bmi.n	800525c <USB_ActivateEndpoint+0x4a>
 800526e:	688b      	ldr	r3, [r1, #8]
 8005270:	f8d0 2b00 	ldr.w	r2, [r0, #2816]	; 0xb00
 8005274:	f3c3 030a 	ubfx	r3, r3, #0, #11
 8005278:	4313      	orrs	r3, r2
 800527a:	78ca      	ldrb	r2, [r1, #3]
 800527c:	ea43 4382 	orr.w	r3, r3, r2, lsl #18
 8005280:	f043 5380 	orr.w	r3, r3, #268435456	; 0x10000000
 8005284:	f443 4300 	orr.w	r3, r3, #32768	; 0x8000
 8005288:	f8c0 3b00 	str.w	r3, [r0, #2816]	; 0xb00
 800528c:	e7e6      	b.n	800525c <USB_ActivateEndpoint+0x4a>
	...

08005290 <USB_DeactivateEndpoint>:
 8005290:	b510      	push	{r4, lr}
 8005292:	780a      	ldrb	r2, [r1, #0]
 8005294:	7849      	ldrb	r1, [r1, #1]
 8005296:	2901      	cmp	r1, #1
 8005298:	eb00 1342 	add.w	r3, r0, r2, lsl #5
 800529c:	f500 6000 	add.w	r0, r0, #2048	; 0x800
 80052a0:	f002 020f 	and.w	r2, r2, #15
 80052a4:	d122      	bne.n	80052ec <USB_DeactivateEndpoint+0x5c>
 80052a6:	f8d3 1900 	ldr.w	r1, [r3, #2304]	; 0x900
 80052aa:	2900      	cmp	r1, #0
 80052ac:	da0b      	bge.n	80052c6 <USB_DeactivateEndpoint+0x36>
 80052ae:	f8d3 1900 	ldr.w	r1, [r3, #2304]	; 0x900
 80052b2:	f041 6100 	orr.w	r1, r1, #134217728	; 0x8000000
 80052b6:	f8c3 1900 	str.w	r1, [r3, #2304]	; 0x900
 80052ba:	f8d3 1900 	ldr.w	r1, [r3, #2304]	; 0x900
 80052be:	f041 4180 	orr.w	r1, r1, #1073741824	; 0x40000000
 80052c2:	f8c3 1900 	str.w	r1, [r3, #2304]	; 0x900
 80052c6:	6bc4      	ldr	r4, [r0, #60]	; 0x3c
 80052c8:	2101      	movs	r1, #1
 80052ca:	fa01 f202 	lsl.w	r2, r1, r2
 80052ce:	ea24 0402 	bic.w	r4, r4, r2
 80052d2:	63c4      	str	r4, [r0, #60]	; 0x3c
 80052d4:	69c1      	ldr	r1, [r0, #28]
 80052d6:	ea21 0202 	bic.w	r2, r1, r2
 80052da:	61c2      	str	r2, [r0, #28]
 80052dc:	f8d3 1900 	ldr.w	r1, [r3, #2304]	; 0x900
 80052e0:	4a14      	ldr	r2, [pc, #80]	; (8005334 <USB_DeactivateEndpoint+0xa4>)
 80052e2:	400a      	ands	r2, r1
 80052e4:	f8c3 2900 	str.w	r2, [r3, #2304]	; 0x900
 80052e8:	2000      	movs	r0, #0
 80052ea:	bd10      	pop	{r4, pc}
 80052ec:	f8d3 1b00 	ldr.w	r1, [r3, #2816]	; 0xb00
 80052f0:	2900      	cmp	r1, #0
 80052f2:	da0b      	bge.n	800530c <USB_DeactivateEndpoint+0x7c>
 80052f4:	f8d3 1b00 	ldr.w	r1, [r3, #2816]	; 0xb00
 80052f8:	f041 6100 	orr.w	r1, r1, #134217728	; 0x8000000
 80052fc:	f8c3 1b00 	str.w	r1, [r3, #2816]	; 0xb00
 8005300:	f8d3 1b00 	ldr.w	r1, [r3, #2816]	; 0xb00
 8005304:	f041 4180 	orr.w	r1, r1, #1073741824	; 0x40000000
 8005308:	f8c3 1b00 	str.w	r1, [r3, #2816]	; 0xb00
 800530c:	6bc4      	ldr	r4, [r0, #60]	; 0x3c
 800530e:	f44f 3180 	mov.w	r1, #65536	; 0x10000
 8005312:	fa01 f202 	lsl.w	r2, r1, r2
 8005316:	ea24 0402 	bic.w	r4, r4, r2
 800531a:	63c4      	str	r4, [r0, #60]	; 0x3c
 800531c:	69c1      	ldr	r1, [r0, #28]
 800531e:	ea21 0202 	bic.w	r2, r1, r2
 8005322:	61c2      	str	r2, [r0, #28]
 8005324:	f8d3 1b00 	ldr.w	r1, [r3, #2816]	; 0xb00
 8005328:	4a03      	ldr	r2, [pc, #12]	; (8005338 <USB_DeactivateEndpoint+0xa8>)
 800532a:	400a      	ands	r2, r1
 800532c:	f8c3 2b00 	str.w	r2, [r3, #2816]	; 0xb00
 8005330:	e7da      	b.n	80052e8 <USB_DeactivateEndpoint+0x58>
 8005332:	bf00      	nop
 8005334:	ec337800 	.word	0xec337800
 8005338:	eff37800 	.word	0xeff37800

0800533c <USB_EP0StartXfer>:
 800533c:	784b      	ldrb	r3, [r1, #1]
 800533e:	f8df c0ec 	ldr.w	ip, [pc, #236]	; 800542c <USB_EP0StartXfer+0xf0>
 8005342:	b5f0      	push	{r4, r5, r6, r7, lr}
 8005344:	780e      	ldrb	r6, [r1, #0]
 8005346:	694d      	ldr	r5, [r1, #20]
 8005348:	4f37      	ldr	r7, [pc, #220]	; (8005428 <USB_EP0StartXfer+0xec>)
 800534a:	2b01      	cmp	r3, #1
 800534c:	eb00 1446 	add.w	r4, r0, r6, lsl #5
 8005350:	d146      	bne.n	80053e0 <USB_EP0StartXfer+0xa4>
 8005352:	f504 6310 	add.w	r3, r4, #2304	; 0x900
 8005356:	b9bd      	cbnz	r5, 8005388 <USB_EP0StartXfer+0x4c>
 8005358:	691d      	ldr	r5, [r3, #16]
 800535a:	402f      	ands	r7, r5
 800535c:	611f      	str	r7, [r3, #16]
 800535e:	691d      	ldr	r5, [r3, #16]
 8005360:	f445 2500 	orr.w	r5, r5, #524288	; 0x80000
 8005364:	611d      	str	r5, [r3, #16]
 8005366:	691d      	ldr	r5, [r3, #16]
 8005368:	ea05 050c 	and.w	r5, r5, ip
 800536c:	2a01      	cmp	r2, #1
 800536e:	611d      	str	r5, [r3, #16]
 8005370:	d123      	bne.n	80053ba <USB_EP0StartXfer+0x7e>
 8005372:	690a      	ldr	r2, [r1, #16]
 8005374:	b102      	cbz	r2, 8005378 <USB_EP0StartXfer+0x3c>
 8005376:	615a      	str	r2, [r3, #20]
 8005378:	f8d4 3900 	ldr.w	r3, [r4, #2304]	; 0x900
 800537c:	f043 4304 	orr.w	r3, r3, #2214592512	; 0x84000000
 8005380:	f8c4 3900 	str.w	r3, [r4, #2304]	; 0x900
 8005384:	2000      	movs	r0, #0
 8005386:	bdf0      	pop	{r4, r5, r6, r7, pc}
 8005388:	f8d3 e010 	ldr.w	lr, [r3, #16]
 800538c:	ea0e 0c0c 	and.w	ip, lr, ip
 8005390:	f8c3 c010 	str.w	ip, [r3, #16]
 8005394:	f8d3 c010 	ldr.w	ip, [r3, #16]
 8005398:	ea0c 0707 	and.w	r7, ip, r7
 800539c:	611f      	str	r7, [r3, #16]
 800539e:	688f      	ldr	r7, [r1, #8]
 80053a0:	42af      	cmp	r7, r5
 80053a2:	691d      	ldr	r5, [r3, #16]
 80053a4:	bf38      	it	cc
 80053a6:	614f      	strcc	r7, [r1, #20]
 80053a8:	f445 2500 	orr.w	r5, r5, #524288	; 0x80000
 80053ac:	611d      	str	r5, [r3, #16]
 80053ae:	694d      	ldr	r5, [r1, #20]
 80053b0:	691f      	ldr	r7, [r3, #16]
 80053b2:	f3c5 0512 	ubfx	r5, r5, #0, #19
 80053b6:	433d      	orrs	r5, r7
 80053b8:	e7d8      	b.n	800536c <USB_EP0StartXfer+0x30>
 80053ba:	f8d4 3900 	ldr.w	r3, [r4, #2304]	; 0x900
 80053be:	f043 4304 	orr.w	r3, r3, #2214592512	; 0x84000000
 80053c2:	f8c4 3900 	str.w	r3, [r4, #2304]	; 0x900
 80053c6:	694b      	ldr	r3, [r1, #20]
 80053c8:	2b00      	cmp	r3, #0
 80053ca:	d0db      	beq.n	8005384 <USB_EP0StartXfer+0x48>
 80053cc:	f8d0 2834 	ldr.w	r2, [r0, #2100]	; 0x834
 80053d0:	f006 060f 	and.w	r6, r6, #15
 80053d4:	2301      	movs	r3, #1
 80053d6:	40b3      	lsls	r3, r6
 80053d8:	4313      	orrs	r3, r2
 80053da:	f8c0 3834 	str.w	r3, [r0, #2100]	; 0x834
 80053de:	e7d1      	b.n	8005384 <USB_EP0StartXfer+0x48>
 80053e0:	f8d4 0b10 	ldr.w	r0, [r4, #2832]	; 0xb10
 80053e4:	ea00 000c 	and.w	r0, r0, ip
 80053e8:	f8c4 0b10 	str.w	r0, [r4, #2832]	; 0xb10
 80053ec:	f8d4 0b10 	ldr.w	r0, [r4, #2832]	; 0xb10
 80053f0:	4038      	ands	r0, r7
 80053f2:	f504 6330 	add.w	r3, r4, #2816	; 0xb00
 80053f6:	6118      	str	r0, [r3, #16]
 80053f8:	6888      	ldr	r0, [r1, #8]
 80053fa:	b105      	cbz	r5, 80053fe <USB_EP0StartXfer+0xc2>
 80053fc:	6148      	str	r0, [r1, #20]
 80053fe:	691d      	ldr	r5, [r3, #16]
 8005400:	f445 2500 	orr.w	r5, r5, #524288	; 0x80000
 8005404:	611d      	str	r5, [r3, #16]
 8005406:	691d      	ldr	r5, [r3, #16]
 8005408:	f3c0 0012 	ubfx	r0, r0, #0, #19
 800540c:	4328      	orrs	r0, r5
 800540e:	2a01      	cmp	r2, #1
 8005410:	6118      	str	r0, [r3, #16]
 8005412:	d102      	bne.n	800541a <USB_EP0StartXfer+0xde>
 8005414:	68ca      	ldr	r2, [r1, #12]
 8005416:	b102      	cbz	r2, 800541a <USB_EP0StartXfer+0xde>
 8005418:	615a      	str	r2, [r3, #20]
 800541a:	f8d4 3b00 	ldr.w	r3, [r4, #2816]	; 0xb00
 800541e:	f043 4304 	orr.w	r3, r3, #2214592512	; 0x84000000
 8005422:	f8c4 3b00 	str.w	r3, [r4, #2816]	; 0xb00
 8005426:	e7ad      	b.n	8005384 <USB_EP0StartXfer+0x48>
 8005428:	e007ffff 	.word	0xe007ffff
 800542c:	fff80000 	.word	0xfff80000

08005430 <USB_WritePacket>:
 8005430:	b510      	push	{r4, lr}
 8005432:	f89d 4008 	ldrb.w	r4, [sp, #8]
 8005436:	b944      	cbnz	r4, 800544a <USB_WritePacket+0x1a>
 8005438:	3303      	adds	r3, #3
 800543a:	3201      	adds	r2, #1
 800543c:	089b      	lsrs	r3, r3, #2
 800543e:	eb00 3002 	add.w	r0, r0, r2, lsl #12
 8005442:	eb01 0383 	add.w	r3, r1, r3, lsl #2
 8005446:	428b      	cmp	r3, r1
 8005448:	d101      	bne.n	800544e <USB_WritePacket+0x1e>
 800544a:	2000      	movs	r0, #0
 800544c:	bd10      	pop	{r4, pc}
 800544e:	f851 2b04 	ldr.w	r2, [r1], #4
 8005452:	6002      	str	r2, [r0, #0]
 8005454:	e7f7      	b.n	8005446 <USB_WritePacket+0x16>
	...

08005458 <USB_EPStartXfer>:
 8005458:	e92d 41f3 	stmdb	sp!, {r0, r1, r4, r5, r6, r7, r8, lr}
 800545c:	784d      	ldrb	r5, [r1, #1]
 800545e:	780f      	ldrb	r7, [r1, #0]
 8005460:	694b      	ldr	r3, [r1, #20]
 8005462:	78ce      	ldrb	r6, [r1, #3]
 8005464:	f8df c1c0 	ldr.w	ip, [pc, #448]	; 8005628 <USB_EPStartXfer+0x1d0>
 8005468:	f8df e1c0 	ldr.w	lr, [pc, #448]	; 800562c <USB_EPStartXfer+0x1d4>
 800546c:	2d01      	cmp	r5, #1
 800546e:	eb00 1447 	add.w	r4, r0, r7, lsl #5
 8005472:	f040 808e 	bne.w	8005592 <USB_EPStartXfer+0x13a>
 8005476:	f504 6510 	add.w	r5, r4, #2304	; 0x900
 800547a:	f8d5 8010 	ldr.w	r8, [r5, #16]
 800547e:	bb6b      	cbnz	r3, 80054dc <USB_EPStartXfer+0x84>
 8005480:	ea08 0c0c 	and.w	ip, r8, ip
 8005484:	f8c5 c010 	str.w	ip, [r5, #16]
 8005488:	f8d5 c010 	ldr.w	ip, [r5, #16]
 800548c:	f44c 2c00 	orr.w	ip, ip, #524288	; 0x80000
 8005490:	f8c5 c010 	str.w	ip, [r5, #16]
 8005494:	f8d5 c010 	ldr.w	ip, [r5, #16]
 8005498:	ea0c 0e0e 	and.w	lr, ip, lr
 800549c:	f8c5 e010 	str.w	lr, [r5, #16]
 80054a0:	2a01      	cmp	r2, #1
 80054a2:	d14e      	bne.n	8005542 <USB_EPStartXfer+0xea>
 80054a4:	690b      	ldr	r3, [r1, #16]
 80054a6:	b103      	cbz	r3, 80054aa <USB_EPStartXfer+0x52>
 80054a8:	616b      	str	r3, [r5, #20]
 80054aa:	2e01      	cmp	r6, #1
 80054ac:	d10c      	bne.n	80054c8 <USB_EPStartXfer+0x70>
 80054ae:	f8d0 3808 	ldr.w	r3, [r0, #2056]	; 0x808
 80054b2:	f413 7f80 	tst.w	r3, #256	; 0x100
 80054b6:	f8d4 3900 	ldr.w	r3, [r4, #2304]	; 0x900
 80054ba:	bf0c      	ite	eq
 80054bc:	f043 5300 	orreq.w	r3, r3, #536870912	; 0x20000000
 80054c0:	f043 5380 	orrne.w	r3, r3, #268435456	; 0x10000000
 80054c4:	f8c4 3900 	str.w	r3, [r4, #2304]	; 0x900
 80054c8:	f8d4 3900 	ldr.w	r3, [r4, #2304]	; 0x900
 80054cc:	f043 4304 	orr.w	r3, r3, #2214592512	; 0x84000000
 80054d0:	f8c4 3900 	str.w	r3, [r4, #2304]	; 0x900
 80054d4:	2000      	movs	r0, #0
 80054d6:	b002      	add	sp, #8
 80054d8:	e8bd 81f0 	ldmia.w	sp!, {r4, r5, r6, r7, r8, pc}
 80054dc:	ea08 0e0e 	and.w	lr, r8, lr
 80054e0:	f8c5 e010 	str.w	lr, [r5, #16]
 80054e4:	f8d5 e010 	ldr.w	lr, [r5, #16]
 80054e8:	ea0e 0c0c 	and.w	ip, lr, ip
 80054ec:	f8d1 e008 	ldr.w	lr, [r1, #8]
 80054f0:	f8c5 c010 	str.w	ip, [r5, #16]
 80054f4:	eb0e 0c03 	add.w	ip, lr, r3
 80054f8:	f10c 3cff 	add.w	ip, ip, #4294967295
 80054fc:	fbbc fefe 	udiv	lr, ip, lr
 8005500:	f8df c12c 	ldr.w	ip, [pc, #300]	; 8005630 <USB_EPStartXfer+0x1d8>
 8005504:	f8d5 8010 	ldr.w	r8, [r5, #16]
 8005508:	ea0c 4cce 	and.w	ip, ip, lr, lsl #19
 800550c:	ea4c 0c08 	orr.w	ip, ip, r8
 8005510:	f8c5 c010 	str.w	ip, [r5, #16]
 8005514:	f8d5 e010 	ldr.w	lr, [r5, #16]
 8005518:	f3c3 0c12 	ubfx	ip, r3, #0, #19
 800551c:	ea4c 0c0e 	orr.w	ip, ip, lr
 8005520:	2e01      	cmp	r6, #1
 8005522:	f8c5 c010 	str.w	ip, [r5, #16]
 8005526:	d1bb      	bne.n	80054a0 <USB_EPStartXfer+0x48>
 8005528:	f8d5 c010 	ldr.w	ip, [r5, #16]
 800552c:	f02c 4cc0 	bic.w	ip, ip, #1610612736	; 0x60000000
 8005530:	f8c5 c010 	str.w	ip, [r5, #16]
 8005534:	f8d5 c010 	ldr.w	ip, [r5, #16]
 8005538:	f04c 5c00 	orr.w	ip, ip, #536870912	; 0x20000000
 800553c:	f8c5 c010 	str.w	ip, [r5, #16]
 8005540:	e7ae      	b.n	80054a0 <USB_EPStartXfer+0x48>
 8005542:	f8d4 5900 	ldr.w	r5, [r4, #2304]	; 0x900
 8005546:	2e01      	cmp	r6, #1
 8005548:	f045 4504 	orr.w	r5, r5, #2214592512	; 0x84000000
 800554c:	f8c4 5900 	str.w	r5, [r4, #2304]	; 0x900
 8005550:	d00b      	beq.n	800556a <USB_EPStartXfer+0x112>
 8005552:	2b00      	cmp	r3, #0
 8005554:	d0be      	beq.n	80054d4 <USB_EPStartXfer+0x7c>
 8005556:	f8d0 3834 	ldr.w	r3, [r0, #2100]	; 0x834
 800555a:	f007 020f 	and.w	r2, r7, #15
 800555e:	2701      	movs	r7, #1
 8005560:	4097      	lsls	r7, r2
 8005562:	431f      	orrs	r7, r3
 8005564:	f8c0 7834 	str.w	r7, [r0, #2100]	; 0x834
 8005568:	e7b4      	b.n	80054d4 <USB_EPStartXfer+0x7c>
 800556a:	f8d0 5808 	ldr.w	r5, [r0, #2056]	; 0x808
 800556e:	f415 7f80 	tst.w	r5, #256	; 0x100
 8005572:	f8d4 5900 	ldr.w	r5, [r4, #2304]	; 0x900
 8005576:	bf0c      	ite	eq
 8005578:	f045 5500 	orreq.w	r5, r5, #536870912	; 0x20000000
 800557c:	f045 5580 	orrne.w	r5, r5, #268435456	; 0x10000000
 8005580:	f8c4 5900 	str.w	r5, [r4, #2304]	; 0x900
 8005584:	9200      	str	r2, [sp, #0]
 8005586:	68c9      	ldr	r1, [r1, #12]
 8005588:	b29b      	uxth	r3, r3
 800558a:	463a      	mov	r2, r7
 800558c:	f7ff ff50 	bl	8005430 <USB_WritePacket>
 8005590:	e7a0      	b.n	80054d4 <USB_EPStartXfer+0x7c>
 8005592:	f8d4 5b10 	ldr.w	r5, [r4, #2832]	; 0xb10
 8005596:	ea05 050e 	and.w	r5, r5, lr
 800559a:	f8c4 5b10 	str.w	r5, [r4, #2832]	; 0xb10
 800559e:	f8d4 5b10 	ldr.w	r5, [r4, #2832]	; 0xb10
 80055a2:	ea05 050c 	and.w	r5, r5, ip
 80055a6:	f504 6730 	add.w	r7, r4, #2816	; 0xb00
 80055aa:	613d      	str	r5, [r7, #16]
 80055ac:	688d      	ldr	r5, [r1, #8]
 80055ae:	bb1b      	cbnz	r3, 80055f8 <USB_EPStartXfer+0x1a0>
 80055b0:	693b      	ldr	r3, [r7, #16]
 80055b2:	f3c5 0512 	ubfx	r5, r5, #0, #19
 80055b6:	431d      	orrs	r5, r3
 80055b8:	613d      	str	r5, [r7, #16]
 80055ba:	693b      	ldr	r3, [r7, #16]
 80055bc:	f443 2300 	orr.w	r3, r3, #524288	; 0x80000
 80055c0:	2a01      	cmp	r2, #1
 80055c2:	613b      	str	r3, [r7, #16]
 80055c4:	d102      	bne.n	80055cc <USB_EPStartXfer+0x174>
 80055c6:	68cb      	ldr	r3, [r1, #12]
 80055c8:	b103      	cbz	r3, 80055cc <USB_EPStartXfer+0x174>
 80055ca:	617b      	str	r3, [r7, #20]
 80055cc:	2e01      	cmp	r6, #1
 80055ce:	d10c      	bne.n	80055ea <USB_EPStartXfer+0x192>
 80055d0:	f8d0 3808 	ldr.w	r3, [r0, #2056]	; 0x808
 80055d4:	f413 7f80 	tst.w	r3, #256	; 0x100
 80055d8:	f8d4 3b00 	ldr.w	r3, [r4, #2816]	; 0xb00
 80055dc:	bf0c      	ite	eq
 80055de:	f043 5300 	orreq.w	r3, r3, #536870912	; 0x20000000
 80055e2:	f043 5380 	orrne.w	r3, r3, #268435456	; 0x10000000
 80055e6:	f8c4 3b00 	str.w	r3, [r4, #2816]	; 0xb00
 80055ea:	f8d4 3b00 	ldr.w	r3, [r4, #2816]	; 0xb00
 80055ee:	f043 4304 	orr.w	r3, r3, #2214592512	; 0x84000000
 80055f2:	f8c4 3b00 	str.w	r3, [r4, #2816]	; 0xb00
 80055f6:	e76d      	b.n	80054d4 <USB_EPStartXfer+0x7c>
 80055f8:	f8df c034 	ldr.w	ip, [pc, #52]	; 8005630 <USB_EPStartXfer+0x1d8>
 80055fc:	f8d7 e010 	ldr.w	lr, [r7, #16]
 8005600:	442b      	add	r3, r5
 8005602:	3b01      	subs	r3, #1
 8005604:	fbb3 f3f5 	udiv	r3, r3, r5
 8005608:	ea0c 4cc3 	and.w	ip, ip, r3, lsl #19
 800560c:	ea4c 0c0e 	orr.w	ip, ip, lr
 8005610:	f8c7 c010 	str.w	ip, [r7, #16]
 8005614:	b29b      	uxth	r3, r3
 8005616:	f8d7 c010 	ldr.w	ip, [r7, #16]
 800561a:	436b      	muls	r3, r5
 800561c:	f3c3 0312 	ubfx	r3, r3, #0, #19
 8005620:	ea43 030c 	orr.w	r3, r3, ip
 8005624:	e7cc      	b.n	80055c0 <USB_EPStartXfer+0x168>
 8005626:	bf00      	nop
 8005628:	e007ffff 	.word	0xe007ffff
 800562c:	fff80000 	.word	0xfff80000
 8005630:	1ff80000 	.word	0x1ff80000

08005634 <USB_ReadPacket>:
 8005634:	3203      	adds	r2, #3
 8005636:	0892      	lsrs	r2, r2, #2
 8005638:	eb01 0282 	add.w	r2, r1, r2, lsl #2
 800563c:	f500 5080 	add.w	r0, r0, #4096	; 0x1000
 8005640:	4291      	cmp	r1, r2
 8005642:	d101      	bne.n	8005648 <USB_ReadPacket+0x14>
 8005644:	4608      	mov	r0, r1
 8005646:	4770      	bx	lr
 8005648:	6803      	ldr	r3, [r0, #0]
 800564a:	f841 3b04 	str.w	r3, [r1], #4
 800564e:	e7f7      	b.n	8005640 <USB_ReadPacket+0xc>

08005650 <USB_EPSetStall>:
 8005650:	784a      	ldrb	r2, [r1, #1]
 8005652:	780b      	ldrb	r3, [r1, #0]
 8005654:	2a01      	cmp	r2, #1
 8005656:	eb00 1043 	add.w	r0, r0, r3, lsl #5
 800565a:	d112      	bne.n	8005682 <USB_EPSetStall+0x32>
 800565c:	f8d0 2900 	ldr.w	r2, [r0, #2304]	; 0x900
 8005660:	2a00      	cmp	r2, #0
 8005662:	db06      	blt.n	8005672 <USB_EPSetStall+0x22>
 8005664:	b12b      	cbz	r3, 8005672 <USB_EPSetStall+0x22>
 8005666:	f8d0 3900 	ldr.w	r3, [r0, #2304]	; 0x900
 800566a:	f023 4380 	bic.w	r3, r3, #1073741824	; 0x40000000
 800566e:	f8c0 3900 	str.w	r3, [r0, #2304]	; 0x900
 8005672:	f8d0 3900 	ldr.w	r3, [r0, #2304]	; 0x900
 8005676:	f443 1300 	orr.w	r3, r3, #2097152	; 0x200000
 800567a:	f8c0 3900 	str.w	r3, [r0, #2304]	; 0x900
 800567e:	2000      	movs	r0, #0
 8005680:	4770      	bx	lr
 8005682:	f8d0 2b00 	ldr.w	r2, [r0, #2816]	; 0xb00
 8005686:	2a00      	cmp	r2, #0
 8005688:	db06      	blt.n	8005698 <USB_EPSetStall+0x48>
 800568a:	b12b      	cbz	r3, 8005698 <USB_EPSetStall+0x48>
 800568c:	f8d0 3b00 	ldr.w	r3, [r0, #2816]	; 0xb00
 8005690:	f023 4380 	bic.w	r3, r3, #1073741824	; 0x40000000
 8005694:	f8c0 3b00 	str.w	r3, [r0, #2816]	; 0xb00
 8005698:	f8d0 3b00 	ldr.w	r3, [r0, #2816]	; 0xb00
 800569c:	f443 1300 	orr.w	r3, r3, #2097152	; 0x200000
 80056a0:	f8c0 3b00 	str.w	r3, [r0, #2816]	; 0xb00
 80056a4:	e7eb      	b.n	800567e <USB_EPSetStall+0x2e>

080056a6 <USB_EPClearStall>:
 80056a6:	780b      	ldrb	r3, [r1, #0]
 80056a8:	784a      	ldrb	r2, [r1, #1]
 80056aa:	eb00 1043 	add.w	r0, r0, r3, lsl #5
 80056ae:	78cb      	ldrb	r3, [r1, #3]
 80056b0:	2a01      	cmp	r2, #1
 80056b2:	f1a3 0302 	sub.w	r3, r3, #2
 80056b6:	b2db      	uxtb	r3, r3
 80056b8:	d10f      	bne.n	80056da <USB_EPClearStall+0x34>
 80056ba:	f8d0 2900 	ldr.w	r2, [r0, #2304]	; 0x900
 80056be:	2b01      	cmp	r3, #1
 80056c0:	f422 1200 	bic.w	r2, r2, #2097152	; 0x200000
 80056c4:	f8c0 2900 	str.w	r2, [r0, #2304]	; 0x900
 80056c8:	d805      	bhi.n	80056d6 <USB_EPClearStall+0x30>
 80056ca:	f8d0 3900 	ldr.w	r3, [r0, #2304]	; 0x900
 80056ce:	f043 5380 	orr.w	r3, r3, #268435456	; 0x10000000
 80056d2:	f8c0 3900 	str.w	r3, [r0, #2304]	; 0x900
 80056d6:	2000      	movs	r0, #0
 80056d8:	4770      	bx	lr
 80056da:	f8d0 2b00 	ldr.w	r2, [r0, #2816]	; 0xb00
 80056de:	f422 1200 	bic.w	r2, r2, #2097152	; 0x200000
 80056e2:	2b01      	cmp	r3, #1
 80056e4:	f8c0 2b00 	str.w	r2, [r0, #2816]	; 0xb00
 80056e8:	bf9e      	ittt	ls
 80056ea:	f8d0 3b00 	ldrls.w	r3, [r0, #2816]	; 0xb00
 80056ee:	f043 5380 	orrls.w	r3, r3, #268435456	; 0x10000000
 80056f2:	f8c0 3b00 	strls.w	r3, [r0, #2816]	; 0xb00
 80056f6:	e7ee      	b.n	80056d6 <USB_EPClearStall+0x30>

080056f8 <USB_SetDevAddress>:
 80056f8:	f8d0 3800 	ldr.w	r3, [r0, #2048]	; 0x800
 80056fc:	f423 63fe 	bic.w	r3, r3, #2032	; 0x7f0
 8005700:	f8c0 3800 	str.w	r3, [r0, #2048]	; 0x800
 8005704:	f8d0 3800 	ldr.w	r3, [r0, #2048]	; 0x800
 8005708:	0109      	lsls	r1, r1, #4
 800570a:	f401 61fe 	and.w	r1, r1, #2032	; 0x7f0
 800570e:	4319      	orrs	r1, r3
 8005710:	f8c0 1800 	str.w	r1, [r0, #2048]	; 0x800
 8005714:	2000      	movs	r0, #0
 8005716:	4770      	bx	lr

08005718 <USB_DevConnect>:
 8005718:	f8d0 3e00 	ldr.w	r3, [r0, #3584]	; 0xe00
 800571c:	f023 0303 	bic.w	r3, r3, #3
 8005720:	f8c0 3e00 	str.w	r3, [r0, #3584]	; 0xe00
 8005724:	f8d0 3804 	ldr.w	r3, [r0, #2052]	; 0x804
 8005728:	f023 0302 	bic.w	r3, r3, #2
 800572c:	f8c0 3804 	str.w	r3, [r0, #2052]	; 0x804
 8005730:	2000      	movs	r0, #0
 8005732:	4770      	bx	lr

08005734 <USB_DevDisconnect>:
 8005734:	f8d0 3e00 	ldr.w	r3, [r0, #3584]	; 0xe00
 8005738:	f023 0303 	bic.w	r3, r3, #3
 800573c:	f8c0 3e00 	str.w	r3, [r0, #3584]	; 0xe00
 8005740:	f8d0 3804 	ldr.w	r3, [r0, #2052]	; 0x804
 8005744:	f043 0302 	orr.w	r3, r3, #2
 8005748:	f8c0 3804 	str.w	r3, [r0, #2052]	; 0x804
 800574c:	2000      	movs	r0, #0
 800574e:	4770      	bx	lr

08005750 <USB_ReadInterrupts>:
 8005750:	6942      	ldr	r2, [r0, #20]
 8005752:	6980      	ldr	r0, [r0, #24]
 8005754:	4010      	ands	r0, r2
 8005756:	4770      	bx	lr

08005758 <USB_ReadDevAllOutEpInterrupt>:
 8005758:	f8d0 3818 	ldr.w	r3, [r0, #2072]	; 0x818
 800575c:	f500 6000 	add.w	r0, r0, #2048	; 0x800
 8005760:	69c0      	ldr	r0, [r0, #28]
 8005762:	4018      	ands	r0, r3
 8005764:	0c00      	lsrs	r0, r0, #16
 8005766:	4770      	bx	lr

08005768 <USB_ReadDevAllInEpInterrupt>:
 8005768:	f8d0 3818 	ldr.w	r3, [r0, #2072]	; 0x818
 800576c:	f500 6000 	add.w	r0, r0, #2048	; 0x800
 8005770:	69c0      	ldr	r0, [r0, #28]
 8005772:	4018      	ands	r0, r3
 8005774:	b280      	uxth	r0, r0
 8005776:	4770      	bx	lr

08005778 <USB_ReadDevOutEPInterrupt>:
 8005778:	eb00 1141 	add.w	r1, r0, r1, lsl #5
 800577c:	f500 6000 	add.w	r0, r0, #2048	; 0x800
 8005780:	f8d1 2b08 	ldr.w	r2, [r1, #2824]	; 0xb08
 8005784:	6940      	ldr	r0, [r0, #20]
 8005786:	4010      	ands	r0, r2
 8005788:	4770      	bx	lr

0800578a <USB_ReadDevInEPInterrupt>:
 800578a:	b510      	push	{r4, lr}
 800578c:	f8d0 4810 	ldr.w	r4, [r0, #2064]	; 0x810
 8005790:	f8d0 3834 	ldr.w	r3, [r0, #2100]	; 0x834
 8005794:	eb00 1041 	add.w	r0, r0, r1, lsl #5
 8005798:	f001 010f 	and.w	r1, r1, #15
 800579c:	40cb      	lsrs	r3, r1
 800579e:	f500 6010 	add.w	r0, r0, #2304	; 0x900
 80057a2:	01db      	lsls	r3, r3, #7
 80057a4:	6880      	ldr	r0, [r0, #8]
 80057a6:	b2db      	uxtb	r3, r3
 80057a8:	4323      	orrs	r3, r4
 80057aa:	4018      	ands	r0, r3
 80057ac:	bd10      	pop	{r4, pc}

080057ae <USB_GetMode>:
 80057ae:	6940      	ldr	r0, [r0, #20]
 80057b0:	f000 0001 	and.w	r0, r0, #1
 80057b4:	4770      	bx	lr

080057b6 <USB_ActivateSetup>:
 80057b6:	f8d0 3900 	ldr.w	r3, [r0, #2304]	; 0x900
 80057ba:	f423 63ff 	bic.w	r3, r3, #2040	; 0x7f8
 80057be:	f023 0307 	bic.w	r3, r3, #7
 80057c2:	f8c0 3900 	str.w	r3, [r0, #2304]	; 0x900
 80057c6:	f8d0 3804 	ldr.w	r3, [r0, #2052]	; 0x804
 80057ca:	f443 7380 	orr.w	r3, r3, #256	; 0x100
 80057ce:	f8c0 3804 	str.w	r3, [r0, #2052]	; 0x804
 80057d2:	2000      	movs	r0, #0
 80057d4:	4770      	bx	lr
	...

080057d8 <USB_EP0_OutStart>:
 80057d8:	b530      	push	{r4, r5, lr}
 80057da:	6c05      	ldr	r5, [r0, #64]	; 0x40
 80057dc:	4c10      	ldr	r4, [pc, #64]	; (8005820 <USB_EP0_OutStart+0x48>)
 80057de:	42a5      	cmp	r5, r4
 80057e0:	f500 6330 	add.w	r3, r0, #2816	; 0xb00
 80057e4:	d903      	bls.n	80057ee <USB_EP0_OutStart+0x16>
 80057e6:	f8d0 4b00 	ldr.w	r4, [r0, #2816]	; 0xb00
 80057ea:	2c00      	cmp	r4, #0
 80057ec:	db16      	blt.n	800581c <USB_EP0_OutStart+0x44>
 80057ee:	2400      	movs	r4, #0
 80057f0:	611c      	str	r4, [r3, #16]
 80057f2:	691c      	ldr	r4, [r3, #16]
 80057f4:	f444 2400 	orr.w	r4, r4, #524288	; 0x80000
 80057f8:	611c      	str	r4, [r3, #16]
 80057fa:	691c      	ldr	r4, [r3, #16]
 80057fc:	f044 0418 	orr.w	r4, r4, #24
 8005800:	611c      	str	r4, [r3, #16]
 8005802:	691c      	ldr	r4, [r3, #16]
 8005804:	2901      	cmp	r1, #1
 8005806:	f044 44c0 	orr.w	r4, r4, #1610612736	; 0x60000000
 800580a:	611c      	str	r4, [r3, #16]
 800580c:	bf01      	itttt	eq
 800580e:	615a      	streq	r2, [r3, #20]
 8005810:	f8d0 3b00 	ldreq.w	r3, [r0, #2816]	; 0xb00
 8005814:	f043 2380 	orreq.w	r3, r3, #2147516416	; 0x80008000
 8005818:	f8c0 3b00 	streq.w	r3, [r0, #2816]	; 0xb00
 800581c:	2000      	movs	r0, #0
 800581e:	bd30      	pop	{r4, r5, pc}
 8005820:	4f54300a 	.word	0x4f54300a

08005824 <USBD_CDC_EP0_RxReady>:
 8005824:	b510      	push	{r4, lr}
 8005826:	f8d0 42bc 	ldr.w	r4, [r0, #700]	; 0x2bc
 800582a:	b184      	cbz	r4, 800584e <USBD_CDC_EP0_RxReady+0x2a>
 800582c:	f8d0 32c0 	ldr.w	r3, [r0, #704]	; 0x2c0
 8005830:	b15b      	cbz	r3, 800584a <USBD_CDC_EP0_RxReady+0x26>
 8005832:	f894 0200 	ldrb.w	r0, [r4, #512]	; 0x200
 8005836:	28ff      	cmp	r0, #255	; 0xff
 8005838:	d007      	beq.n	800584a <USBD_CDC_EP0_RxReady+0x26>
 800583a:	689b      	ldr	r3, [r3, #8]
 800583c:	f894 2201 	ldrb.w	r2, [r4, #513]	; 0x201
 8005840:	4621      	mov	r1, r4
 8005842:	4798      	blx	r3
 8005844:	23ff      	movs	r3, #255	; 0xff
 8005846:	f884 3200 	strb.w	r3, [r4, #512]	; 0x200
 800584a:	2000      	movs	r0, #0
 800584c:	e000      	b.n	8005850 <USBD_CDC_EP0_RxReady+0x2c>
 800584e:	2003      	movs	r0, #3
 8005850:	bd10      	pop	{r4, pc}
	...

08005854 <USBD_CDC_GetFSCfgDesc>:
 8005854:	2343      	movs	r3, #67	; 0x43
 8005856:	8003      	strh	r3, [r0, #0]
 8005858:	4800      	ldr	r0, [pc, #0]	; (800585c <USBD_CDC_GetFSCfgDesc+0x8>)
 800585a:	4770      	bx	lr
 800585c:	20000044 	.word	0x20000044

08005860 <USBD_CDC_GetHSCfgDesc>:
 8005860:	2343      	movs	r3, #67	; 0x43
 8005862:	8003      	strh	r3, [r0, #0]
 8005864:	4800      	ldr	r0, [pc, #0]	; (8005868 <USBD_CDC_GetHSCfgDesc+0x8>)
 8005866:	4770      	bx	lr
 8005868:	20000088 	.word	0x20000088

0800586c <USBD_CDC_GetOtherSpeedCfgDesc>:
 800586c:	2343      	movs	r3, #67	; 0x43
 800586e:	8003      	strh	r3, [r0, #0]
 8005870:	4800      	ldr	r0, [pc, #0]	; (8005874 <USBD_CDC_GetOtherSpeedCfgDesc+0x8>)
 8005872:	4770      	bx	lr
 8005874:	200000d8 	.word	0x200000d8

08005878 <USBD_CDC_GetDeviceQualifierDescriptor>:
 8005878:	230a      	movs	r3, #10
 800587a:	8003      	strh	r3, [r0, #0]
 800587c:	4800      	ldr	r0, [pc, #0]	; (8005880 <USBD_CDC_GetDeviceQualifierDescriptor+0x8>)
 800587e:	4770      	bx	lr
 8005880:	200000cc 	.word	0x200000cc

08005884 <USBD_CDC_DataOut>:
 8005884:	b538      	push	{r3, r4, r5, lr}
 8005886:	f8d0 42bc 	ldr.w	r4, [r0, #700]	; 0x2bc
 800588a:	4605      	mov	r5, r0
 800588c:	b16c      	cbz	r4, 80058aa <USBD_CDC_DataOut+0x26>
 800588e:	f000 ffaf 	bl	80067f0 <USBD_LL_GetRxDataSize>
 8005892:	f8d5 32c0 	ldr.w	r3, [r5, #704]	; 0x2c0
 8005896:	f8c4 020c 	str.w	r0, [r4, #524]	; 0x20c
 800589a:	68db      	ldr	r3, [r3, #12]
 800589c:	f8d4 0204 	ldr.w	r0, [r4, #516]	; 0x204
 80058a0:	f504 7103 	add.w	r1, r4, #524	; 0x20c
 80058a4:	4798      	blx	r3
 80058a6:	2000      	movs	r0, #0
 80058a8:	bd38      	pop	{r3, r4, r5, pc}
 80058aa:	2003      	movs	r0, #3
 80058ac:	e7fc      	b.n	80058a8 <USBD_CDC_DataOut+0x24>

080058ae <USBD_CDC_DataIn>:
 80058ae:	b5f8      	push	{r3, r4, r5, r6, r7, lr}
 80058b0:	f8d0 62bc 	ldr.w	r6, [r0, #700]	; 0x2bc
 80058b4:	4605      	mov	r5, r0
 80058b6:	460a      	mov	r2, r1
 80058b8:	b33e      	cbz	r6, 800590a <USBD_CDC_DataIn+0x5c>
 80058ba:	2714      	movs	r7, #20
 80058bc:	fb07 0701 	mla	r7, r7, r1, r0
 80058c0:	69bb      	ldr	r3, [r7, #24]
 80058c2:	b19b      	cbz	r3, 80058ec <USBD_CDC_DataIn+0x3e>
 80058c4:	f8d0 42c4 	ldr.w	r4, [r0, #708]	; 0x2c4
 80058c8:	f04f 0c1c 	mov.w	ip, #28
 80058cc:	fb0c 4401 	mla	r4, ip, r1, r4
 80058d0:	f8d4 c044 	ldr.w	ip, [r4, #68]	; 0x44
 80058d4:	fbb3 f4fc 	udiv	r4, r3, ip
 80058d8:	fb0c 3414 	mls	r4, ip, r4, r3
 80058dc:	b934      	cbnz	r4, 80058ec <USBD_CDC_DataIn+0x3e>
 80058de:	61bc      	str	r4, [r7, #24]
 80058e0:	4623      	mov	r3, r4
 80058e2:	4622      	mov	r2, r4
 80058e4:	f000 ff68 	bl	80067b8 <USBD_LL_Transmit>
 80058e8:	4620      	mov	r0, r4
 80058ea:	e00d      	b.n	8005908 <USBD_CDC_DataIn+0x5a>
 80058ec:	f8d5 32c0 	ldr.w	r3, [r5, #704]	; 0x2c0
 80058f0:	691c      	ldr	r4, [r3, #16]
 80058f2:	2700      	movs	r7, #0
 80058f4:	f8c6 7214 	str.w	r7, [r6, #532]	; 0x214
 80058f8:	2c00      	cmp	r4, #0
 80058fa:	d0f5      	beq.n	80058e8 <USBD_CDC_DataIn+0x3a>
 80058fc:	f8d6 0208 	ldr.w	r0, [r6, #520]	; 0x208
 8005900:	f506 7104 	add.w	r1, r6, #528	; 0x210
 8005904:	47a0      	blx	r4
 8005906:	4638      	mov	r0, r7
 8005908:	bdf8      	pop	{r3, r4, r5, r6, r7, pc}
 800590a:	2003      	movs	r0, #3
 800590c:	e7fc      	b.n	8005908 <USBD_CDC_DataIn+0x5a>
	...

08005910 <USBD_CDC_Setup>:
 8005910:	e92d 43f7 	stmdb	sp!, {r0, r1, r2, r4, r5, r6, r7, r8, r9, lr}
 8005914:	f8d0 72bc 	ldr.w	r7, [r0, #700]	; 0x2bc
 8005918:	f04f 0800 	mov.w	r8, #0
 800591c:	4605      	mov	r5, r0
 800591e:	460e      	mov	r6, r1
 8005920:	f88d 8005 	strb.w	r8, [sp, #5]
 8005924:	f8ad 8006 	strh.w	r8, [sp, #6]
 8005928:	2f00      	cmp	r7, #0
 800592a:	d06a      	beq.n	8005a02 <USBD_CDC_Setup+0xf2>
 800592c:	780a      	ldrb	r2, [r1, #0]
 800592e:	f012 0460 	ands.w	r4, r2, #96	; 0x60
 8005932:	d02b      	beq.n	800598c <USBD_CDC_Setup+0x7c>
 8005934:	2c20      	cmp	r4, #32
 8005936:	d160      	bne.n	80059fa <USBD_CDC_Setup+0xea>
 8005938:	88cc      	ldrh	r4, [r1, #6]
 800593a:	784b      	ldrb	r3, [r1, #1]
 800593c:	b1fc      	cbz	r4, 800597e <USBD_CDC_Setup+0x6e>
 800593e:	0612      	lsls	r2, r2, #24
 8005940:	d514      	bpl.n	800596c <USBD_CDC_Setup+0x5c>
 8005942:	f8d0 22c0 	ldr.w	r2, [r0, #704]	; 0x2c0
 8005946:	4639      	mov	r1, r7
 8005948:	f8d2 9008 	ldr.w	r9, [r2, #8]
 800594c:	4618      	mov	r0, r3
 800594e:	4622      	mov	r2, r4
 8005950:	47c8      	blx	r9
 8005952:	88f2      	ldrh	r2, [r6, #6]
 8005954:	2a07      	cmp	r2, #7
 8005956:	bf28      	it	cs
 8005958:	2207      	movcs	r2, #7
 800595a:	4639      	mov	r1, r7
 800595c:	4628      	mov	r0, r5
 800595e:	f000 fcc9 	bl	80062f4 <USBD_CtlSendData>
 8005962:	4644      	mov	r4, r8
 8005964:	4620      	mov	r0, r4
 8005966:	b003      	add	sp, #12
 8005968:	e8bd 83f0 	ldmia.w	sp!, {r4, r5, r6, r7, r8, r9, pc}
 800596c:	f887 3200 	strb.w	r3, [r7, #512]	; 0x200
 8005970:	f887 4201 	strb.w	r4, [r7, #513]	; 0x201
 8005974:	4622      	mov	r2, r4
 8005976:	4639      	mov	r1, r7
 8005978:	f000 fcd1 	bl	800631e <USBD_CtlPrepareRx>
 800597c:	e7f1      	b.n	8005962 <USBD_CDC_Setup+0x52>
 800597e:	f8d0 22c0 	ldr.w	r2, [r0, #704]	; 0x2c0
 8005982:	4618      	mov	r0, r3
 8005984:	6895      	ldr	r5, [r2, #8]
 8005986:	4622      	mov	r2, r4
 8005988:	47a8      	blx	r5
 800598a:	e7eb      	b.n	8005964 <USBD_CDC_Setup+0x54>
 800598c:	784f      	ldrb	r7, [r1, #1]
 800598e:	2f0b      	cmp	r7, #11
 8005990:	d833      	bhi.n	80059fa <USBD_CDC_Setup+0xea>
 8005992:	a301      	add	r3, pc, #4	; (adr r3, 8005998 <USBD_CDC_Setup+0x88>)
 8005994:	f853 f027 	ldr.w	pc, [r3, r7, lsl #2]
 8005998:	080059c9 	.word	0x080059c9
 800599c:	08005965 	.word	0x08005965
 80059a0:	080059fb 	.word	0x080059fb
 80059a4:	080059fb 	.word	0x080059fb
 80059a8:	080059fb 	.word	0x080059fb
 80059ac:	080059fb 	.word	0x080059fb
 80059b0:	080059fb 	.word	0x080059fb
 80059b4:	080059fb 	.word	0x080059fb
 80059b8:	080059fb 	.word	0x080059fb
 80059bc:	080059fb 	.word	0x080059fb
 80059c0:	080059df 	.word	0x080059df
 80059c4:	080059f3 	.word	0x080059f3
 80059c8:	f890 329c 	ldrb.w	r3, [r0, #668]	; 0x29c
 80059cc:	2b03      	cmp	r3, #3
 80059ce:	d114      	bne.n	80059fa <USBD_CDC_Setup+0xea>
 80059d0:	2202      	movs	r2, #2
 80059d2:	f10d 0106 	add.w	r1, sp, #6
 80059d6:	f000 fc8d 	bl	80062f4 <USBD_CtlSendData>
 80059da:	463c      	mov	r4, r7
 80059dc:	e7c2      	b.n	8005964 <USBD_CDC_Setup+0x54>
 80059de:	f890 329c 	ldrb.w	r3, [r0, #668]	; 0x29c
 80059e2:	2b03      	cmp	r3, #3
 80059e4:	d109      	bne.n	80059fa <USBD_CDC_Setup+0xea>
 80059e6:	2201      	movs	r2, #1
 80059e8:	f10d 0105 	add.w	r1, sp, #5
 80059ec:	f000 fc82 	bl	80062f4 <USBD_CtlSendData>
 80059f0:	e7b8      	b.n	8005964 <USBD_CDC_Setup+0x54>
 80059f2:	f890 329c 	ldrb.w	r3, [r0, #668]	; 0x29c
 80059f6:	2b03      	cmp	r3, #3
 80059f8:	d0b4      	beq.n	8005964 <USBD_CDC_Setup+0x54>
 80059fa:	4631      	mov	r1, r6
 80059fc:	4628      	mov	r0, r5
 80059fe:	f000 fc52 	bl	80062a6 <USBD_CtlError>
 8005a02:	2403      	movs	r4, #3
 8005a04:	e7ae      	b.n	8005964 <USBD_CDC_Setup+0x54>
 8005a06:	bf00      	nop

08005a08 <USBD_CDC_DeInit>:
 8005a08:	b538      	push	{r3, r4, r5, lr}
 8005a0a:	4604      	mov	r4, r0
 8005a0c:	2500      	movs	r5, #0
 8005a0e:	2181      	movs	r1, #129	; 0x81
 8005a10:	f000 fe86 	bl	8006720 <USBD_LL_CloseEP>
 8005a14:	2101      	movs	r1, #1
 8005a16:	8725      	strh	r5, [r4, #56]	; 0x38
 8005a18:	4620      	mov	r0, r4
 8005a1a:	f000 fe81 	bl	8006720 <USBD_LL_CloseEP>
 8005a1e:	f8a4 5178 	strh.w	r5, [r4, #376]	; 0x178
 8005a22:	2182      	movs	r1, #130	; 0x82
 8005a24:	4620      	mov	r0, r4
 8005a26:	f000 fe7b 	bl	8006720 <USBD_LL_CloseEP>
 8005a2a:	f8d4 32bc 	ldr.w	r3, [r4, #700]	; 0x2bc
 8005a2e:	64e5      	str	r5, [r4, #76]	; 0x4c
 8005a30:	b14b      	cbz	r3, 8005a46 <USBD_CDC_DeInit+0x3e>
 8005a32:	f8d4 32c0 	ldr.w	r3, [r4, #704]	; 0x2c0
 8005a36:	685b      	ldr	r3, [r3, #4]
 8005a38:	4798      	blx	r3
 8005a3a:	f8d4 02bc 	ldr.w	r0, [r4, #700]	; 0x2bc
 8005a3e:	f000 ff11 	bl	8006864 <USBD_static_free>
 8005a42:	f8c4 52bc 	str.w	r5, [r4, #700]	; 0x2bc
 8005a46:	2000      	movs	r0, #0
 8005a48:	bd38      	pop	{r3, r4, r5, pc}

08005a4a <USBD_CDC_Init>:
 8005a4a:	b5f8      	push	{r3, r4, r5, r6, r7, lr}
 8005a4c:	4604      	mov	r4, r0
 8005a4e:	f44f 7007 	mov.w	r0, #540	; 0x21c
 8005a52:	f000 ff03 	bl	800685c <USBD_static_malloc>
 8005a56:	4605      	mov	r5, r0
 8005a58:	f8c4 02bc 	str.w	r0, [r4, #700]	; 0x2bc
 8005a5c:	b910      	cbnz	r0, 8005a64 <USBD_CDC_Init+0x1a>
 8005a5e:	2602      	movs	r6, #2
 8005a60:	4630      	mov	r0, r6
 8005a62:	bdf8      	pop	{r3, r4, r5, r6, r7, pc}
 8005a64:	7c23      	ldrb	r3, [r4, #16]
 8005a66:	bb8b      	cbnz	r3, 8005acc <USBD_CDC_Init+0x82>
 8005a68:	f44f 7300 	mov.w	r3, #512	; 0x200
 8005a6c:	2202      	movs	r2, #2
 8005a6e:	2181      	movs	r1, #129	; 0x81
 8005a70:	4620      	mov	r0, r4
 8005a72:	2601      	movs	r6, #1
 8005a74:	f000 fe44 	bl	8006700 <USBD_LL_OpenEP>
 8005a78:	8726      	strh	r6, [r4, #56]	; 0x38
 8005a7a:	f44f 7300 	mov.w	r3, #512	; 0x200
 8005a7e:	4631      	mov	r1, r6
 8005a80:	2202      	movs	r2, #2
 8005a82:	4620      	mov	r0, r4
 8005a84:	f000 fe3c 	bl	8006700 <USBD_LL_OpenEP>
 8005a88:	2310      	movs	r3, #16
 8005a8a:	f8a4 6178 	strh.w	r6, [r4, #376]	; 0x178
 8005a8e:	f8a4 304e 	strh.w	r3, [r4, #78]	; 0x4e
 8005a92:	2203      	movs	r2, #3
 8005a94:	2308      	movs	r3, #8
 8005a96:	2182      	movs	r1, #130	; 0x82
 8005a98:	4620      	mov	r0, r4
 8005a9a:	f000 fe31 	bl	8006700 <USBD_LL_OpenEP>
 8005a9e:	f8d4 32c0 	ldr.w	r3, [r4, #704]	; 0x2c0
 8005aa2:	2101      	movs	r1, #1
 8005aa4:	f8a4 104c 	strh.w	r1, [r4, #76]	; 0x4c
 8005aa8:	2700      	movs	r7, #0
 8005aaa:	681b      	ldr	r3, [r3, #0]
 8005aac:	4798      	blx	r3
 8005aae:	f8c5 7214 	str.w	r7, [r5, #532]	; 0x214
 8005ab2:	f8c5 7218 	str.w	r7, [r5, #536]	; 0x218
 8005ab6:	7c26      	ldrb	r6, [r4, #16]
 8005ab8:	2101      	movs	r1, #1
 8005aba:	b98e      	cbnz	r6, 8005ae0 <USBD_CDC_Init+0x96>
 8005abc:	f8d5 2204 	ldr.w	r2, [r5, #516]	; 0x204
 8005ac0:	f44f 7300 	mov.w	r3, #512	; 0x200
 8005ac4:	4620      	mov	r0, r4
 8005ac6:	f000 fe85 	bl	80067d4 <USBD_LL_PrepareReceive>
 8005aca:	e7c9      	b.n	8005a60 <USBD_CDC_Init+0x16>
 8005acc:	2340      	movs	r3, #64	; 0x40
 8005ace:	2202      	movs	r2, #2
 8005ad0:	2181      	movs	r1, #129	; 0x81
 8005ad2:	4620      	mov	r0, r4
 8005ad4:	2601      	movs	r6, #1
 8005ad6:	f000 fe13 	bl	8006700 <USBD_LL_OpenEP>
 8005ada:	8726      	strh	r6, [r4, #56]	; 0x38
 8005adc:	2340      	movs	r3, #64	; 0x40
 8005ade:	e7ce      	b.n	8005a7e <USBD_CDC_Init+0x34>
 8005ae0:	f8d5 2204 	ldr.w	r2, [r5, #516]	; 0x204
 8005ae4:	2340      	movs	r3, #64	; 0x40
 8005ae6:	4620      	mov	r0, r4
 8005ae8:	f000 fe74 	bl	80067d4 <USBD_LL_PrepareReceive>
 8005aec:	463e      	mov	r6, r7
 8005aee:	e7b7      	b.n	8005a60 <USBD_CDC_Init+0x16>

08005af0 <USBD_CDC_RegisterInterface>:
 8005af0:	b119      	cbz	r1, 8005afa <USBD_CDC_RegisterInterface+0xa>
 8005af2:	f8c0 12c0 	str.w	r1, [r0, #704]	; 0x2c0
 8005af6:	2000      	movs	r0, #0
 8005af8:	4770      	bx	lr
 8005afa:	2003      	movs	r0, #3
 8005afc:	4770      	bx	lr

08005afe <USBD_CDC_SetTxBuffer>:
 8005afe:	f8d0 32bc 	ldr.w	r3, [r0, #700]	; 0x2bc
 8005b02:	b12b      	cbz	r3, 8005b10 <USBD_CDC_SetTxBuffer+0x12>
 8005b04:	f8c3 1208 	str.w	r1, [r3, #520]	; 0x208
 8005b08:	f8c3 2210 	str.w	r2, [r3, #528]	; 0x210
 8005b0c:	2000      	movs	r0, #0
 8005b0e:	4770      	bx	lr
 8005b10:	2003      	movs	r0, #3
 8005b12:	4770      	bx	lr

08005b14 <USBD_CDC_SetRxBuffer>:
 8005b14:	f8d0 32bc 	ldr.w	r3, [r0, #700]	; 0x2bc
 8005b18:	b11b      	cbz	r3, 8005b22 <USBD_CDC_SetRxBuffer+0xe>
 8005b1a:	f8c3 1204 	str.w	r1, [r3, #516]	; 0x204
 8005b1e:	2000      	movs	r0, #0
 8005b20:	4770      	bx	lr
 8005b22:	2003      	movs	r0, #3
 8005b24:	4770      	bx	lr

08005b26 <USBD_CDC_TransmitPacket>:
 8005b26:	f8d0 22bc 	ldr.w	r2, [r0, #700]	; 0x2bc
 8005b2a:	b510      	push	{r4, lr}
 8005b2c:	b17a      	cbz	r2, 8005b4e <USBD_CDC_TransmitPacket+0x28>
 8005b2e:	f8d2 4214 	ldr.w	r4, [r2, #532]	; 0x214
 8005b32:	2301      	movs	r3, #1
 8005b34:	b96c      	cbnz	r4, 8005b52 <USBD_CDC_TransmitPacket+0x2c>
 8005b36:	f8c2 3214 	str.w	r3, [r2, #532]	; 0x214
 8005b3a:	f8d2 3210 	ldr.w	r3, [r2, #528]	; 0x210
 8005b3e:	62c3      	str	r3, [r0, #44]	; 0x2c
 8005b40:	f8d2 2208 	ldr.w	r2, [r2, #520]	; 0x208
 8005b44:	2181      	movs	r1, #129	; 0x81
 8005b46:	f000 fe37 	bl	80067b8 <USBD_LL_Transmit>
 8005b4a:	4620      	mov	r0, r4
 8005b4c:	bd10      	pop	{r4, pc}
 8005b4e:	2003      	movs	r0, #3
 8005b50:	e7fc      	b.n	8005b4c <USBD_CDC_TransmitPacket+0x26>
 8005b52:	4618      	mov	r0, r3
 8005b54:	e7fa      	b.n	8005b4c <USBD_CDC_TransmitPacket+0x26>

08005b56 <USBD_CDC_ReceivePacket>:
 8005b56:	f8d0 22bc 	ldr.w	r2, [r0, #700]	; 0x2bc
 8005b5a:	b510      	push	{r4, lr}
 8005b5c:	b182      	cbz	r2, 8005b80 <USBD_CDC_ReceivePacket+0x2a>
 8005b5e:	7c04      	ldrb	r4, [r0, #16]
 8005b60:	f8d2 2204 	ldr.w	r2, [r2, #516]	; 0x204
 8005b64:	b934      	cbnz	r4, 8005b74 <USBD_CDC_ReceivePacket+0x1e>
 8005b66:	f44f 7300 	mov.w	r3, #512	; 0x200
 8005b6a:	2101      	movs	r1, #1
 8005b6c:	f000 fe32 	bl	80067d4 <USBD_LL_PrepareReceive>
 8005b70:	4620      	mov	r0, r4
 8005b72:	bd10      	pop	{r4, pc}
 8005b74:	2340      	movs	r3, #64	; 0x40
 8005b76:	2101      	movs	r1, #1
 8005b78:	f000 fe2c 	bl	80067d4 <USBD_LL_PrepareReceive>
 8005b7c:	2400      	movs	r4, #0
 8005b7e:	e7f7      	b.n	8005b70 <USBD_CDC_ReceivePacket+0x1a>
 8005b80:	2403      	movs	r4, #3
 8005b82:	e7f5      	b.n	8005b70 <USBD_CDC_ReceivePacket+0x1a>

08005b84 <USBD_Init>:
 8005b84:	b178      	cbz	r0, 8005ba6 <USBD_Init+0x22>
 8005b86:	2300      	movs	r3, #0
 8005b88:	f8c0 32b8 	str.w	r3, [r0, #696]	; 0x2b8
 8005b8c:	f8c0 32c0 	str.w	r3, [r0, #704]	; 0x2c0
 8005b90:	f8c0 32cc 	str.w	r3, [r0, #716]	; 0x2cc
 8005b94:	b109      	cbz	r1, 8005b9a <USBD_Init+0x16>
 8005b96:	f8c0 12b4 	str.w	r1, [r0, #692]	; 0x2b4
 8005b9a:	2301      	movs	r3, #1
 8005b9c:	f880 329c 	strb.w	r3, [r0, #668]	; 0x29c
 8005ba0:	7002      	strb	r2, [r0, #0]
 8005ba2:	f000 bd71 	b.w	8006688 <USBD_LL_Init>
 8005ba6:	2003      	movs	r0, #3
 8005ba8:	4770      	bx	lr

08005baa <USBD_RegisterClass>:
 8005baa:	b537      	push	{r0, r1, r2, r4, r5, lr}
 8005bac:	2500      	movs	r5, #0
 8005bae:	4604      	mov	r4, r0
 8005bb0:	f8ad 5006 	strh.w	r5, [sp, #6]
 8005bb4:	b159      	cbz	r1, 8005bce <USBD_RegisterClass+0x24>
 8005bb6:	6acb      	ldr	r3, [r1, #44]	; 0x2c
 8005bb8:	f8c0 12b8 	str.w	r1, [r0, #696]	; 0x2b8
 8005bbc:	b14b      	cbz	r3, 8005bd2 <USBD_RegisterClass+0x28>
 8005bbe:	f10d 0006 	add.w	r0, sp, #6
 8005bc2:	4798      	blx	r3
 8005bc4:	f8c4 02cc 	str.w	r0, [r4, #716]	; 0x2cc
 8005bc8:	4628      	mov	r0, r5
 8005bca:	b003      	add	sp, #12
 8005bcc:	bd30      	pop	{r4, r5, pc}
 8005bce:	2003      	movs	r0, #3
 8005bd0:	e7fb      	b.n	8005bca <USBD_RegisterClass+0x20>
 8005bd2:	4618      	mov	r0, r3
 8005bd4:	e7f9      	b.n	8005bca <USBD_RegisterClass+0x20>

08005bd6 <USBD_Start>:
 8005bd6:	f000 bd85 	b.w	80066e4 <USBD_LL_Start>

08005bda <USBD_SetClassConfig>:
 8005bda:	f8d0 32b8 	ldr.w	r3, [r0, #696]	; 0x2b8
 8005bde:	b10b      	cbz	r3, 8005be4 <USBD_SetClassConfig+0xa>
 8005be0:	681b      	ldr	r3, [r3, #0]
 8005be2:	4718      	bx	r3
 8005be4:	2003      	movs	r0, #3
 8005be6:	4770      	bx	lr

08005be8 <USBD_ClrClassConfig>:
 8005be8:	b508      	push	{r3, lr}
 8005bea:	f8d0 32b8 	ldr.w	r3, [r0, #696]	; 0x2b8
 8005bee:	b10b      	cbz	r3, 8005bf4 <USBD_ClrClassConfig+0xc>
 8005bf0:	685b      	ldr	r3, [r3, #4]
 8005bf2:	4798      	blx	r3
 8005bf4:	2000      	movs	r0, #0
 8005bf6:	bd08      	pop	{r3, pc}

08005bf8 <USBD_LL_SetupStage>:
 8005bf8:	b538      	push	{r3, r4, r5, lr}
 8005bfa:	4604      	mov	r4, r0
 8005bfc:	f200 25aa 	addw	r5, r0, #682	; 0x2aa
 8005c00:	4628      	mov	r0, r5
 8005c02:	f000 fb3c 	bl	800627e <USBD_ParseSetupRequest>
 8005c06:	2301      	movs	r3, #1
 8005c08:	f894 12aa 	ldrb.w	r1, [r4, #682]	; 0x2aa
 8005c0c:	f8c4 3294 	str.w	r3, [r4, #660]	; 0x294
 8005c10:	f8b4 32b0 	ldrh.w	r3, [r4, #688]	; 0x2b0
 8005c14:	f8c4 3298 	str.w	r3, [r4, #664]	; 0x298
 8005c18:	f001 031f 	and.w	r3, r1, #31
 8005c1c:	2b01      	cmp	r3, #1
 8005c1e:	d008      	beq.n	8005c32 <USBD_LL_SetupStage+0x3a>
 8005c20:	2b02      	cmp	r3, #2
 8005c22:	d00c      	beq.n	8005c3e <USBD_LL_SetupStage+0x46>
 8005c24:	b98b      	cbnz	r3, 8005c4a <USBD_LL_SetupStage+0x52>
 8005c26:	4629      	mov	r1, r5
 8005c28:	4620      	mov	r0, r4
 8005c2a:	e8bd 4038 	ldmia.w	sp!, {r3, r4, r5, lr}
 8005c2e:	f000 b925 	b.w	8005e7c <USBD_StdDevReq>
 8005c32:	4629      	mov	r1, r5
 8005c34:	4620      	mov	r0, r4
 8005c36:	e8bd 4038 	ldmia.w	sp!, {r3, r4, r5, lr}
 8005c3a:	f000 ba6b 	b.w	8006114 <USBD_StdItfReq>
 8005c3e:	4629      	mov	r1, r5
 8005c40:	4620      	mov	r0, r4
 8005c42:	e8bd 4038 	ldmia.w	sp!, {r3, r4, r5, lr}
 8005c46:	f000 ba8b 	b.w	8006160 <USBD_StdEPReq>
 8005c4a:	4620      	mov	r0, r4
 8005c4c:	f001 0180 	and.w	r1, r1, #128	; 0x80
 8005c50:	e8bd 4038 	ldmia.w	sp!, {r3, r4, r5, lr}
 8005c54:	f000 bd72 	b.w	800673c <USBD_LL_StallEP>

08005c58 <USBD_LL_DataOutStage>:
 8005c58:	b570      	push	{r4, r5, r6, lr}
 8005c5a:	4604      	mov	r4, r0
 8005c5c:	4615      	mov	r5, r2
 8005c5e:	b9f9      	cbnz	r1, 8005ca0 <USBD_LL_DataOutStage+0x48>
 8005c60:	f8d0 3294 	ldr.w	r3, [r0, #660]	; 0x294
 8005c64:	2b03      	cmp	r3, #3
 8005c66:	d10c      	bne.n	8005c82 <USBD_LL_DataOutStage+0x2a>
 8005c68:	e9d0 3257 	ldrd	r3, r2, [r0, #348]	; 0x15c
 8005c6c:	4293      	cmp	r3, r2
 8005c6e:	d90a      	bls.n	8005c86 <USBD_LL_DataOutStage+0x2e>
 8005c70:	1a9b      	subs	r3, r3, r2
 8005c72:	429a      	cmp	r2, r3
 8005c74:	f8c0 315c 	str.w	r3, [r0, #348]	; 0x15c
 8005c78:	bf28      	it	cs
 8005c7a:	461a      	movcs	r2, r3
 8005c7c:	4629      	mov	r1, r5
 8005c7e:	f000 fb5b 	bl	8006338 <USBD_CtlContinueRx>
 8005c82:	2000      	movs	r0, #0
 8005c84:	bd70      	pop	{r4, r5, r6, pc}
 8005c86:	f890 329c 	ldrb.w	r3, [r0, #668]	; 0x29c
 8005c8a:	2b03      	cmp	r3, #3
 8005c8c:	d104      	bne.n	8005c98 <USBD_LL_DataOutStage+0x40>
 8005c8e:	f8d0 32b8 	ldr.w	r3, [r0, #696]	; 0x2b8
 8005c92:	691b      	ldr	r3, [r3, #16]
 8005c94:	b103      	cbz	r3, 8005c98 <USBD_LL_DataOutStage+0x40>
 8005c96:	4798      	blx	r3
 8005c98:	4620      	mov	r0, r4
 8005c9a:	f000 fb55 	bl	8006348 <USBD_CtlSendStatus>
 8005c9e:	e7f0      	b.n	8005c82 <USBD_LL_DataOutStage+0x2a>
 8005ca0:	f890 329c 	ldrb.w	r3, [r0, #668]	; 0x29c
 8005ca4:	2b03      	cmp	r3, #3
 8005ca6:	d1ec      	bne.n	8005c82 <USBD_LL_DataOutStage+0x2a>
 8005ca8:	f8d0 32b8 	ldr.w	r3, [r0, #696]	; 0x2b8
 8005cac:	699b      	ldr	r3, [r3, #24]
 8005cae:	2b00      	cmp	r3, #0
 8005cb0:	d0e7      	beq.n	8005c82 <USBD_LL_DataOutStage+0x2a>
 8005cb2:	e8bd 4070 	ldmia.w	sp!, {r4, r5, r6, lr}
 8005cb6:	4718      	bx	r3

08005cb8 <USBD_LL_DataInStage>:
 8005cb8:	b573      	push	{r0, r1, r4, r5, r6, lr}
 8005cba:	4604      	mov	r4, r0
 8005cbc:	4616      	mov	r6, r2
 8005cbe:	2900      	cmp	r1, #0
 8005cc0:	d13f      	bne.n	8005d42 <USBD_LL_DataInStage+0x8a>
 8005cc2:	f8d0 2294 	ldr.w	r2, [r0, #660]	; 0x294
 8005cc6:	2a02      	cmp	r2, #2
 8005cc8:	d10f      	bne.n	8005cea <USBD_LL_DataInStage+0x32>
 8005cca:	e9d0 5207 	ldrd	r5, r2, [r0, #28]
 8005cce:	4295      	cmp	r5, r2
 8005cd0:	d915      	bls.n	8005cfe <USBD_LL_DataInStage+0x46>
 8005cd2:	1aaa      	subs	r2, r5, r2
 8005cd4:	9101      	str	r1, [sp, #4]
 8005cd6:	61c2      	str	r2, [r0, #28]
 8005cd8:	4631      	mov	r1, r6
 8005cda:	f000 fb18 	bl	800630e <USBD_CtlContinueSendData>
 8005cde:	9b01      	ldr	r3, [sp, #4]
 8005ce0:	461a      	mov	r2, r3
 8005ce2:	4619      	mov	r1, r3
 8005ce4:	4620      	mov	r0, r4
 8005ce6:	f000 fd75 	bl	80067d4 <USBD_LL_PrepareReceive>
 8005cea:	f894 32a0 	ldrb.w	r3, [r4, #672]	; 0x2a0
 8005cee:	2b01      	cmp	r3, #1
 8005cf0:	d102      	bne.n	8005cf8 <USBD_LL_DataInStage+0x40>
 8005cf2:	2300      	movs	r3, #0
 8005cf4:	f884 32a0 	strb.w	r3, [r4, #672]	; 0x2a0
 8005cf8:	2000      	movs	r0, #0
 8005cfa:	b002      	add	sp, #8
 8005cfc:	bd70      	pop	{r4, r5, r6, pc}
 8005cfe:	d10e      	bne.n	8005d1e <USBD_LL_DataInStage+0x66>
 8005d00:	6982      	ldr	r2, [r0, #24]
 8005d02:	4295      	cmp	r5, r2
 8005d04:	d80b      	bhi.n	8005d1e <USBD_LL_DataInStage+0x66>
 8005d06:	f8d0 5298 	ldr.w	r5, [r0, #664]	; 0x298
 8005d0a:	42aa      	cmp	r2, r5
 8005d0c:	d207      	bcs.n	8005d1e <USBD_LL_DataInStage+0x66>
 8005d0e:	460a      	mov	r2, r1
 8005d10:	9101      	str	r1, [sp, #4]
 8005d12:	f000 fafc 	bl	800630e <USBD_CtlContinueSendData>
 8005d16:	9b01      	ldr	r3, [sp, #4]
 8005d18:	f8c4 3298 	str.w	r3, [r4, #664]	; 0x298
 8005d1c:	e7e0      	b.n	8005ce0 <USBD_LL_DataInStage+0x28>
 8005d1e:	f894 329c 	ldrb.w	r3, [r4, #668]	; 0x29c
 8005d22:	2b03      	cmp	r3, #3
 8005d24:	d105      	bne.n	8005d32 <USBD_LL_DataInStage+0x7a>
 8005d26:	f8d4 32b8 	ldr.w	r3, [r4, #696]	; 0x2b8
 8005d2a:	68db      	ldr	r3, [r3, #12]
 8005d2c:	b10b      	cbz	r3, 8005d32 <USBD_LL_DataInStage+0x7a>
 8005d2e:	4620      	mov	r0, r4
 8005d30:	4798      	blx	r3
 8005d32:	2180      	movs	r1, #128	; 0x80
 8005d34:	4620      	mov	r0, r4
 8005d36:	f000 fd01 	bl	800673c <USBD_LL_StallEP>
 8005d3a:	4620      	mov	r0, r4
 8005d3c:	f000 fb0f 	bl	800635e <USBD_CtlReceiveStatus>
 8005d40:	e7d3      	b.n	8005cea <USBD_LL_DataInStage+0x32>
 8005d42:	f890 329c 	ldrb.w	r3, [r0, #668]	; 0x29c
 8005d46:	2b03      	cmp	r3, #3
 8005d48:	d1d6      	bne.n	8005cf8 <USBD_LL_DataInStage+0x40>
 8005d4a:	f8d0 32b8 	ldr.w	r3, [r0, #696]	; 0x2b8
 8005d4e:	695b      	ldr	r3, [r3, #20]
 8005d50:	2b00      	cmp	r3, #0
 8005d52:	d0d1      	beq.n	8005cf8 <USBD_LL_DataInStage+0x40>
 8005d54:	b002      	add	sp, #8
 8005d56:	e8bd 4070 	ldmia.w	sp!, {r4, r5, r6, lr}
 8005d5a:	4718      	bx	r3

08005d5c <USBD_LL_Reset>:
 8005d5c:	2301      	movs	r3, #1
 8005d5e:	b570      	push	{r4, r5, r6, lr}
 8005d60:	f880 329c 	strb.w	r3, [r0, #668]	; 0x29c
 8005d64:	f8d0 32b8 	ldr.w	r3, [r0, #696]	; 0x2b8
 8005d68:	2100      	movs	r1, #0
 8005d6a:	4604      	mov	r4, r0
 8005d6c:	f8c0 1294 	str.w	r1, [r0, #660]	; 0x294
 8005d70:	6041      	str	r1, [r0, #4]
 8005d72:	f8c0 12a4 	str.w	r1, [r0, #676]	; 0x2a4
 8005d76:	b1db      	cbz	r3, 8005db0 <USBD_LL_Reset+0x54>
 8005d78:	f8d0 22bc 	ldr.w	r2, [r0, #700]	; 0x2bc
 8005d7c:	b112      	cbz	r2, 8005d84 <USBD_LL_Reset+0x28>
 8005d7e:	685b      	ldr	r3, [r3, #4]
 8005d80:	b103      	cbz	r3, 8005d84 <USBD_LL_Reset+0x28>
 8005d82:	4798      	blx	r3
 8005d84:	2200      	movs	r2, #0
 8005d86:	4611      	mov	r1, r2
 8005d88:	2540      	movs	r5, #64	; 0x40
 8005d8a:	2340      	movs	r3, #64	; 0x40
 8005d8c:	2601      	movs	r6, #1
 8005d8e:	4620      	mov	r0, r4
 8005d90:	f000 fcb6 	bl	8006700 <USBD_LL_OpenEP>
 8005d94:	f8a4 6164 	strh.w	r6, [r4, #356]	; 0x164
 8005d98:	f8c4 5160 	str.w	r5, [r4, #352]	; 0x160
 8005d9c:	462b      	mov	r3, r5
 8005d9e:	2200      	movs	r2, #0
 8005da0:	2180      	movs	r1, #128	; 0x80
 8005da2:	4620      	mov	r0, r4
 8005da4:	f000 fcac 	bl	8006700 <USBD_LL_OpenEP>
 8005da8:	84a6      	strh	r6, [r4, #36]	; 0x24
 8005daa:	6225      	str	r5, [r4, #32]
 8005dac:	2000      	movs	r0, #0
 8005dae:	bd70      	pop	{r4, r5, r6, pc}
 8005db0:	2003      	movs	r0, #3
 8005db2:	e7fc      	b.n	8005dae <USBD_LL_Reset+0x52>

08005db4 <USBD_LL_SetSpeed>:
 8005db4:	7401      	strb	r1, [r0, #16]
 8005db6:	2000      	movs	r0, #0
 8005db8:	4770      	bx	lr

08005dba <USBD_LL_Suspend>:
 8005dba:	f890 329c 	ldrb.w	r3, [r0, #668]	; 0x29c
 8005dbe:	b2db      	uxtb	r3, r3
 8005dc0:	f880 329d 	strb.w	r3, [r0, #669]	; 0x29d
 8005dc4:	2304      	movs	r3, #4
 8005dc6:	f880 329c 	strb.w	r3, [r0, #668]	; 0x29c
 8005dca:	2000      	movs	r0, #0
 8005dcc:	4770      	bx	lr

08005dce <USBD_LL_Resume>:
 8005dce:	f890 329c 	ldrb.w	r3, [r0, #668]	; 0x29c
 8005dd2:	2b04      	cmp	r3, #4
 8005dd4:	bf02      	ittt	eq
 8005dd6:	f890 329d 	ldrbeq.w	r3, [r0, #669]	; 0x29d
 8005dda:	b2db      	uxtbeq	r3, r3
 8005ddc:	f880 329c 	strbeq.w	r3, [r0, #668]	; 0x29c
 8005de0:	2000      	movs	r0, #0
 8005de2:	4770      	bx	lr

08005de4 <USBD_LL_SOF>:
 8005de4:	f8d0 22b8 	ldr.w	r2, [r0, #696]	; 0x2b8
 8005de8:	b508      	push	{r3, lr}
 8005dea:	b142      	cbz	r2, 8005dfe <USBD_LL_SOF+0x1a>
 8005dec:	f890 329c 	ldrb.w	r3, [r0, #668]	; 0x29c
 8005df0:	2b03      	cmp	r3, #3
 8005df2:	d102      	bne.n	8005dfa <USBD_LL_SOF+0x16>
 8005df4:	69d3      	ldr	r3, [r2, #28]
 8005df6:	b123      	cbz	r3, 8005e02 <USBD_LL_SOF+0x1e>
 8005df8:	4798      	blx	r3
 8005dfa:	2000      	movs	r0, #0
 8005dfc:	e000      	b.n	8005e00 <USBD_LL_SOF+0x1c>
 8005dfe:	2003      	movs	r0, #3
 8005e00:	bd08      	pop	{r3, pc}
 8005e02:	4618      	mov	r0, r3
 8005e04:	e7fc      	b.n	8005e00 <USBD_LL_SOF+0x1c>

08005e06 <USBD_LL_IsoINIncomplete>:
 8005e06:	f8d0 22b8 	ldr.w	r2, [r0, #696]	; 0x2b8
 8005e0a:	b508      	push	{r3, lr}
 8005e0c:	b142      	cbz	r2, 8005e20 <USBD_LL_IsoINIncomplete+0x1a>
 8005e0e:	f890 329c 	ldrb.w	r3, [r0, #668]	; 0x29c
 8005e12:	2b03      	cmp	r3, #3
 8005e14:	d102      	bne.n	8005e1c <USBD_LL_IsoINIncomplete+0x16>
 8005e16:	6a13      	ldr	r3, [r2, #32]
 8005e18:	b123      	cbz	r3, 8005e24 <USBD_LL_IsoINIncomplete+0x1e>
 8005e1a:	4798      	blx	r3
 8005e1c:	2000      	movs	r0, #0
 8005e1e:	e000      	b.n	8005e22 <USBD_LL_IsoINIncomplete+0x1c>
 8005e20:	2003      	movs	r0, #3
 8005e22:	bd08      	pop	{r3, pc}
 8005e24:	4618      	mov	r0, r3
 8005e26:	e7fc      	b.n	8005e22 <USBD_LL_IsoINIncomplete+0x1c>

08005e28 <USBD_LL_IsoOUTIncomplete>:
 8005e28:	f8d0 22b8 	ldr.w	r2, [r0, #696]	; 0x2b8
 8005e2c:	b508      	push	{r3, lr}
 8005e2e:	b142      	cbz	r2, 8005e42 <USBD_LL_IsoOUTIncomplete+0x1a>
 8005e30:	f890 329c 	ldrb.w	r3, [r0, #668]	; 0x29c
 8005e34:	2b03      	cmp	r3, #3
 8005e36:	d102      	bne.n	8005e3e <USBD_LL_IsoOUTIncomplete+0x16>
 8005e38:	6a53      	ldr	r3, [r2, #36]	; 0x24
 8005e3a:	b123      	cbz	r3, 8005e46 <USBD_LL_IsoOUTIncomplete+0x1e>
 8005e3c:	4798      	blx	r3
 8005e3e:	2000      	movs	r0, #0
 8005e40:	e000      	b.n	8005e44 <USBD_LL_IsoOUTIncomplete+0x1c>
 8005e42:	2003      	movs	r0, #3
 8005e44:	bd08      	pop	{r3, pc}
 8005e46:	4618      	mov	r0, r3
 8005e48:	e7fc      	b.n	8005e44 <USBD_LL_IsoOUTIncomplete+0x1c>

08005e4a <USBD_LL_DevConnected>:
 8005e4a:	2000      	movs	r0, #0
 8005e4c:	4770      	bx	lr

08005e4e <USBD_LL_DevDisconnected>:
 8005e4e:	2201      	movs	r2, #1
 8005e50:	b508      	push	{r3, lr}
 8005e52:	f880 229c 	strb.w	r2, [r0, #668]	; 0x29c
 8005e56:	f8d0 22b8 	ldr.w	r2, [r0, #696]	; 0x2b8
 8005e5a:	b112      	cbz	r2, 8005e62 <USBD_LL_DevDisconnected+0x14>
 8005e5c:	6852      	ldr	r2, [r2, #4]
 8005e5e:	7901      	ldrb	r1, [r0, #4]
 8005e60:	4790      	blx	r2
 8005e62:	2000      	movs	r0, #0
 8005e64:	bd08      	pop	{r3, pc}

08005e66 <USBD_CtlError.constprop.0>:
 8005e66:	b510      	push	{r4, lr}
 8005e68:	2180      	movs	r1, #128	; 0x80
 8005e6a:	4604      	mov	r4, r0
 8005e6c:	f000 fc66 	bl	800673c <USBD_LL_StallEP>
 8005e70:	4620      	mov	r0, r4
 8005e72:	2100      	movs	r1, #0
 8005e74:	e8bd 4010 	ldmia.w	sp!, {r4, lr}
 8005e78:	f000 bc60 	b.w	800673c <USBD_LL_StallEP>

08005e7c <USBD_StdDevReq>:
 8005e7c:	b5f7      	push	{r0, r1, r2, r4, r5, r6, r7, lr}
 8005e7e:	780d      	ldrb	r5, [r1, #0]
 8005e80:	f005 0560 	and.w	r5, r5, #96	; 0x60
 8005e84:	2d20      	cmp	r5, #32
 8005e86:	4604      	mov	r4, r0
 8005e88:	460e      	mov	r6, r1
 8005e8a:	d014      	beq.n	8005eb6 <USBD_StdDevReq+0x3a>
 8005e8c:	2d40      	cmp	r5, #64	; 0x40
 8005e8e:	d012      	beq.n	8005eb6 <USBD_StdDevReq+0x3a>
 8005e90:	2d00      	cmp	r5, #0
 8005e92:	f040 8108 	bne.w	80060a6 <USBD_StdDevReq+0x22a>
 8005e96:	784f      	ldrb	r7, [r1, #1]
 8005e98:	2f09      	cmp	r7, #9
 8005e9a:	f200 8104 	bhi.w	80060a6 <USBD_StdDevReq+0x22a>
 8005e9e:	e8df f017 	tbh	[pc, r7, lsl #1]
 8005ea2:	0109      	.short	0x0109
 8005ea4:	0102012b 	.word	0x0102012b
 8005ea8:	01020121 	.word	0x01020121
 8005eac:	00140089 	.word	0x00140089
 8005eb0:	00f10102 	.word	0x00f10102
 8005eb4:	00a5      	.short	0x00a5
 8005eb6:	f8d4 32b8 	ldr.w	r3, [r4, #696]	; 0x2b8
 8005eba:	4631      	mov	r1, r6
 8005ebc:	689b      	ldr	r3, [r3, #8]
 8005ebe:	4620      	mov	r0, r4
 8005ec0:	4798      	blx	r3
 8005ec2:	4605      	mov	r5, r0
 8005ec4:	4628      	mov	r0, r5
 8005ec6:	b003      	add	sp, #12
 8005ec8:	bdf0      	pop	{r4, r5, r6, r7, pc}
 8005eca:	2300      	movs	r3, #0
 8005ecc:	f8ad 3006 	strh.w	r3, [sp, #6]
 8005ed0:	884b      	ldrh	r3, [r1, #2]
 8005ed2:	0a1a      	lsrs	r2, r3, #8
 8005ed4:	3a01      	subs	r2, #1
 8005ed6:	2a0e      	cmp	r2, #14
 8005ed8:	d80d      	bhi.n	8005ef6 <USBD_StdDevReq+0x7a>
 8005eda:	e8df f002 	tbb	[pc, r2]
 8005ede:	2910      	.short	0x2910
 8005ee0:	560c0c36 	.word	0x560c0c36
 8005ee4:	0c0c0c60 	.word	0x0c0c0c60
 8005ee8:	0c0c0c0c 	.word	0x0c0c0c0c
 8005eec:	08          	.byte	0x08
 8005eed:	00          	.byte	0x00
 8005eee:	f8d0 32b4 	ldr.w	r3, [r0, #692]	; 0x2b4
 8005ef2:	69db      	ldr	r3, [r3, #28]
 8005ef4:	b933      	cbnz	r3, 8005f04 <USBD_StdDevReq+0x88>
 8005ef6:	4620      	mov	r0, r4
 8005ef8:	f7ff ffb5 	bl	8005e66 <USBD_CtlError.constprop.0>
 8005efc:	e7e2      	b.n	8005ec4 <USBD_StdDevReq+0x48>
 8005efe:	f8d0 32b4 	ldr.w	r3, [r0, #692]	; 0x2b4
 8005f02:	681b      	ldr	r3, [r3, #0]
 8005f04:	7c20      	ldrb	r0, [r4, #16]
 8005f06:	f10d 0106 	add.w	r1, sp, #6
 8005f0a:	4798      	blx	r3
 8005f0c:	88f2      	ldrh	r2, [r6, #6]
 8005f0e:	2a00      	cmp	r2, #0
 8005f10:	f000 80ee 	beq.w	80060f0 <USBD_StdDevReq+0x274>
 8005f14:	f8bd 3006 	ldrh.w	r3, [sp, #6]
 8005f18:	2b00      	cmp	r3, #0
 8005f1a:	d0ec      	beq.n	8005ef6 <USBD_StdDevReq+0x7a>
 8005f1c:	429a      	cmp	r2, r3
 8005f1e:	bf28      	it	cs
 8005f20:	461a      	movcs	r2, r3
 8005f22:	f8ad 2006 	strh.w	r2, [sp, #6]
 8005f26:	4601      	mov	r1, r0
 8005f28:	4620      	mov	r0, r4
 8005f2a:	f000 f9e3 	bl	80062f4 <USBD_CtlSendData>
 8005f2e:	e7c9      	b.n	8005ec4 <USBD_StdDevReq+0x48>
 8005f30:	7c02      	ldrb	r2, [r0, #16]
 8005f32:	f8d0 32b8 	ldr.w	r3, [r0, #696]	; 0x2b8
 8005f36:	b932      	cbnz	r2, 8005f46 <USBD_StdDevReq+0xca>
 8005f38:	6a9b      	ldr	r3, [r3, #40]	; 0x28
 8005f3a:	f10d 0006 	add.w	r0, sp, #6
 8005f3e:	4798      	blx	r3
 8005f40:	2302      	movs	r3, #2
 8005f42:	7043      	strb	r3, [r0, #1]
 8005f44:	e7e2      	b.n	8005f0c <USBD_StdDevReq+0x90>
 8005f46:	6adb      	ldr	r3, [r3, #44]	; 0x2c
 8005f48:	e7f7      	b.n	8005f3a <USBD_StdDevReq+0xbe>
 8005f4a:	b2db      	uxtb	r3, r3
 8005f4c:	2b05      	cmp	r3, #5
 8005f4e:	d8d2      	bhi.n	8005ef6 <USBD_StdDevReq+0x7a>
 8005f50:	e8df f003 	tbb	[pc, r3]
 8005f54:	0f0b0703 	.word	0x0f0b0703
 8005f58:	1713      	.short	0x1713
 8005f5a:	f8d0 32b4 	ldr.w	r3, [r0, #692]	; 0x2b4
 8005f5e:	685b      	ldr	r3, [r3, #4]
 8005f60:	e7c8      	b.n	8005ef4 <USBD_StdDevReq+0x78>
 8005f62:	f8d0 32b4 	ldr.w	r3, [r0, #692]	; 0x2b4
 8005f66:	689b      	ldr	r3, [r3, #8]
 8005f68:	e7c4      	b.n	8005ef4 <USBD_StdDevReq+0x78>
 8005f6a:	f8d0 32b4 	ldr.w	r3, [r0, #692]	; 0x2b4
 8005f6e:	68db      	ldr	r3, [r3, #12]
 8005f70:	e7c0      	b.n	8005ef4 <USBD_StdDevReq+0x78>
 8005f72:	f8d0 32b4 	ldr.w	r3, [r0, #692]	; 0x2b4
 8005f76:	691b      	ldr	r3, [r3, #16]
 8005f78:	e7bc      	b.n	8005ef4 <USBD_StdDevReq+0x78>
 8005f7a:	f8d0 32b4 	ldr.w	r3, [r0, #692]	; 0x2b4
 8005f7e:	695b      	ldr	r3, [r3, #20]
 8005f80:	e7b8      	b.n	8005ef4 <USBD_StdDevReq+0x78>
 8005f82:	f8d0 32b4 	ldr.w	r3, [r0, #692]	; 0x2b4
 8005f86:	699b      	ldr	r3, [r3, #24]
 8005f88:	e7b4      	b.n	8005ef4 <USBD_StdDevReq+0x78>
 8005f8a:	7c03      	ldrb	r3, [r0, #16]
 8005f8c:	2b00      	cmp	r3, #0
 8005f8e:	d1b2      	bne.n	8005ef6 <USBD_StdDevReq+0x7a>
 8005f90:	f8d0 32b8 	ldr.w	r3, [r0, #696]	; 0x2b8
 8005f94:	f10d 0006 	add.w	r0, sp, #6
 8005f98:	6b5b      	ldr	r3, [r3, #52]	; 0x34
 8005f9a:	4798      	blx	r3
 8005f9c:	e7b6      	b.n	8005f0c <USBD_StdDevReq+0x90>
 8005f9e:	7c03      	ldrb	r3, [r0, #16]
 8005fa0:	2b00      	cmp	r3, #0
 8005fa2:	d1a8      	bne.n	8005ef6 <USBD_StdDevReq+0x7a>
 8005fa4:	f8d0 32b8 	ldr.w	r3, [r0, #696]	; 0x2b8
 8005fa8:	f10d 0006 	add.w	r0, sp, #6
 8005fac:	6b1b      	ldr	r3, [r3, #48]	; 0x30
 8005fae:	4798      	blx	r3
 8005fb0:	2307      	movs	r3, #7
 8005fb2:	e7c6      	b.n	8005f42 <USBD_StdDevReq+0xc6>
 8005fb4:	888b      	ldrh	r3, [r1, #4]
 8005fb6:	2b00      	cmp	r3, #0
 8005fb8:	d19d      	bne.n	8005ef6 <USBD_StdDevReq+0x7a>
 8005fba:	88cb      	ldrh	r3, [r1, #6]
 8005fbc:	2b00      	cmp	r3, #0
 8005fbe:	d19a      	bne.n	8005ef6 <USBD_StdDevReq+0x7a>
 8005fc0:	884e      	ldrh	r6, [r1, #2]
 8005fc2:	2e7f      	cmp	r6, #127	; 0x7f
 8005fc4:	d897      	bhi.n	8005ef6 <USBD_StdDevReq+0x7a>
 8005fc6:	f890 329c 	ldrb.w	r3, [r0, #668]	; 0x29c
 8005fca:	2b03      	cmp	r3, #3
 8005fcc:	d093      	beq.n	8005ef6 <USBD_StdDevReq+0x7a>
 8005fce:	b2f1      	uxtb	r1, r6
 8005fd0:	f880 129e 	strb.w	r1, [r0, #670]	; 0x29e
 8005fd4:	f000 fbe2 	bl	800679c <USBD_LL_SetUSBAddress>
 8005fd8:	4620      	mov	r0, r4
 8005fda:	f000 f9b5 	bl	8006348 <USBD_CtlSendStatus>
 8005fde:	b11e      	cbz	r6, 8005fe8 <USBD_StdDevReq+0x16c>
 8005fe0:	2302      	movs	r3, #2
 8005fe2:	f884 329c 	strb.w	r3, [r4, #668]	; 0x29c
 8005fe6:	e76d      	b.n	8005ec4 <USBD_StdDevReq+0x48>
 8005fe8:	2301      	movs	r3, #1
 8005fea:	e7fa      	b.n	8005fe2 <USBD_StdDevReq+0x166>
 8005fec:	788e      	ldrb	r6, [r1, #2]
 8005fee:	4f48      	ldr	r7, [pc, #288]	; (8006110 <USBD_StdDevReq+0x294>)
 8005ff0:	2e01      	cmp	r6, #1
 8005ff2:	703e      	strb	r6, [r7, #0]
 8005ff4:	d903      	bls.n	8005ffe <USBD_StdDevReq+0x182>
 8005ff6:	f7ff ff36 	bl	8005e66 <USBD_CtlError.constprop.0>
 8005ffa:	2503      	movs	r5, #3
 8005ffc:	e762      	b.n	8005ec4 <USBD_StdDevReq+0x48>
 8005ffe:	f890 329c 	ldrb.w	r3, [r0, #668]	; 0x29c
 8006002:	2b02      	cmp	r3, #2
 8006004:	b2da      	uxtb	r2, r3
 8006006:	d008      	beq.n	800601a <USBD_StdDevReq+0x19e>
 8006008:	2a03      	cmp	r2, #3
 800600a:	d015      	beq.n	8006038 <USBD_StdDevReq+0x1bc>
 800600c:	f7ff ff2b 	bl	8005e66 <USBD_CtlError.constprop.0>
 8006010:	7839      	ldrb	r1, [r7, #0]
 8006012:	4620      	mov	r0, r4
 8006014:	f7ff fde8 	bl	8005be8 <USBD_ClrClassConfig>
 8006018:	e7ef      	b.n	8005ffa <USBD_StdDevReq+0x17e>
 800601a:	2e00      	cmp	r6, #0
 800601c:	d068      	beq.n	80060f0 <USBD_StdDevReq+0x274>
 800601e:	2101      	movs	r1, #1
 8006020:	6041      	str	r1, [r0, #4]
 8006022:	f7ff fdda 	bl	8005bda <USBD_SetClassConfig>
 8006026:	4605      	mov	r5, r0
 8006028:	4620      	mov	r0, r4
 800602a:	2d00      	cmp	r5, #0
 800602c:	f47f af64 	bne.w	8005ef8 <USBD_StdDevReq+0x7c>
 8006030:	f000 f98a 	bl	8006348 <USBD_CtlSendStatus>
 8006034:	2303      	movs	r3, #3
 8006036:	e7d4      	b.n	8005fe2 <USBD_StdDevReq+0x166>
 8006038:	b95e      	cbnz	r6, 8006052 <USBD_StdDevReq+0x1d6>
 800603a:	2302      	movs	r3, #2
 800603c:	f880 329c 	strb.w	r3, [r0, #668]	; 0x29c
 8006040:	6046      	str	r6, [r0, #4]
 8006042:	4631      	mov	r1, r6
 8006044:	f7ff fdd0 	bl	8005be8 <USBD_ClrClassConfig>
 8006048:	4620      	mov	r0, r4
 800604a:	f000 f97d 	bl	8006348 <USBD_CtlSendStatus>
 800604e:	4635      	mov	r5, r6
 8006050:	e738      	b.n	8005ec4 <USBD_StdDevReq+0x48>
 8006052:	6841      	ldr	r1, [r0, #4]
 8006054:	2901      	cmp	r1, #1
 8006056:	d04b      	beq.n	80060f0 <USBD_StdDevReq+0x274>
 8006058:	b2c9      	uxtb	r1, r1
 800605a:	f7ff fdc5 	bl	8005be8 <USBD_ClrClassConfig>
 800605e:	7839      	ldrb	r1, [r7, #0]
 8006060:	6061      	str	r1, [r4, #4]
 8006062:	4620      	mov	r0, r4
 8006064:	f7ff fdb9 	bl	8005bda <USBD_SetClassConfig>
 8006068:	4606      	mov	r6, r0
 800606a:	2800      	cmp	r0, #0
 800606c:	d040      	beq.n	80060f0 <USBD_StdDevReq+0x274>
 800606e:	4620      	mov	r0, r4
 8006070:	f7ff fef9 	bl	8005e66 <USBD_CtlError.constprop.0>
 8006074:	7921      	ldrb	r1, [r4, #4]
 8006076:	4620      	mov	r0, r4
 8006078:	f7ff fdb6 	bl	8005be8 <USBD_ClrClassConfig>
 800607c:	2302      	movs	r3, #2
 800607e:	f884 329c 	strb.w	r3, [r4, #668]	; 0x29c
 8006082:	e7e4      	b.n	800604e <USBD_StdDevReq+0x1d2>
 8006084:	88ca      	ldrh	r2, [r1, #6]
 8006086:	2a01      	cmp	r2, #1
 8006088:	f47f af35 	bne.w	8005ef6 <USBD_StdDevReq+0x7a>
 800608c:	f890 129c 	ldrb.w	r1, [r0, #668]	; 0x29c
 8006090:	2902      	cmp	r1, #2
 8006092:	b2cb      	uxtb	r3, r1
 8006094:	d805      	bhi.n	80060a2 <USBD_StdDevReq+0x226>
 8006096:	b133      	cbz	r3, 80060a6 <USBD_StdDevReq+0x22a>
 8006098:	4601      	mov	r1, r0
 800609a:	2300      	movs	r3, #0
 800609c:	f841 3f08 	str.w	r3, [r1, #8]!
 80060a0:	e742      	b.n	8005f28 <USBD_StdDevReq+0xac>
 80060a2:	2b03      	cmp	r3, #3
 80060a4:	d004      	beq.n	80060b0 <USBD_StdDevReq+0x234>
 80060a6:	4620      	mov	r0, r4
 80060a8:	f7ff fedd 	bl	8005e66 <USBD_CtlError.constprop.0>
 80060ac:	2500      	movs	r5, #0
 80060ae:	e709      	b.n	8005ec4 <USBD_StdDevReq+0x48>
 80060b0:	1d01      	adds	r1, r0, #4
 80060b2:	e739      	b.n	8005f28 <USBD_StdDevReq+0xac>
 80060b4:	f890 329c 	ldrb.w	r3, [r0, #668]	; 0x29c
 80060b8:	3b01      	subs	r3, #1
 80060ba:	2b02      	cmp	r3, #2
 80060bc:	d8f3      	bhi.n	80060a6 <USBD_StdDevReq+0x22a>
 80060be:	88cb      	ldrh	r3, [r1, #6]
 80060c0:	2b02      	cmp	r3, #2
 80060c2:	f47f af18 	bne.w	8005ef6 <USBD_StdDevReq+0x7a>
 80060c6:	2301      	movs	r3, #1
 80060c8:	60c3      	str	r3, [r0, #12]
 80060ca:	f8d0 32a4 	ldr.w	r3, [r0, #676]	; 0x2a4
 80060ce:	b10b      	cbz	r3, 80060d4 <USBD_StdDevReq+0x258>
 80060d0:	2303      	movs	r3, #3
 80060d2:	60c3      	str	r3, [r0, #12]
 80060d4:	2202      	movs	r2, #2
 80060d6:	f104 010c 	add.w	r1, r4, #12
 80060da:	4620      	mov	r0, r4
 80060dc:	f000 f90a 	bl	80062f4 <USBD_CtlSendData>
 80060e0:	463d      	mov	r5, r7
 80060e2:	e6ef      	b.n	8005ec4 <USBD_StdDevReq+0x48>
 80060e4:	884b      	ldrh	r3, [r1, #2]
 80060e6:	2b01      	cmp	r3, #1
 80060e8:	f47f aeec 	bne.w	8005ec4 <USBD_StdDevReq+0x48>
 80060ec:	f8c4 32a4 	str.w	r3, [r4, #676]	; 0x2a4
 80060f0:	4620      	mov	r0, r4
 80060f2:	f000 f929 	bl	8006348 <USBD_CtlSendStatus>
 80060f6:	e6e5      	b.n	8005ec4 <USBD_StdDevReq+0x48>
 80060f8:	f890 329c 	ldrb.w	r3, [r0, #668]	; 0x29c
 80060fc:	3b01      	subs	r3, #1
 80060fe:	2b02      	cmp	r3, #2
 8006100:	d8d1      	bhi.n	80060a6 <USBD_StdDevReq+0x22a>
 8006102:	884b      	ldrh	r3, [r1, #2]
 8006104:	2b01      	cmp	r3, #1
 8006106:	f47f aedd 	bne.w	8005ec4 <USBD_StdDevReq+0x48>
 800610a:	2300      	movs	r3, #0
 800610c:	e7ee      	b.n	80060ec <USBD_StdDevReq+0x270>
 800610e:	bf00      	nop
 8006110:	20000384 	.word	0x20000384

08006114 <USBD_StdItfReq>:
 8006114:	b570      	push	{r4, r5, r6, lr}
 8006116:	780b      	ldrb	r3, [r1, #0]
 8006118:	f003 0260 	and.w	r2, r3, #96	; 0x60
 800611c:	2a40      	cmp	r2, #64	; 0x40
 800611e:	4604      	mov	r4, r0
 8006120:	460e      	mov	r6, r1
 8006122:	d001      	beq.n	8006128 <USBD_StdItfReq+0x14>
 8006124:	065b      	lsls	r3, r3, #25
 8006126:	d416      	bmi.n	8006156 <USBD_StdItfReq+0x42>
 8006128:	f894 329c 	ldrb.w	r3, [r4, #668]	; 0x29c
 800612c:	3b01      	subs	r3, #1
 800612e:	2b02      	cmp	r3, #2
 8006130:	d811      	bhi.n	8006156 <USBD_StdItfReq+0x42>
 8006132:	7933      	ldrb	r3, [r6, #4]
 8006134:	2b01      	cmp	r3, #1
 8006136:	d80e      	bhi.n	8006156 <USBD_StdItfReq+0x42>
 8006138:	f8d4 32b8 	ldr.w	r3, [r4, #696]	; 0x2b8
 800613c:	4631      	mov	r1, r6
 800613e:	689b      	ldr	r3, [r3, #8]
 8006140:	4620      	mov	r0, r4
 8006142:	4798      	blx	r3
 8006144:	88f3      	ldrh	r3, [r6, #6]
 8006146:	4605      	mov	r5, r0
 8006148:	b91b      	cbnz	r3, 8006152 <USBD_StdItfReq+0x3e>
 800614a:	b910      	cbnz	r0, 8006152 <USBD_StdItfReq+0x3e>
 800614c:	4620      	mov	r0, r4
 800614e:	f000 f8fb 	bl	8006348 <USBD_CtlSendStatus>
 8006152:	4628      	mov	r0, r5
 8006154:	bd70      	pop	{r4, r5, r6, pc}
 8006156:	4620      	mov	r0, r4
 8006158:	f7ff fe85 	bl	8005e66 <USBD_CtlError.constprop.0>
 800615c:	2500      	movs	r5, #0
 800615e:	e7f8      	b.n	8006152 <USBD_StdItfReq+0x3e>

08006160 <USBD_StdEPReq>:
 8006160:	b570      	push	{r4, r5, r6, lr}
 8006162:	780b      	ldrb	r3, [r1, #0]
 8006164:	f003 0360 	and.w	r3, r3, #96	; 0x60
 8006168:	2b20      	cmp	r3, #32
 800616a:	4604      	mov	r4, r0
 800616c:	460d      	mov	r5, r1
 800616e:	d052      	beq.n	8006216 <USBD_StdEPReq+0xb6>
 8006170:	2b40      	cmp	r3, #64	; 0x40
 8006172:	d050      	beq.n	8006216 <USBD_StdEPReq+0xb6>
 8006174:	bb6b      	cbnz	r3, 80061d2 <USBD_StdEPReq+0x72>
 8006176:	786b      	ldrb	r3, [r5, #1]
 8006178:	888a      	ldrh	r2, [r1, #4]
 800617a:	7909      	ldrb	r1, [r1, #4]
 800617c:	2b01      	cmp	r3, #1
 800617e:	d039      	beq.n	80061f4 <USBD_StdEPReq+0x94>
 8006180:	2b03      	cmp	r3, #3
 8006182:	d01f      	beq.n	80061c4 <USBD_StdEPReq+0x64>
 8006184:	bb2b      	cbnz	r3, 80061d2 <USBD_StdEPReq+0x72>
 8006186:	f890 329c 	ldrb.w	r3, [r0, #668]	; 0x29c
 800618a:	2b02      	cmp	r3, #2
 800618c:	b2d8      	uxtb	r0, r3
 800618e:	d053      	beq.n	8006238 <USBD_StdEPReq+0xd8>
 8006190:	2803      	cmp	r0, #3
 8006192:	d11e      	bne.n	80061d2 <USBD_StdEPReq+0x72>
 8006194:	f001 030f 	and.w	r3, r1, #15
 8006198:	f012 0f80 	tst.w	r2, #128	; 0x80
 800619c:	f04f 0214 	mov.w	r2, #20
 80061a0:	fb02 4303 	mla	r3, r2, r3, r4
 80061a4:	d057      	beq.n	8006256 <USBD_StdEPReq+0xf6>
 80061a6:	8c9b      	ldrh	r3, [r3, #36]	; 0x24
 80061a8:	b19b      	cbz	r3, 80061d2 <USBD_StdEPReq+0x72>
 80061aa:	f001 057f 	and.w	r5, r1, #127	; 0x7f
 80061ae:	2314      	movs	r3, #20
 80061b0:	fb05 3303 	mla	r3, r5, r3, r3
 80061b4:	18e5      	adds	r5, r4, r3
 80061b6:	f011 037f 	ands.w	r3, r1, #127	; 0x7f
 80061ba:	d158      	bne.n	800626e <USBD_StdEPReq+0x10e>
 80061bc:	602b      	str	r3, [r5, #0]
 80061be:	2202      	movs	r2, #2
 80061c0:	4629      	mov	r1, r5
 80061c2:	e044      	b.n	800624e <USBD_StdEPReq+0xee>
 80061c4:	f890 329c 	ldrb.w	r3, [r0, #668]	; 0x29c
 80061c8:	2b02      	cmp	r3, #2
 80061ca:	b2da      	uxtb	r2, r3
 80061cc:	d02b      	beq.n	8006226 <USBD_StdEPReq+0xc6>
 80061ce:	2a03      	cmp	r2, #3
 80061d0:	d003      	beq.n	80061da <USBD_StdEPReq+0x7a>
 80061d2:	4620      	mov	r0, r4
 80061d4:	f7ff fe47 	bl	8005e66 <USBD_CtlError.constprop.0>
 80061d8:	e00a      	b.n	80061f0 <USBD_StdEPReq+0x90>
 80061da:	886b      	ldrh	r3, [r5, #2]
 80061dc:	b92b      	cbnz	r3, 80061ea <USBD_StdEPReq+0x8a>
 80061de:	064a      	lsls	r2, r1, #25
 80061e0:	d003      	beq.n	80061ea <USBD_StdEPReq+0x8a>
 80061e2:	88eb      	ldrh	r3, [r5, #6]
 80061e4:	b90b      	cbnz	r3, 80061ea <USBD_StdEPReq+0x8a>
 80061e6:	f000 faa9 	bl	800673c <USBD_LL_StallEP>
 80061ea:	4620      	mov	r0, r4
 80061ec:	f000 f8ac 	bl	8006348 <USBD_CtlSendStatus>
 80061f0:	2000      	movs	r0, #0
 80061f2:	bd70      	pop	{r4, r5, r6, pc}
 80061f4:	f890 329c 	ldrb.w	r3, [r0, #668]	; 0x29c
 80061f8:	2b02      	cmp	r3, #2
 80061fa:	b2da      	uxtb	r2, r3
 80061fc:	d013      	beq.n	8006226 <USBD_StdEPReq+0xc6>
 80061fe:	2a03      	cmp	r2, #3
 8006200:	d1e7      	bne.n	80061d2 <USBD_StdEPReq+0x72>
 8006202:	886b      	ldrh	r3, [r5, #2]
 8006204:	2b00      	cmp	r3, #0
 8006206:	d1f3      	bne.n	80061f0 <USBD_StdEPReq+0x90>
 8006208:	064e      	lsls	r6, r1, #25
 800620a:	d001      	beq.n	8006210 <USBD_StdEPReq+0xb0>
 800620c:	f000 faa4 	bl	8006758 <USBD_LL_ClearStallEP>
 8006210:	4620      	mov	r0, r4
 8006212:	f000 f899 	bl	8006348 <USBD_CtlSendStatus>
 8006216:	f8d4 32b8 	ldr.w	r3, [r4, #696]	; 0x2b8
 800621a:	4629      	mov	r1, r5
 800621c:	4620      	mov	r0, r4
 800621e:	689b      	ldr	r3, [r3, #8]
 8006220:	e8bd 4070 	ldmia.w	sp!, {r4, r5, r6, lr}
 8006224:	4718      	bx	r3
 8006226:	064b      	lsls	r3, r1, #25
 8006228:	d0d3      	beq.n	80061d2 <USBD_StdEPReq+0x72>
 800622a:	f000 fa87 	bl	800673c <USBD_LL_StallEP>
 800622e:	2180      	movs	r1, #128	; 0x80
 8006230:	4620      	mov	r0, r4
 8006232:	f000 fa83 	bl	800673c <USBD_LL_StallEP>
 8006236:	e7db      	b.n	80061f0 <USBD_StdEPReq+0x90>
 8006238:	0649      	lsls	r1, r1, #25
 800623a:	d1ca      	bne.n	80061d2 <USBD_StdEPReq+0x72>
 800623c:	0613      	lsls	r3, r2, #24
 800623e:	bf4c      	ite	mi
 8006240:	f104 0114 	addmi.w	r1, r4, #20
 8006244:	f504 71aa 	addpl.w	r1, r4, #340	; 0x154
 8006248:	2300      	movs	r3, #0
 800624a:	600b      	str	r3, [r1, #0]
 800624c:	2202      	movs	r2, #2
 800624e:	4620      	mov	r0, r4
 8006250:	f000 f850 	bl	80062f4 <USBD_CtlSendData>
 8006254:	e7cc      	b.n	80061f0 <USBD_StdEPReq+0x90>
 8006256:	f8b3 3164 	ldrh.w	r3, [r3, #356]	; 0x164
 800625a:	2b00      	cmp	r3, #0
 800625c:	d0b9      	beq.n	80061d2 <USBD_StdEPReq+0x72>
 800625e:	f001 057f 	and.w	r5, r1, #127	; 0x7f
 8006262:	2314      	movs	r3, #20
 8006264:	fb03 4505 	mla	r5, r3, r5, r4
 8006268:	f505 75aa 	add.w	r5, r5, #340	; 0x154
 800626c:	e7a3      	b.n	80061b6 <USBD_StdEPReq+0x56>
 800626e:	4620      	mov	r0, r4
 8006270:	f000 fa80 	bl	8006774 <USBD_LL_IsStallEP>
 8006274:	b108      	cbz	r0, 800627a <USBD_StdEPReq+0x11a>
 8006276:	2301      	movs	r3, #1
 8006278:	e7a0      	b.n	80061bc <USBD_StdEPReq+0x5c>
 800627a:	6028      	str	r0, [r5, #0]
 800627c:	e79f      	b.n	80061be <USBD_StdEPReq+0x5e>

0800627e <USBD_ParseSetupRequest>:
 800627e:	780b      	ldrb	r3, [r1, #0]
 8006280:	7003      	strb	r3, [r0, #0]
 8006282:	784b      	ldrb	r3, [r1, #1]
 8006284:	7043      	strb	r3, [r0, #1]
 8006286:	78ca      	ldrb	r2, [r1, #3]
 8006288:	788b      	ldrb	r3, [r1, #2]
 800628a:	ea43 2302 	orr.w	r3, r3, r2, lsl #8
 800628e:	8043      	strh	r3, [r0, #2]
 8006290:	794a      	ldrb	r2, [r1, #5]
 8006292:	790b      	ldrb	r3, [r1, #4]
 8006294:	ea43 2302 	orr.w	r3, r3, r2, lsl #8
 8006298:	8083      	strh	r3, [r0, #4]
 800629a:	79ca      	ldrb	r2, [r1, #7]
 800629c:	798b      	ldrb	r3, [r1, #6]
 800629e:	ea43 2302 	orr.w	r3, r3, r2, lsl #8
 80062a2:	80c3      	strh	r3, [r0, #6]
 80062a4:	4770      	bx	lr

080062a6 <USBD_CtlError>:
 80062a6:	b510      	push	{r4, lr}
 80062a8:	2180      	movs	r1, #128	; 0x80
 80062aa:	4604      	mov	r4, r0
 80062ac:	f000 fa46 	bl	800673c <USBD_LL_StallEP>
 80062b0:	4620      	mov	r0, r4
 80062b2:	2100      	movs	r1, #0
 80062b4:	e8bd 4010 	ldmia.w	sp!, {r4, lr}
 80062b8:	f000 ba40 	b.w	800673c <USBD_LL_StallEP>

080062bc <USBD_GetString>:
 80062bc:	b530      	push	{r4, r5, lr}
 80062be:	b188      	cbz	r0, 80062e4 <USBD_GetString+0x28>
 80062c0:	2500      	movs	r5, #0
 80062c2:	3801      	subs	r0, #1
 80062c4:	462b      	mov	r3, r5
 80062c6:	3501      	adds	r5, #1
 80062c8:	5d44      	ldrb	r4, [r0, r5]
 80062ca:	2c00      	cmp	r4, #0
 80062cc:	d1fa      	bne.n	80062c4 <USBD_GetString+0x8>
 80062ce:	b2db      	uxtb	r3, r3
 80062d0:	3301      	adds	r3, #1
 80062d2:	005b      	lsls	r3, r3, #1
 80062d4:	8013      	strh	r3, [r2, #0]
 80062d6:	700b      	strb	r3, [r1, #0]
 80062d8:	2303      	movs	r3, #3
 80062da:	704b      	strb	r3, [r1, #1]
 80062dc:	2302      	movs	r3, #2
 80062de:	f810 2f01 	ldrb.w	r2, [r0, #1]!
 80062e2:	b902      	cbnz	r2, 80062e6 <USBD_GetString+0x2a>
 80062e4:	bd30      	pop	{r4, r5, pc}
 80062e6:	54ca      	strb	r2, [r1, r3]
 80062e8:	1c5a      	adds	r2, r3, #1
 80062ea:	b2d2      	uxtb	r2, r2
 80062ec:	3302      	adds	r3, #2
 80062ee:	548c      	strb	r4, [r1, r2]
 80062f0:	b2db      	uxtb	r3, r3
 80062f2:	e7f4      	b.n	80062de <USBD_GetString+0x22>

080062f4 <USBD_CtlSendData>:
 80062f4:	b510      	push	{r4, lr}
 80062f6:	2402      	movs	r4, #2
 80062f8:	4613      	mov	r3, r2
 80062fa:	e9c0 2206 	strd	r2, r2, [r0, #24]
 80062fe:	f8c0 4294 	str.w	r4, [r0, #660]	; 0x294
 8006302:	460a      	mov	r2, r1
 8006304:	2100      	movs	r1, #0
 8006306:	f000 fa57 	bl	80067b8 <USBD_LL_Transmit>
 800630a:	2000      	movs	r0, #0
 800630c:	bd10      	pop	{r4, pc}

0800630e <USBD_CtlContinueSendData>:
 800630e:	b508      	push	{r3, lr}
 8006310:	4613      	mov	r3, r2
 8006312:	460a      	mov	r2, r1
 8006314:	2100      	movs	r1, #0
 8006316:	f000 fa4f 	bl	80067b8 <USBD_LL_Transmit>
 800631a:	2000      	movs	r0, #0
 800631c:	bd08      	pop	{r3, pc}

0800631e <USBD_CtlPrepareRx>:
 800631e:	b510      	push	{r4, lr}
 8006320:	2403      	movs	r4, #3
 8006322:	4613      	mov	r3, r2
 8006324:	e9c0 2256 	strd	r2, r2, [r0, #344]	; 0x158
 8006328:	f8c0 4294 	str.w	r4, [r0, #660]	; 0x294
 800632c:	460a      	mov	r2, r1
 800632e:	2100      	movs	r1, #0
 8006330:	f000 fa50 	bl	80067d4 <USBD_LL_PrepareReceive>
 8006334:	2000      	movs	r0, #0
 8006336:	bd10      	pop	{r4, pc}

08006338 <USBD_CtlContinueRx>:
 8006338:	b508      	push	{r3, lr}
 800633a:	4613      	mov	r3, r2
 800633c:	460a      	mov	r2, r1
 800633e:	2100      	movs	r1, #0
 8006340:	f000 fa48 	bl	80067d4 <USBD_LL_PrepareReceive>
 8006344:	2000      	movs	r0, #0
 8006346:	bd08      	pop	{r3, pc}

08006348 <USBD_CtlSendStatus>:
 8006348:	b508      	push	{r3, lr}
 800634a:	2204      	movs	r2, #4
 800634c:	2300      	movs	r3, #0
 800634e:	f8c0 2294 	str.w	r2, [r0, #660]	; 0x294
 8006352:	4619      	mov	r1, r3
 8006354:	461a      	mov	r2, r3
 8006356:	f000 fa2f 	bl	80067b8 <USBD_LL_Transmit>
 800635a:	2000      	movs	r0, #0
 800635c:	bd08      	pop	{r3, pc}

0800635e <USBD_CtlReceiveStatus>:
 800635e:	b508      	push	{r3, lr}
 8006360:	2205      	movs	r2, #5
 8006362:	2300      	movs	r3, #0
 8006364:	f8c0 2294 	str.w	r2, [r0, #660]	; 0x294
 8006368:	4619      	mov	r1, r3
 800636a:	461a      	mov	r2, r3
 800636c:	f000 fa32 	bl	80067d4 <USBD_LL_PrepareReceive>
 8006370:	2000      	movs	r0, #0
 8006372:	bd08      	pop	{r3, pc}

08006374 <MX_USB_DEVICE_Init>:
 8006374:	b508      	push	{r3, lr}
 8006376:	490f      	ldr	r1, [pc, #60]	; (80063b4 <MX_USB_DEVICE_Init+0x40>)
 8006378:	480f      	ldr	r0, [pc, #60]	; (80063b8 <MX_USB_DEVICE_Init+0x44>)
 800637a:	2200      	movs	r2, #0
 800637c:	f7ff fc02 	bl	8005b84 <USBD_Init>
 8006380:	b108      	cbz	r0, 8006386 <MX_USB_DEVICE_Init+0x12>
 8006382:	f7fb fcdd 	bl	8001d40 <Error_Handler>
 8006386:	490d      	ldr	r1, [pc, #52]	; (80063bc <MX_USB_DEVICE_Init+0x48>)
 8006388:	480b      	ldr	r0, [pc, #44]	; (80063b8 <MX_USB_DEVICE_Init+0x44>)
 800638a:	f7ff fc0e 	bl	8005baa <USBD_RegisterClass>
 800638e:	b108      	cbz	r0, 8006394 <MX_USB_DEVICE_Init+0x20>
 8006390:	f7fb fcd6 	bl	8001d40 <Error_Handler>
 8006394:	490a      	ldr	r1, [pc, #40]	; (80063c0 <MX_USB_DEVICE_Init+0x4c>)
 8006396:	4808      	ldr	r0, [pc, #32]	; (80063b8 <MX_USB_DEVICE_Init+0x44>)
 8006398:	f7ff fbaa 	bl	8005af0 <USBD_CDC_RegisterInterface>
 800639c:	b108      	cbz	r0, 80063a2 <MX_USB_DEVICE_Init+0x2e>
 800639e:	f7fb fccf 	bl	8001d40 <Error_Handler>
 80063a2:	4805      	ldr	r0, [pc, #20]	; (80063b8 <MX_USB_DEVICE_Init+0x44>)
 80063a4:	f7ff fc17 	bl	8005bd6 <USBD_Start>
 80063a8:	b118      	cbz	r0, 80063b2 <MX_USB_DEVICE_Init+0x3e>
 80063aa:	e8bd 4008 	ldmia.w	sp!, {r3, lr}
 80063ae:	f7fb bcc7 	b.w	8001d40 <Error_Handler>
 80063b2:	bd08      	pop	{r3, pc}
 80063b4:	20000130 	.word	0x20000130
 80063b8:	20000964 	.word	0x20000964
 80063bc:	2000000c 	.word	0x2000000c
 80063c0:	2000011c 	.word	0x2000011c

080063c4 <CDC_DeInit_FS>:
 80063c4:	2000      	movs	r0, #0
 80063c6:	4770      	bx	lr

080063c8 <CDC_Control_FS>:
 80063c8:	2000      	movs	r0, #0
 80063ca:	4770      	bx	lr

080063cc <CDC_TransmitCplt_FS>:
 80063cc:	2000      	movs	r0, #0
 80063ce:	4770      	bx	lr

080063d0 <CDC_Receive_FS>:
 80063d0:	b570      	push	{r4, r5, r6, lr}
 80063d2:	4e08      	ldr	r6, [pc, #32]	; (80063f4 <CDC_Receive_FS+0x24>)
 80063d4:	4604      	mov	r4, r0
 80063d6:	460d      	mov	r5, r1
 80063d8:	4601      	mov	r1, r0
 80063da:	4630      	mov	r0, r6
 80063dc:	f7ff fb9a 	bl	8005b14 <USBD_CDC_SetRxBuffer>
 80063e0:	4630      	mov	r0, r6
 80063e2:	f7ff fbb8 	bl	8005b56 <USBD_CDC_ReceivePacket>
 80063e6:	682a      	ldr	r2, [r5, #0]
 80063e8:	4803      	ldr	r0, [pc, #12]	; (80063f8 <CDC_Receive_FS+0x28>)
 80063ea:	4621      	mov	r1, r4
 80063ec:	f000 fa66 	bl	80068bc <memcpy>
 80063f0:	2000      	movs	r0, #0
 80063f2:	bd70      	pop	{r4, r5, r6, pc}
 80063f4:	20000964 	.word	0x20000964
 80063f8:	20000700 	.word	0x20000700

080063fc <CDC_Init_FS>:
 80063fc:	b510      	push	{r4, lr}
 80063fe:	4c06      	ldr	r4, [pc, #24]	; (8006418 <CDC_Init_FS+0x1c>)
 8006400:	4906      	ldr	r1, [pc, #24]	; (800641c <CDC_Init_FS+0x20>)
 8006402:	2200      	movs	r2, #0
 8006404:	4620      	mov	r0, r4
 8006406:	f7ff fb7a 	bl	8005afe <USBD_CDC_SetTxBuffer>
 800640a:	4905      	ldr	r1, [pc, #20]	; (8006420 <CDC_Init_FS+0x24>)
 800640c:	4620      	mov	r0, r4
 800640e:	f7ff fb81 	bl	8005b14 <USBD_CDC_SetRxBuffer>
 8006412:	2000      	movs	r0, #0
 8006414:	bd10      	pop	{r4, pc}
 8006416:	bf00      	nop
 8006418:	20000964 	.word	0x20000964
 800641c:	20001434 	.word	0x20001434
 8006420:	20000c34 	.word	0x20000c34

08006424 <CDC_Transmit_FS>:
 8006424:	b510      	push	{r4, lr}
 8006426:	4c09      	ldr	r4, [pc, #36]	; (800644c <CDC_Transmit_FS+0x28>)
 8006428:	f8d4 32bc 	ldr.w	r3, [r4, #700]	; 0x2bc
 800642c:	f8d3 3214 	ldr.w	r3, [r3, #532]	; 0x214
 8006430:	460a      	mov	r2, r1
 8006432:	b943      	cbnz	r3, 8006446 <CDC_Transmit_FS+0x22>
 8006434:	4601      	mov	r1, r0
 8006436:	4620      	mov	r0, r4
 8006438:	f7ff fb61 	bl	8005afe <USBD_CDC_SetTxBuffer>
 800643c:	4620      	mov	r0, r4
 800643e:	e8bd 4010 	ldmia.w	sp!, {r4, lr}
 8006442:	f7ff bb70 	b.w	8005b26 <USBD_CDC_TransmitPacket>
 8006446:	2001      	movs	r0, #1
 8006448:	bd10      	pop	{r4, pc}
 800644a:	bf00      	nop
 800644c:	20000964 	.word	0x20000964

08006450 <USBD_FS_DeviceDescriptor>:
 8006450:	2312      	movs	r3, #18
 8006452:	4801      	ldr	r0, [pc, #4]	; (8006458 <USBD_FS_DeviceDescriptor+0x8>)
 8006454:	800b      	strh	r3, [r1, #0]
 8006456:	4770      	bx	lr
 8006458:	2000015c 	.word	0x2000015c

0800645c <USBD_FS_LangIDStrDescriptor>:
 800645c:	2304      	movs	r3, #4
 800645e:	4801      	ldr	r0, [pc, #4]	; (8006464 <USBD_FS_LangIDStrDescriptor+0x8>)
 8006460:	800b      	strh	r3, [r1, #0]
 8006462:	4770      	bx	lr
 8006464:	20000170 	.word	0x20000170

08006468 <USBD_FS_USR_BOSDescriptor>:
 8006468:	230c      	movs	r3, #12
 800646a:	4801      	ldr	r0, [pc, #4]	; (8006470 <USBD_FS_USR_BOSDescriptor+0x8>)
 800646c:	800b      	strh	r3, [r1, #0]
 800646e:	4770      	bx	lr
 8006470:	20000150 	.word	0x20000150

08006474 <IntToUnicode>:
 8006474:	2300      	movs	r3, #0
 8006476:	b570      	push	{r4, r5, r6, lr}
 8006478:	1c4d      	adds	r5, r1, #1
 800647a:	461e      	mov	r6, r3
 800647c:	0f04      	lsrs	r4, r0, #28
 800647e:	f1b0 4f20 	cmp.w	r0, #2684354560	; 0xa0000000
 8006482:	bf34      	ite	cc
 8006484:	3430      	addcc	r4, #48	; 0x30
 8006486:	3437      	addcs	r4, #55	; 0x37
 8006488:	f801 4013 	strb.w	r4, [r1, r3, lsl #1]
 800648c:	f805 6013 	strb.w	r6, [r5, r3, lsl #1]
 8006490:	3301      	adds	r3, #1
 8006492:	b2dc      	uxtb	r4, r3
 8006494:	42a2      	cmp	r2, r4
 8006496:	ea4f 1000 	mov.w	r0, r0, lsl #4
 800649a:	d8ef      	bhi.n	800647c <IntToUnicode+0x8>
 800649c:	bd70      	pop	{r4, r5, r6, pc}
	...

080064a0 <USBD_FS_SerialStrDescriptor>:
 80064a0:	231a      	movs	r3, #26
 80064a2:	b510      	push	{r4, lr}
 80064a4:	800b      	strh	r3, [r1, #0]
 80064a6:	4b09      	ldr	r3, [pc, #36]	; (80064cc <USBD_FS_SerialStrDescriptor+0x2c>)
 80064a8:	6818      	ldr	r0, [r3, #0]
 80064aa:	3308      	adds	r3, #8
 80064ac:	681b      	ldr	r3, [r3, #0]
 80064ae:	18c0      	adds	r0, r0, r3
 80064b0:	d00a      	beq.n	80064c8 <USBD_FS_SerialStrDescriptor+0x28>
 80064b2:	4b07      	ldr	r3, [pc, #28]	; (80064d0 <USBD_FS_SerialStrDescriptor+0x30>)
 80064b4:	4907      	ldr	r1, [pc, #28]	; (80064d4 <USBD_FS_SerialStrDescriptor+0x34>)
 80064b6:	681c      	ldr	r4, [r3, #0]
 80064b8:	2208      	movs	r2, #8
 80064ba:	f7ff ffdb 	bl	8006474 <IntToUnicode>
 80064be:	4906      	ldr	r1, [pc, #24]	; (80064d8 <USBD_FS_SerialStrDescriptor+0x38>)
 80064c0:	2204      	movs	r2, #4
 80064c2:	4620      	mov	r0, r4
 80064c4:	f7ff ffd6 	bl	8006474 <IntToUnicode>
 80064c8:	4804      	ldr	r0, [pc, #16]	; (80064dc <USBD_FS_SerialStrDescriptor+0x3c>)
 80064ca:	bd10      	pop	{r4, pc}
 80064cc:	1fff7a10 	.word	0x1fff7a10
 80064d0:	1fff7a14 	.word	0x1fff7a14
 80064d4:	20000176 	.word	0x20000176
 80064d8:	20000186 	.word	0x20000186
 80064dc:	20000174 	.word	0x20000174

080064e0 <USBD_FS_ManufacturerStrDescriptor>:
 80064e0:	b510      	push	{r4, lr}
 80064e2:	4c04      	ldr	r4, [pc, #16]	; (80064f4 <USBD_FS_ManufacturerStrDescriptor+0x14>)
 80064e4:	4804      	ldr	r0, [pc, #16]	; (80064f8 <USBD_FS_ManufacturerStrDescriptor+0x18>)
 80064e6:	460a      	mov	r2, r1
 80064e8:	4621      	mov	r1, r4
 80064ea:	f7ff fee7 	bl	80062bc <USBD_GetString>
 80064ee:	4620      	mov	r0, r4
 80064f0:	bd10      	pop	{r4, pc}
 80064f2:	bf00      	nop
 80064f4:	20001c34 	.word	0x20001c34
 80064f8:	08009636 	.word	0x08009636

080064fc <USBD_FS_ProductStrDescriptor>:
 80064fc:	b510      	push	{r4, lr}
 80064fe:	4c04      	ldr	r4, [pc, #16]	; (8006510 <USBD_FS_ProductStrDescriptor+0x14>)
 8006500:	4804      	ldr	r0, [pc, #16]	; (8006514 <USBD_FS_ProductStrDescriptor+0x18>)
 8006502:	460a      	mov	r2, r1
 8006504:	4621      	mov	r1, r4
 8006506:	f7ff fed9 	bl	80062bc <USBD_GetString>
 800650a:	4620      	mov	r0, r4
 800650c:	bd10      	pop	{r4, pc}
 800650e:	bf00      	nop
 8006510:	20001c34 	.word	0x20001c34
 8006514:	0800963c 	.word	0x0800963c

08006518 <USBD_FS_ConfigStrDescriptor>:
 8006518:	b510      	push	{r4, lr}
 800651a:	4c04      	ldr	r4, [pc, #16]	; (800652c <USBD_FS_ConfigStrDescriptor+0x14>)
 800651c:	4804      	ldr	r0, [pc, #16]	; (8006530 <USBD_FS_ConfigStrDescriptor+0x18>)
 800651e:	460a      	mov	r2, r1
 8006520:	4621      	mov	r1, r4
 8006522:	f7ff fecb 	bl	80062bc <USBD_GetString>
 8006526:	4620      	mov	r0, r4
 8006528:	bd10      	pop	{r4, pc}
 800652a:	bf00      	nop
 800652c:	20001c34 	.word	0x20001c34
 8006530:	08009648 	.word	0x08009648

08006534 <USBD_FS_InterfaceStrDescriptor>:
 8006534:	b510      	push	{r4, lr}
 8006536:	4c04      	ldr	r4, [pc, #16]	; (8006548 <USBD_FS_InterfaceStrDescriptor+0x14>)
 8006538:	4804      	ldr	r0, [pc, #16]	; (800654c <USBD_FS_InterfaceStrDescriptor+0x18>)
 800653a:	460a      	mov	r2, r1
 800653c:	4621      	mov	r1, r4
 800653e:	f7ff febd 	bl	80062bc <USBD_GetString>
 8006542:	4620      	mov	r0, r4
 8006544:	bd10      	pop	{r4, pc}
 8006546:	bf00      	nop
 8006548:	20001c34 	.word	0x20001c34
 800654c:	08009653 	.word	0x08009653

08006550 <HAL_PCD_MspInit>:
 8006550:	b530      	push	{r4, r5, lr}
 8006552:	4604      	mov	r4, r0
 8006554:	b089      	sub	sp, #36	; 0x24
 8006556:	2214      	movs	r2, #20
 8006558:	2100      	movs	r1, #0
 800655a:	a803      	add	r0, sp, #12
 800655c:	f000 f9bc 	bl	80068d8 <memset>
 8006560:	6823      	ldr	r3, [r4, #0]
 8006562:	f1b3 4fa0 	cmp.w	r3, #1342177280	; 0x50000000
 8006566:	d12f      	bne.n	80065c8 <HAL_PCD_MspInit+0x78>
 8006568:	4c18      	ldr	r4, [pc, #96]	; (80065cc <HAL_PCD_MspInit+0x7c>)
 800656a:	4819      	ldr	r0, [pc, #100]	; (80065d0 <HAL_PCD_MspInit+0x80>)
 800656c:	2500      	movs	r5, #0
 800656e:	9501      	str	r5, [sp, #4]
 8006570:	6b23      	ldr	r3, [r4, #48]	; 0x30
 8006572:	f043 0301 	orr.w	r3, r3, #1
 8006576:	6323      	str	r3, [r4, #48]	; 0x30
 8006578:	6b23      	ldr	r3, [r4, #48]	; 0x30
 800657a:	9505      	str	r5, [sp, #20]
 800657c:	f003 0301 	and.w	r3, r3, #1
 8006580:	9301      	str	r3, [sp, #4]
 8006582:	f44f 52c0 	mov.w	r2, #6144	; 0x1800
 8006586:	9b01      	ldr	r3, [sp, #4]
 8006588:	2302      	movs	r3, #2
 800658a:	e9cd 2303 	strd	r2, r3, [sp, #12]
 800658e:	2103      	movs	r1, #3
 8006590:	230a      	movs	r3, #10
 8006592:	e9cd 1306 	strd	r1, r3, [sp, #24]
 8006596:	a903      	add	r1, sp, #12
 8006598:	f7fc fb6e 	bl	8002c78 <HAL_GPIO_Init>
 800659c:	6b63      	ldr	r3, [r4, #52]	; 0x34
 800659e:	f043 0380 	orr.w	r3, r3, #128	; 0x80
 80065a2:	6363      	str	r3, [r4, #52]	; 0x34
 80065a4:	9502      	str	r5, [sp, #8]
 80065a6:	6c63      	ldr	r3, [r4, #68]	; 0x44
 80065a8:	f443 4380 	orr.w	r3, r3, #16384	; 0x4000
 80065ac:	6463      	str	r3, [r4, #68]	; 0x44
 80065ae:	6c63      	ldr	r3, [r4, #68]	; 0x44
 80065b0:	f403 4380 	and.w	r3, r3, #16384	; 0x4000
 80065b4:	9302      	str	r3, [sp, #8]
 80065b6:	2043      	movs	r0, #67	; 0x43
 80065b8:	462a      	mov	r2, r5
 80065ba:	4629      	mov	r1, r5
 80065bc:	9b02      	ldr	r3, [sp, #8]
 80065be:	f7fc fb05 	bl	8002bcc <HAL_NVIC_SetPriority>
 80065c2:	2043      	movs	r0, #67	; 0x43
 80065c4:	f7fc fb34 	bl	8002c30 <HAL_NVIC_EnableIRQ>
 80065c8:	b009      	add	sp, #36	; 0x24
 80065ca:	bd30      	pop	{r4, r5, pc}
 80065cc:	40023800 	.word	0x40023800
 80065d0:	40020000 	.word	0x40020000

080065d4 <HAL_PCD_SetupStageCallback>:
 80065d4:	f500 7171 	add.w	r1, r0, #964	; 0x3c4
 80065d8:	f8d0 0404 	ldr.w	r0, [r0, #1028]	; 0x404
 80065dc:	f7ff bb0c 	b.w	8005bf8 <USBD_LL_SetupStage>

080065e0 <HAL_PCD_DataOutStageCallback>:
 80065e0:	231c      	movs	r3, #28
 80065e2:	fb03 0301 	mla	r3, r3, r1, r0
 80065e6:	f8d0 0404 	ldr.w	r0, [r0, #1028]	; 0x404
 80065ea:	f8d3 2208 	ldr.w	r2, [r3, #520]	; 0x208
 80065ee:	f7ff bb33 	b.w	8005c58 <USBD_LL_DataOutStage>

080065f2 <HAL_PCD_DataInStageCallback>:
 80065f2:	231c      	movs	r3, #28
 80065f4:	fb03 0301 	mla	r3, r3, r1, r0
 80065f8:	f8d0 0404 	ldr.w	r0, [r0, #1028]	; 0x404
 80065fc:	6c9a      	ldr	r2, [r3, #72]	; 0x48
 80065fe:	f7ff bb5b 	b.w	8005cb8 <USBD_LL_DataInStage>

08006602 <HAL_PCD_SOFCallback>:
 8006602:	f8d0 0404 	ldr.w	r0, [r0, #1028]	; 0x404
 8006606:	f7ff bbed 	b.w	8005de4 <USBD_LL_SOF>

0800660a <HAL_PCD_ResetCallback>:
 800660a:	68c1      	ldr	r1, [r0, #12]
 800660c:	b510      	push	{r4, lr}
 800660e:	4604      	mov	r4, r0
 8006610:	b121      	cbz	r1, 800661c <HAL_PCD_ResetCallback+0x12>
 8006612:	2902      	cmp	r1, #2
 8006614:	d001      	beq.n	800661a <HAL_PCD_ResetCallback+0x10>
 8006616:	f7fb fb93 	bl	8001d40 <Error_Handler>
 800661a:	2101      	movs	r1, #1
 800661c:	f8d4 0404 	ldr.w	r0, [r4, #1028]	; 0x404
 8006620:	f7ff fbc8 	bl	8005db4 <USBD_LL_SetSpeed>
 8006624:	f8d4 0404 	ldr.w	r0, [r4, #1028]	; 0x404
 8006628:	e8bd 4010 	ldmia.w	sp!, {r4, lr}
 800662c:	f7ff bb96 	b.w	8005d5c <USBD_LL_Reset>

08006630 <HAL_PCD_SuspendCallback>:
 8006630:	b510      	push	{r4, lr}
 8006632:	4604      	mov	r4, r0
 8006634:	f8d0 0404 	ldr.w	r0, [r0, #1028]	; 0x404
 8006638:	f7ff fbbf 	bl	8005dba <USBD_LL_Suspend>
 800663c:	6822      	ldr	r2, [r4, #0]
 800663e:	f8d2 3e00 	ldr.w	r3, [r2, #3584]	; 0xe00
 8006642:	f043 0301 	orr.w	r3, r3, #1
 8006646:	f8c2 3e00 	str.w	r3, [r2, #3584]	; 0xe00
 800664a:	6a23      	ldr	r3, [r4, #32]
 800664c:	b123      	cbz	r3, 8006658 <HAL_PCD_SuspendCallback+0x28>
 800664e:	4a03      	ldr	r2, [pc, #12]	; (800665c <HAL_PCD_SuspendCallback+0x2c>)
 8006650:	6913      	ldr	r3, [r2, #16]
 8006652:	f043 0306 	orr.w	r3, r3, #6
 8006656:	6113      	str	r3, [r2, #16]
 8006658:	bd10      	pop	{r4, pc}
 800665a:	bf00      	nop
 800665c:	e000ed00 	.word	0xe000ed00

08006660 <HAL_PCD_ResumeCallback>:
 8006660:	f8d0 0404 	ldr.w	r0, [r0, #1028]	; 0x404
 8006664:	f7ff bbb3 	b.w	8005dce <USBD_LL_Resume>

08006668 <HAL_PCD_ISOOUTIncompleteCallback>:
 8006668:	f8d0 0404 	ldr.w	r0, [r0, #1028]	; 0x404
 800666c:	f7ff bbdc 	b.w	8005e28 <USBD_LL_IsoOUTIncomplete>

08006670 <HAL_PCD_ISOINIncompleteCallback>:
 8006670:	f8d0 0404 	ldr.w	r0, [r0, #1028]	; 0x404
 8006674:	f7ff bbc7 	b.w	8005e06 <USBD_LL_IsoINIncomplete>

08006678 <HAL_PCD_ConnectCallback>:
 8006678:	f8d0 0404 	ldr.w	r0, [r0, #1028]	; 0x404
 800667c:	f7ff bbe5 	b.w	8005e4a <USBD_LL_DevConnected>

08006680 <HAL_PCD_DisconnectCallback>:
 8006680:	f8d0 0404 	ldr.w	r0, [r0, #1028]	; 0x404
 8006684:	f7ff bbe3 	b.w	8005e4e <USBD_LL_DevDisconnected>

08006688 <USBD_LL_Init>:
 8006688:	b508      	push	{r3, lr}
 800668a:	7803      	ldrb	r3, [r0, #0]
 800668c:	4602      	mov	r2, r0
 800668e:	bb2b      	cbnz	r3, 80066dc <USBD_LL_Init+0x54>
 8006690:	4813      	ldr	r0, [pc, #76]	; (80066e0 <USBD_LL_Init+0x58>)
 8006692:	f04f 41a0 	mov.w	r1, #1342177280	; 0x50000000
 8006696:	f8c0 2404 	str.w	r2, [r0, #1028]	; 0x404
 800669a:	f8c2 02c4 	str.w	r0, [r2, #708]	; 0x2c4
 800669e:	2206      	movs	r2, #6
 80066a0:	e9c0 1200 	strd	r1, r2, [r0]
 80066a4:	2202      	movs	r2, #2
 80066a6:	e9c0 2303 	strd	r2, r3, [r0, #12]
 80066aa:	e9c0 2306 	strd	r2, r3, [r0, #24]
 80066ae:	e9c0 3308 	strd	r3, r3, [r0, #32]
 80066b2:	e9c0 330b 	strd	r3, r3, [r0, #44]	; 0x2c
 80066b6:	f7fc fbb8 	bl	8002e2a <HAL_PCD_Init>
 80066ba:	b108      	cbz	r0, 80066c0 <USBD_LL_Init+0x38>
 80066bc:	f7fb fb40 	bl	8001d40 <Error_Handler>
 80066c0:	2180      	movs	r1, #128	; 0x80
 80066c2:	4807      	ldr	r0, [pc, #28]	; (80066e0 <USBD_LL_Init+0x58>)
 80066c4:	f7fd f87f 	bl	80037c6 <HAL_PCDEx_SetRxFiFo>
 80066c8:	2240      	movs	r2, #64	; 0x40
 80066ca:	2100      	movs	r1, #0
 80066cc:	4804      	ldr	r0, [pc, #16]	; (80066e0 <USBD_LL_Init+0x58>)
 80066ce:	f7fd f85a 	bl	8003786 <HAL_PCDEx_SetTxFiFo>
 80066d2:	4803      	ldr	r0, [pc, #12]	; (80066e0 <USBD_LL_Init+0x58>)
 80066d4:	2280      	movs	r2, #128	; 0x80
 80066d6:	2101      	movs	r1, #1
 80066d8:	f7fd f855 	bl	8003786 <HAL_PCDEx_SetTxFiFo>
 80066dc:	2000      	movs	r0, #0
 80066de:	bd08      	pop	{r3, pc}
 80066e0:	20001e34 	.word	0x20001e34

080066e4 <USBD_LL_Start>:
 80066e4:	b508      	push	{r3, lr}
 80066e6:	f8d0 02c4 	ldr.w	r0, [r0, #708]	; 0x2c4
 80066ea:	f7fc fc29 	bl	8002f40 <HAL_PCD_Start>
 80066ee:	2803      	cmp	r0, #3
 80066f0:	bf96      	itet	ls
 80066f2:	4b02      	ldrls	r3, [pc, #8]	; (80066fc <USBD_LL_Start+0x18>)
 80066f4:	2003      	movhi	r0, #3
 80066f6:	5c18      	ldrbls	r0, [r3, r0]
 80066f8:	bd08      	pop	{r3, pc}
 80066fa:	bf00      	nop
 80066fc:	08009661 	.word	0x08009661

08006700 <USBD_LL_OpenEP>:
 8006700:	b510      	push	{r4, lr}
 8006702:	4614      	mov	r4, r2
 8006704:	f8d0 02c4 	ldr.w	r0, [r0, #708]	; 0x2c4
 8006708:	461a      	mov	r2, r3
 800670a:	4623      	mov	r3, r4
 800670c:	f7fc ff1a 	bl	8003544 <HAL_PCD_EP_Open>
 8006710:	2803      	cmp	r0, #3
 8006712:	bf96      	itet	ls
 8006714:	4b01      	ldrls	r3, [pc, #4]	; (800671c <USBD_LL_OpenEP+0x1c>)
 8006716:	2003      	movhi	r0, #3
 8006718:	5c18      	ldrbls	r0, [r3, r0]
 800671a:	bd10      	pop	{r4, pc}
 800671c:	08009661 	.word	0x08009661

08006720 <USBD_LL_CloseEP>:
 8006720:	b508      	push	{r3, lr}
 8006722:	f8d0 02c4 	ldr.w	r0, [r0, #708]	; 0x2c4
 8006726:	f7fc ff45 	bl	80035b4 <HAL_PCD_EP_Close>
 800672a:	2803      	cmp	r0, #3
 800672c:	bf96      	itet	ls
 800672e:	4b02      	ldrls	r3, [pc, #8]	; (8006738 <USBD_LL_CloseEP+0x18>)
 8006730:	2003      	movhi	r0, #3
 8006732:	5c18      	ldrbls	r0, [r3, r0]
 8006734:	bd08      	pop	{r3, pc}
 8006736:	bf00      	nop
 8006738:	08009661 	.word	0x08009661

0800673c <USBD_LL_StallEP>:
 800673c:	b508      	push	{r3, lr}
 800673e:	f8d0 02c4 	ldr.w	r0, [r0, #708]	; 0x2c4
 8006742:	f7fc ffb2 	bl	80036aa <HAL_PCD_EP_SetStall>
 8006746:	2803      	cmp	r0, #3
 8006748:	bf96      	itet	ls
 800674a:	4b02      	ldrls	r3, [pc, #8]	; (8006754 <USBD_LL_StallEP+0x18>)
 800674c:	2003      	movhi	r0, #3
 800674e:	5c18      	ldrbls	r0, [r3, r0]
 8006750:	bd08      	pop	{r3, pc}
 8006752:	bf00      	nop
 8006754:	08009661 	.word	0x08009661

08006758 <USBD_LL_ClearStallEP>:
 8006758:	b508      	push	{r3, lr}
 800675a:	f8d0 02c4 	ldr.w	r0, [r0, #708]	; 0x2c4
 800675e:	f7fc ffdc 	bl	800371a <HAL_PCD_EP_ClrStall>
 8006762:	2803      	cmp	r0, #3
 8006764:	bf96      	itet	ls
 8006766:	4b02      	ldrls	r3, [pc, #8]	; (8006770 <USBD_LL_ClearStallEP+0x18>)
 8006768:	2003      	movhi	r0, #3
 800676a:	5c18      	ldrbls	r0, [r3, r0]
 800676c:	bd08      	pop	{r3, pc}
 800676e:	bf00      	nop
 8006770:	08009661 	.word	0x08009661

08006774 <USBD_LL_IsStallEP>:
 8006774:	f011 0f80 	tst.w	r1, #128	; 0x80
 8006778:	f8d0 32c4 	ldr.w	r3, [r0, #708]	; 0x2c4
 800677c:	f04f 021c 	mov.w	r2, #28
 8006780:	bf1b      	ittet	ne
 8006782:	f001 017f 	andne.w	r1, r1, #127	; 0x7f
 8006786:	fb02 3101 	mlane	r1, r2, r1, r3
 800678a:	fb02 3101 	mlaeq	r1, r2, r1, r3
 800678e:	f891 003e 	ldrbne.w	r0, [r1, #62]	; 0x3e
 8006792:	bf08      	it	eq
 8006794:	f891 01fe 	ldrbeq.w	r0, [r1, #510]	; 0x1fe
 8006798:	4770      	bx	lr
	...

0800679c <USBD_LL_SetUSBAddress>:
 800679c:	b508      	push	{r3, lr}
 800679e:	f8d0 02c4 	ldr.w	r0, [r0, #708]	; 0x2c4
 80067a2:	f7fc febb 	bl	800351c <HAL_PCD_SetAddress>
 80067a6:	2803      	cmp	r0, #3
 80067a8:	bf96      	itet	ls
 80067aa:	4b02      	ldrls	r3, [pc, #8]	; (80067b4 <USBD_LL_SetUSBAddress+0x18>)
 80067ac:	2003      	movhi	r0, #3
 80067ae:	5c18      	ldrbls	r0, [r3, r0]
 80067b0:	bd08      	pop	{r3, pc}
 80067b2:	bf00      	nop
 80067b4:	08009661 	.word	0x08009661

080067b8 <USBD_LL_Transmit>:
 80067b8:	b508      	push	{r3, lr}
 80067ba:	f8d0 02c4 	ldr.w	r0, [r0, #708]	; 0x2c4
 80067be:	f7fc ff54 	bl	800366a <HAL_PCD_EP_Transmit>
 80067c2:	2803      	cmp	r0, #3
 80067c4:	bf96      	itet	ls
 80067c6:	4b02      	ldrls	r3, [pc, #8]	; (80067d0 <USBD_LL_Transmit+0x18>)
 80067c8:	2003      	movhi	r0, #3
 80067ca:	5c18      	ldrbls	r0, [r3, r0]
 80067cc:	bd08      	pop	{r3, pc}
 80067ce:	bf00      	nop
 80067d0:	08009661 	.word	0x08009661

080067d4 <USBD_LL_PrepareReceive>:
 80067d4:	b508      	push	{r3, lr}
 80067d6:	f8d0 02c4 	ldr.w	r0, [r0, #708]	; 0x2c4
 80067da:	f7fc ff1a 	bl	8003612 <HAL_PCD_EP_Receive>
 80067de:	2803      	cmp	r0, #3
 80067e0:	bf96      	itet	ls
 80067e2:	4b02      	ldrls	r3, [pc, #8]	; (80067ec <USBD_LL_PrepareReceive+0x18>)
 80067e4:	2003      	movhi	r0, #3
 80067e6:	5c18      	ldrbls	r0, [r3, r0]
 80067e8:	bd08      	pop	{r3, pc}
 80067ea:	bf00      	nop
 80067ec:	08009661 	.word	0x08009661

080067f0 <USBD_LL_GetRxDataSize>:
 80067f0:	f8d0 02c4 	ldr.w	r0, [r0, #708]	; 0x2c4
 80067f4:	f7fc bf31 	b.w	800365a <HAL_PCD_EP_GetRxCount>

080067f8 <HAL_PCDEx_LPM_Callback>:
 80067f8:	b510      	push	{r4, lr}
 80067fa:	4604      	mov	r4, r0
 80067fc:	b111      	cbz	r1, 8006804 <HAL_PCDEx_LPM_Callback+0xc>
 80067fe:	2901      	cmp	r1, #1
 8006800:	d016      	beq.n	8006830 <HAL_PCDEx_LPM_Callback+0x38>
 8006802:	bd10      	pop	{r4, pc}
 8006804:	6a03      	ldr	r3, [r0, #32]
 8006806:	b133      	cbz	r3, 8006816 <HAL_PCDEx_LPM_Callback+0x1e>
 8006808:	f7fb f9da 	bl	8001bc0 <SystemClock_Config>
 800680c:	4a12      	ldr	r2, [pc, #72]	; (8006858 <HAL_PCDEx_LPM_Callback+0x60>)
 800680e:	6913      	ldr	r3, [r2, #16]
 8006810:	f023 0306 	bic.w	r3, r3, #6
 8006814:	6113      	str	r3, [r2, #16]
 8006816:	6822      	ldr	r2, [r4, #0]
 8006818:	f8d4 0404 	ldr.w	r0, [r4, #1028]	; 0x404
 800681c:	f8d2 3e00 	ldr.w	r3, [r2, #3584]	; 0xe00
 8006820:	f023 0301 	bic.w	r3, r3, #1
 8006824:	e8bd 4010 	ldmia.w	sp!, {r4, lr}
 8006828:	f8c2 3e00 	str.w	r3, [r2, #3584]	; 0xe00
 800682c:	f7ff bacf 	b.w	8005dce <USBD_LL_Resume>
 8006830:	6802      	ldr	r2, [r0, #0]
 8006832:	f8d0 0404 	ldr.w	r0, [r0, #1028]	; 0x404
 8006836:	f8d2 3e00 	ldr.w	r3, [r2, #3584]	; 0xe00
 800683a:	f043 0301 	orr.w	r3, r3, #1
 800683e:	f8c2 3e00 	str.w	r3, [r2, #3584]	; 0xe00
 8006842:	f7ff faba 	bl	8005dba <USBD_LL_Suspend>
 8006846:	6a23      	ldr	r3, [r4, #32]
 8006848:	2b00      	cmp	r3, #0
 800684a:	d0da      	beq.n	8006802 <HAL_PCDEx_LPM_Callback+0xa>
 800684c:	4a02      	ldr	r2, [pc, #8]	; (8006858 <HAL_PCDEx_LPM_Callback+0x60>)
 800684e:	6913      	ldr	r3, [r2, #16]
 8006850:	f043 0306 	orr.w	r3, r3, #6
 8006854:	6113      	str	r3, [r2, #16]
 8006856:	e7d4      	b.n	8006802 <HAL_PCDEx_LPM_Callback+0xa>
 8006858:	e000ed00 	.word	0xe000ed00

0800685c <USBD_static_malloc>:
 800685c:	4800      	ldr	r0, [pc, #0]	; (8006860 <USBD_static_malloc+0x4>)
 800685e:	4770      	bx	lr
 8006860:	20000388 	.word	0x20000388

08006864 <USBD_static_free>:
 8006864:	4770      	bx	lr
	...

08006868 <__errno>:
 8006868:	4b01      	ldr	r3, [pc, #4]	; (8006870 <__errno+0x8>)
 800686a:	6818      	ldr	r0, [r3, #0]
 800686c:	4770      	bx	lr
 800686e:	bf00      	nop
 8006870:	20000190 	.word	0x20000190

08006874 <__libc_init_array>:
 8006874:	b570      	push	{r4, r5, r6, lr}
 8006876:	4d0d      	ldr	r5, [pc, #52]	; (80068ac <__libc_init_array+0x38>)
 8006878:	4c0d      	ldr	r4, [pc, #52]	; (80068b0 <__libc_init_array+0x3c>)
 800687a:	1b64      	subs	r4, r4, r5
 800687c:	10a4      	asrs	r4, r4, #2
 800687e:	2600      	movs	r6, #0
 8006880:	42a6      	cmp	r6, r4
 8006882:	d109      	bne.n	8006898 <__libc_init_array+0x24>
 8006884:	4d0b      	ldr	r5, [pc, #44]	; (80068b4 <__libc_init_array+0x40>)
 8006886:	4c0c      	ldr	r4, [pc, #48]	; (80068b8 <__libc_init_array+0x44>)
 8006888:	f002 feb2 	bl	80095f0 <_init>
 800688c:	1b64      	subs	r4, r4, r5
 800688e:	10a4      	asrs	r4, r4, #2
 8006890:	2600      	movs	r6, #0
 8006892:	42a6      	cmp	r6, r4
 8006894:	d105      	bne.n	80068a2 <__libc_init_array+0x2e>
 8006896:	bd70      	pop	{r4, r5, r6, pc}
 8006898:	f855 3b04 	ldr.w	r3, [r5], #4
 800689c:	4798      	blx	r3
 800689e:	3601      	adds	r6, #1
 80068a0:	e7ee      	b.n	8006880 <__libc_init_array+0xc>
 80068a2:	f855 3b04 	ldr.w	r3, [r5], #4
 80068a6:	4798      	blx	r3
 80068a8:	3601      	adds	r6, #1
 80068aa:	e7f2      	b.n	8006892 <__libc_init_array+0x1e>
 80068ac:	08009a54 	.word	0x08009a54
 80068b0:	08009a54 	.word	0x08009a54
 80068b4:	08009a54 	.word	0x08009a54
 80068b8:	08009a58 	.word	0x08009a58

080068bc <memcpy>:
 80068bc:	440a      	add	r2, r1
 80068be:	4291      	cmp	r1, r2
 80068c0:	f100 33ff 	add.w	r3, r0, #4294967295
 80068c4:	d100      	bne.n	80068c8 <memcpy+0xc>
 80068c6:	4770      	bx	lr
 80068c8:	b510      	push	{r4, lr}
 80068ca:	f811 4b01 	ldrb.w	r4, [r1], #1
 80068ce:	f803 4f01 	strb.w	r4, [r3, #1]!
 80068d2:	4291      	cmp	r1, r2
 80068d4:	d1f9      	bne.n	80068ca <memcpy+0xe>
 80068d6:	bd10      	pop	{r4, pc}

080068d8 <memset>:
 80068d8:	4402      	add	r2, r0
 80068da:	4603      	mov	r3, r0
 80068dc:	4293      	cmp	r3, r2
 80068de:	d100      	bne.n	80068e2 <memset+0xa>
 80068e0:	4770      	bx	lr
 80068e2:	f803 1b01 	strb.w	r1, [r3], #1
 80068e6:	e7f9      	b.n	80068dc <memset+0x4>

080068e8 <__cvt>:
 80068e8:	e92d 47ff 	stmdb	sp!, {r0, r1, r2, r3, r4, r5, r6, r7, r8, r9, sl, lr}
 80068ec:	ec55 4b10 	vmov	r4, r5, d0
 80068f0:	2d00      	cmp	r5, #0
 80068f2:	460e      	mov	r6, r1
 80068f4:	4619      	mov	r1, r3
 80068f6:	462b      	mov	r3, r5
 80068f8:	bfbb      	ittet	lt
 80068fa:	f105 4300 	addlt.w	r3, r5, #2147483648	; 0x80000000
 80068fe:	461d      	movlt	r5, r3
 8006900:	2300      	movge	r3, #0
 8006902:	232d      	movlt	r3, #45	; 0x2d
 8006904:	700b      	strb	r3, [r1, #0]
 8006906:	9b0d      	ldr	r3, [sp, #52]	; 0x34
 8006908:	f8dd a030 	ldr.w	sl, [sp, #48]	; 0x30
 800690c:	4691      	mov	r9, r2
 800690e:	f023 0820 	bic.w	r8, r3, #32
 8006912:	bfbc      	itt	lt
 8006914:	4622      	movlt	r2, r4
 8006916:	4614      	movlt	r4, r2
 8006918:	f1b8 0f46 	cmp.w	r8, #70	; 0x46
 800691c:	d005      	beq.n	800692a <__cvt+0x42>
 800691e:	f1b8 0f45 	cmp.w	r8, #69	; 0x45
 8006922:	d100      	bne.n	8006926 <__cvt+0x3e>
 8006924:	3601      	adds	r6, #1
 8006926:	2102      	movs	r1, #2
 8006928:	e000      	b.n	800692c <__cvt+0x44>
 800692a:	2103      	movs	r1, #3
 800692c:	ab03      	add	r3, sp, #12
 800692e:	9301      	str	r3, [sp, #4]
 8006930:	ab02      	add	r3, sp, #8
 8006932:	9300      	str	r3, [sp, #0]
 8006934:	ec45 4b10 	vmov	d0, r4, r5
 8006938:	4653      	mov	r3, sl
 800693a:	4632      	mov	r2, r6
 800693c:	f000 fce4 	bl	8007308 <_dtoa_r>
 8006940:	f1b8 0f47 	cmp.w	r8, #71	; 0x47
 8006944:	4607      	mov	r7, r0
 8006946:	d102      	bne.n	800694e <__cvt+0x66>
 8006948:	f019 0f01 	tst.w	r9, #1
 800694c:	d022      	beq.n	8006994 <__cvt+0xac>
 800694e:	f1b8 0f46 	cmp.w	r8, #70	; 0x46
 8006952:	eb07 0906 	add.w	r9, r7, r6
 8006956:	d110      	bne.n	800697a <__cvt+0x92>
 8006958:	783b      	ldrb	r3, [r7, #0]
 800695a:	2b30      	cmp	r3, #48	; 0x30
 800695c:	d10a      	bne.n	8006974 <__cvt+0x8c>
 800695e:	2200      	movs	r2, #0
 8006960:	2300      	movs	r3, #0
 8006962:	4620      	mov	r0, r4
 8006964:	4629      	mov	r1, r5
 8006966:	f7fa f8cf 	bl	8000b08 <__aeabi_dcmpeq>
 800696a:	b918      	cbnz	r0, 8006974 <__cvt+0x8c>
 800696c:	f1c6 0601 	rsb	r6, r6, #1
 8006970:	f8ca 6000 	str.w	r6, [sl]
 8006974:	f8da 3000 	ldr.w	r3, [sl]
 8006978:	4499      	add	r9, r3
 800697a:	2200      	movs	r2, #0
 800697c:	2300      	movs	r3, #0
 800697e:	4620      	mov	r0, r4
 8006980:	4629      	mov	r1, r5
 8006982:	f7fa f8c1 	bl	8000b08 <__aeabi_dcmpeq>
 8006986:	b108      	cbz	r0, 800698c <__cvt+0xa4>
 8006988:	f8cd 900c 	str.w	r9, [sp, #12]
 800698c:	2230      	movs	r2, #48	; 0x30
 800698e:	9b03      	ldr	r3, [sp, #12]
 8006990:	454b      	cmp	r3, r9
 8006992:	d307      	bcc.n	80069a4 <__cvt+0xbc>
 8006994:	9b03      	ldr	r3, [sp, #12]
 8006996:	9a0e      	ldr	r2, [sp, #56]	; 0x38
 8006998:	1bdb      	subs	r3, r3, r7
 800699a:	4638      	mov	r0, r7
 800699c:	6013      	str	r3, [r2, #0]
 800699e:	b004      	add	sp, #16
 80069a0:	e8bd 87f0 	ldmia.w	sp!, {r4, r5, r6, r7, r8, r9, sl, pc}
 80069a4:	1c59      	adds	r1, r3, #1
 80069a6:	9103      	str	r1, [sp, #12]
 80069a8:	701a      	strb	r2, [r3, #0]
 80069aa:	e7f0      	b.n	800698e <__cvt+0xa6>

080069ac <__exponent>:
 80069ac:	b5f7      	push	{r0, r1, r2, r4, r5, r6, r7, lr}
 80069ae:	4603      	mov	r3, r0
 80069b0:	2900      	cmp	r1, #0
 80069b2:	bfb8      	it	lt
 80069b4:	4249      	neglt	r1, r1
 80069b6:	f803 2b02 	strb.w	r2, [r3], #2
 80069ba:	bfb4      	ite	lt
 80069bc:	222d      	movlt	r2, #45	; 0x2d
 80069be:	222b      	movge	r2, #43	; 0x2b
 80069c0:	2909      	cmp	r1, #9
 80069c2:	7042      	strb	r2, [r0, #1]
 80069c4:	dd2a      	ble.n	8006a1c <__exponent+0x70>
 80069c6:	f10d 0407 	add.w	r4, sp, #7
 80069ca:	46a4      	mov	ip, r4
 80069cc:	270a      	movs	r7, #10
 80069ce:	46a6      	mov	lr, r4
 80069d0:	460a      	mov	r2, r1
 80069d2:	fb91 f6f7 	sdiv	r6, r1, r7
 80069d6:	fb07 1516 	mls	r5, r7, r6, r1
 80069da:	3530      	adds	r5, #48	; 0x30
 80069dc:	2a63      	cmp	r2, #99	; 0x63
 80069de:	f104 34ff 	add.w	r4, r4, #4294967295
 80069e2:	f80e 5c01 	strb.w	r5, [lr, #-1]
 80069e6:	4631      	mov	r1, r6
 80069e8:	dcf1      	bgt.n	80069ce <__exponent+0x22>
 80069ea:	3130      	adds	r1, #48	; 0x30
 80069ec:	f1ae 0502 	sub.w	r5, lr, #2
 80069f0:	f804 1c01 	strb.w	r1, [r4, #-1]
 80069f4:	1c44      	adds	r4, r0, #1
 80069f6:	4629      	mov	r1, r5
 80069f8:	4561      	cmp	r1, ip
 80069fa:	d30a      	bcc.n	8006a12 <__exponent+0x66>
 80069fc:	f10d 0209 	add.w	r2, sp, #9
 8006a00:	eba2 020e 	sub.w	r2, r2, lr
 8006a04:	4565      	cmp	r5, ip
 8006a06:	bf88      	it	hi
 8006a08:	2200      	movhi	r2, #0
 8006a0a:	4413      	add	r3, r2
 8006a0c:	1a18      	subs	r0, r3, r0
 8006a0e:	b003      	add	sp, #12
 8006a10:	bdf0      	pop	{r4, r5, r6, r7, pc}
 8006a12:	f811 2b01 	ldrb.w	r2, [r1], #1
 8006a16:	f804 2f01 	strb.w	r2, [r4, #1]!
 8006a1a:	e7ed      	b.n	80069f8 <__exponent+0x4c>
 8006a1c:	2330      	movs	r3, #48	; 0x30
 8006a1e:	3130      	adds	r1, #48	; 0x30
 8006a20:	7083      	strb	r3, [r0, #2]
 8006a22:	70c1      	strb	r1, [r0, #3]
 8006a24:	1d03      	adds	r3, r0, #4
 8006a26:	e7f1      	b.n	8006a0c <__exponent+0x60>

08006a28 <_printf_float>:
 8006a28:	e92d 4ff0 	stmdb	sp!, {r4, r5, r6, r7, r8, r9, sl, fp, lr}
 8006a2c:	ed2d 8b02 	vpush	{d8}
 8006a30:	b08d      	sub	sp, #52	; 0x34
 8006a32:	460c      	mov	r4, r1
 8006a34:	f8dd 8060 	ldr.w	r8, [sp, #96]	; 0x60
 8006a38:	4616      	mov	r6, r2
 8006a3a:	461f      	mov	r7, r3
 8006a3c:	4605      	mov	r5, r0
 8006a3e:	f001 fb45 	bl	80080cc <_localeconv_r>
 8006a42:	f8d0 a000 	ldr.w	sl, [r0]
 8006a46:	4650      	mov	r0, sl
 8006a48:	f7f9 fbe2 	bl	8000210 <strlen>
 8006a4c:	2300      	movs	r3, #0
 8006a4e:	930a      	str	r3, [sp, #40]	; 0x28
 8006a50:	6823      	ldr	r3, [r4, #0]
 8006a52:	9305      	str	r3, [sp, #20]
 8006a54:	f8d8 3000 	ldr.w	r3, [r8]
 8006a58:	f894 b018 	ldrb.w	fp, [r4, #24]
 8006a5c:	3307      	adds	r3, #7
 8006a5e:	f023 0307 	bic.w	r3, r3, #7
 8006a62:	f103 0208 	add.w	r2, r3, #8
 8006a66:	f8c8 2000 	str.w	r2, [r8]
 8006a6a:	e9d3 2300 	ldrd	r2, r3, [r3]
 8006a6e:	e9c4 2312 	strd	r2, r3, [r4, #72]	; 0x48
 8006a72:	e9d4 8912 	ldrd	r8, r9, [r4, #72]	; 0x48
 8006a76:	f029 4300 	bic.w	r3, r9, #2147483648	; 0x80000000
 8006a7a:	9307      	str	r3, [sp, #28]
 8006a7c:	f8cd 8018 	str.w	r8, [sp, #24]
 8006a80:	ee08 0a10 	vmov	s16, r0
 8006a84:	4b9f      	ldr	r3, [pc, #636]	; (8006d04 <_printf_float+0x2dc>)
 8006a86:	e9dd 0106 	ldrd	r0, r1, [sp, #24]
 8006a8a:	f04f 32ff 	mov.w	r2, #4294967295
 8006a8e:	f7fa f86d 	bl	8000b6c <__aeabi_dcmpun>
 8006a92:	bb88      	cbnz	r0, 8006af8 <_printf_float+0xd0>
 8006a94:	e9dd 0106 	ldrd	r0, r1, [sp, #24]
 8006a98:	4b9a      	ldr	r3, [pc, #616]	; (8006d04 <_printf_float+0x2dc>)
 8006a9a:	f04f 32ff 	mov.w	r2, #4294967295
 8006a9e:	f7fa f847 	bl	8000b30 <__aeabi_dcmple>
 8006aa2:	bb48      	cbnz	r0, 8006af8 <_printf_float+0xd0>
 8006aa4:	2200      	movs	r2, #0
 8006aa6:	2300      	movs	r3, #0
 8006aa8:	4640      	mov	r0, r8
 8006aaa:	4649      	mov	r1, r9
 8006aac:	f7fa f836 	bl	8000b1c <__aeabi_dcmplt>
 8006ab0:	b110      	cbz	r0, 8006ab8 <_printf_float+0x90>
 8006ab2:	232d      	movs	r3, #45	; 0x2d
 8006ab4:	f884 3043 	strb.w	r3, [r4, #67]	; 0x43
 8006ab8:	4b93      	ldr	r3, [pc, #588]	; (8006d08 <_printf_float+0x2e0>)
 8006aba:	4894      	ldr	r0, [pc, #592]	; (8006d0c <_printf_float+0x2e4>)
 8006abc:	f1bb 0f47 	cmp.w	fp, #71	; 0x47
 8006ac0:	bf94      	ite	ls
 8006ac2:	4698      	movls	r8, r3
 8006ac4:	4680      	movhi	r8, r0
 8006ac6:	2303      	movs	r3, #3
 8006ac8:	6123      	str	r3, [r4, #16]
 8006aca:	9b05      	ldr	r3, [sp, #20]
 8006acc:	f023 0204 	bic.w	r2, r3, #4
 8006ad0:	6022      	str	r2, [r4, #0]
 8006ad2:	f04f 0900 	mov.w	r9, #0
 8006ad6:	9700      	str	r7, [sp, #0]
 8006ad8:	4633      	mov	r3, r6
 8006ada:	aa0b      	add	r2, sp, #44	; 0x2c
 8006adc:	4621      	mov	r1, r4
 8006ade:	4628      	mov	r0, r5
 8006ae0:	f000 f9d8 	bl	8006e94 <_printf_common>
 8006ae4:	3001      	adds	r0, #1
 8006ae6:	f040 8090 	bne.w	8006c0a <_printf_float+0x1e2>
 8006aea:	f04f 30ff 	mov.w	r0, #4294967295
 8006aee:	b00d      	add	sp, #52	; 0x34
 8006af0:	ecbd 8b02 	vpop	{d8}
 8006af4:	e8bd 8ff0 	ldmia.w	sp!, {r4, r5, r6, r7, r8, r9, sl, fp, pc}
 8006af8:	4642      	mov	r2, r8
 8006afa:	464b      	mov	r3, r9
 8006afc:	4640      	mov	r0, r8
 8006afe:	4649      	mov	r1, r9
 8006b00:	f7fa f834 	bl	8000b6c <__aeabi_dcmpun>
 8006b04:	b140      	cbz	r0, 8006b18 <_printf_float+0xf0>
 8006b06:	464b      	mov	r3, r9
 8006b08:	2b00      	cmp	r3, #0
 8006b0a:	bfbc      	itt	lt
 8006b0c:	232d      	movlt	r3, #45	; 0x2d
 8006b0e:	f884 3043 	strblt.w	r3, [r4, #67]	; 0x43
 8006b12:	487f      	ldr	r0, [pc, #508]	; (8006d10 <_printf_float+0x2e8>)
 8006b14:	4b7f      	ldr	r3, [pc, #508]	; (8006d14 <_printf_float+0x2ec>)
 8006b16:	e7d1      	b.n	8006abc <_printf_float+0x94>
 8006b18:	6863      	ldr	r3, [r4, #4]
 8006b1a:	f00b 02df 	and.w	r2, fp, #223	; 0xdf
 8006b1e:	9206      	str	r2, [sp, #24]
 8006b20:	1c5a      	adds	r2, r3, #1
 8006b22:	d13f      	bne.n	8006ba4 <_printf_float+0x17c>
 8006b24:	2306      	movs	r3, #6
 8006b26:	6063      	str	r3, [r4, #4]
 8006b28:	9b05      	ldr	r3, [sp, #20]
 8006b2a:	6861      	ldr	r1, [r4, #4]
 8006b2c:	f443 6280 	orr.w	r2, r3, #1024	; 0x400
 8006b30:	2300      	movs	r3, #0
 8006b32:	9303      	str	r3, [sp, #12]
 8006b34:	ab0a      	add	r3, sp, #40	; 0x28
 8006b36:	e9cd b301 	strd	fp, r3, [sp, #4]
 8006b3a:	ab09      	add	r3, sp, #36	; 0x24
 8006b3c:	ec49 8b10 	vmov	d0, r8, r9
 8006b40:	9300      	str	r3, [sp, #0]
 8006b42:	6022      	str	r2, [r4, #0]
 8006b44:	f10d 0323 	add.w	r3, sp, #35	; 0x23
 8006b48:	4628      	mov	r0, r5
 8006b4a:	f7ff fecd 	bl	80068e8 <__cvt>
 8006b4e:	9b06      	ldr	r3, [sp, #24]
 8006b50:	9909      	ldr	r1, [sp, #36]	; 0x24
 8006b52:	2b47      	cmp	r3, #71	; 0x47
 8006b54:	4680      	mov	r8, r0
 8006b56:	d108      	bne.n	8006b6a <_printf_float+0x142>
 8006b58:	1cc8      	adds	r0, r1, #3
 8006b5a:	db02      	blt.n	8006b62 <_printf_float+0x13a>
 8006b5c:	6863      	ldr	r3, [r4, #4]
 8006b5e:	4299      	cmp	r1, r3
 8006b60:	dd41      	ble.n	8006be6 <_printf_float+0x1be>
 8006b62:	f1ab 0b02 	sub.w	fp, fp, #2
 8006b66:	fa5f fb8b 	uxtb.w	fp, fp
 8006b6a:	f1bb 0f65 	cmp.w	fp, #101	; 0x65
 8006b6e:	d820      	bhi.n	8006bb2 <_printf_float+0x18a>
 8006b70:	3901      	subs	r1, #1
 8006b72:	465a      	mov	r2, fp
 8006b74:	f104 0050 	add.w	r0, r4, #80	; 0x50
 8006b78:	9109      	str	r1, [sp, #36]	; 0x24
 8006b7a:	f7ff ff17 	bl	80069ac <__exponent>
 8006b7e:	9a0a      	ldr	r2, [sp, #40]	; 0x28
 8006b80:	1813      	adds	r3, r2, r0
 8006b82:	2a01      	cmp	r2, #1
 8006b84:	4681      	mov	r9, r0
 8006b86:	6123      	str	r3, [r4, #16]
 8006b88:	dc02      	bgt.n	8006b90 <_printf_float+0x168>
 8006b8a:	6822      	ldr	r2, [r4, #0]
 8006b8c:	07d2      	lsls	r2, r2, #31
 8006b8e:	d501      	bpl.n	8006b94 <_printf_float+0x16c>
 8006b90:	3301      	adds	r3, #1
 8006b92:	6123      	str	r3, [r4, #16]
 8006b94:	f89d 3023 	ldrb.w	r3, [sp, #35]	; 0x23
 8006b98:	2b00      	cmp	r3, #0
 8006b9a:	d09c      	beq.n	8006ad6 <_printf_float+0xae>
 8006b9c:	232d      	movs	r3, #45	; 0x2d
 8006b9e:	f884 3043 	strb.w	r3, [r4, #67]	; 0x43
 8006ba2:	e798      	b.n	8006ad6 <_printf_float+0xae>
 8006ba4:	9a06      	ldr	r2, [sp, #24]
 8006ba6:	2a47      	cmp	r2, #71	; 0x47
 8006ba8:	d1be      	bne.n	8006b28 <_printf_float+0x100>
 8006baa:	2b00      	cmp	r3, #0
 8006bac:	d1bc      	bne.n	8006b28 <_printf_float+0x100>
 8006bae:	2301      	movs	r3, #1
 8006bb0:	e7b9      	b.n	8006b26 <_printf_float+0xfe>
 8006bb2:	f1bb 0f66 	cmp.w	fp, #102	; 0x66
 8006bb6:	d118      	bne.n	8006bea <_printf_float+0x1c2>
 8006bb8:	2900      	cmp	r1, #0
 8006bba:	6863      	ldr	r3, [r4, #4]
 8006bbc:	dd0b      	ble.n	8006bd6 <_printf_float+0x1ae>
 8006bbe:	6121      	str	r1, [r4, #16]
 8006bc0:	b913      	cbnz	r3, 8006bc8 <_printf_float+0x1a0>
 8006bc2:	6822      	ldr	r2, [r4, #0]
 8006bc4:	07d0      	lsls	r0, r2, #31
 8006bc6:	d502      	bpl.n	8006bce <_printf_float+0x1a6>
 8006bc8:	3301      	adds	r3, #1
 8006bca:	440b      	add	r3, r1
 8006bcc:	6123      	str	r3, [r4, #16]
 8006bce:	65a1      	str	r1, [r4, #88]	; 0x58
 8006bd0:	f04f 0900 	mov.w	r9, #0
 8006bd4:	e7de      	b.n	8006b94 <_printf_float+0x16c>
 8006bd6:	b913      	cbnz	r3, 8006bde <_printf_float+0x1b6>
 8006bd8:	6822      	ldr	r2, [r4, #0]
 8006bda:	07d2      	lsls	r2, r2, #31
 8006bdc:	d501      	bpl.n	8006be2 <_printf_float+0x1ba>
 8006bde:	3302      	adds	r3, #2
 8006be0:	e7f4      	b.n	8006bcc <_printf_float+0x1a4>
 8006be2:	2301      	movs	r3, #1
 8006be4:	e7f2      	b.n	8006bcc <_printf_float+0x1a4>
 8006be6:	f04f 0b67 	mov.w	fp, #103	; 0x67
 8006bea:	9b0a      	ldr	r3, [sp, #40]	; 0x28
 8006bec:	4299      	cmp	r1, r3
 8006bee:	db05      	blt.n	8006bfc <_printf_float+0x1d4>
 8006bf0:	6823      	ldr	r3, [r4, #0]
 8006bf2:	6121      	str	r1, [r4, #16]
 8006bf4:	07d8      	lsls	r0, r3, #31
 8006bf6:	d5ea      	bpl.n	8006bce <_printf_float+0x1a6>
 8006bf8:	1c4b      	adds	r3, r1, #1
 8006bfa:	e7e7      	b.n	8006bcc <_printf_float+0x1a4>
 8006bfc:	2900      	cmp	r1, #0
 8006bfe:	bfd4      	ite	le
 8006c00:	f1c1 0202 	rsble	r2, r1, #2
 8006c04:	2201      	movgt	r2, #1
 8006c06:	4413      	add	r3, r2
 8006c08:	e7e0      	b.n	8006bcc <_printf_float+0x1a4>
 8006c0a:	6823      	ldr	r3, [r4, #0]
 8006c0c:	055a      	lsls	r2, r3, #21
 8006c0e:	d407      	bmi.n	8006c20 <_printf_float+0x1f8>
 8006c10:	6923      	ldr	r3, [r4, #16]
 8006c12:	4642      	mov	r2, r8
 8006c14:	4631      	mov	r1, r6
 8006c16:	4628      	mov	r0, r5
 8006c18:	47b8      	blx	r7
 8006c1a:	3001      	adds	r0, #1
 8006c1c:	d12c      	bne.n	8006c78 <_printf_float+0x250>
 8006c1e:	e764      	b.n	8006aea <_printf_float+0xc2>
 8006c20:	f1bb 0f65 	cmp.w	fp, #101	; 0x65
 8006c24:	f240 80e0 	bls.w	8006de8 <_printf_float+0x3c0>
 8006c28:	e9d4 0112 	ldrd	r0, r1, [r4, #72]	; 0x48
 8006c2c:	2200      	movs	r2, #0
 8006c2e:	2300      	movs	r3, #0
 8006c30:	f7f9 ff6a 	bl	8000b08 <__aeabi_dcmpeq>
 8006c34:	2800      	cmp	r0, #0
 8006c36:	d034      	beq.n	8006ca2 <_printf_float+0x27a>
 8006c38:	4a37      	ldr	r2, [pc, #220]	; (8006d18 <_printf_float+0x2f0>)
 8006c3a:	2301      	movs	r3, #1
 8006c3c:	4631      	mov	r1, r6
 8006c3e:	4628      	mov	r0, r5
 8006c40:	47b8      	blx	r7
 8006c42:	3001      	adds	r0, #1
 8006c44:	f43f af51 	beq.w	8006aea <_printf_float+0xc2>
 8006c48:	e9dd 2309 	ldrd	r2, r3, [sp, #36]	; 0x24
 8006c4c:	429a      	cmp	r2, r3
 8006c4e:	db02      	blt.n	8006c56 <_printf_float+0x22e>
 8006c50:	6823      	ldr	r3, [r4, #0]
 8006c52:	07d8      	lsls	r0, r3, #31
 8006c54:	d510      	bpl.n	8006c78 <_printf_float+0x250>
 8006c56:	ee18 3a10 	vmov	r3, s16
 8006c5a:	4652      	mov	r2, sl
 8006c5c:	4631      	mov	r1, r6
 8006c5e:	4628      	mov	r0, r5
 8006c60:	47b8      	blx	r7
 8006c62:	3001      	adds	r0, #1
 8006c64:	f43f af41 	beq.w	8006aea <_printf_float+0xc2>
 8006c68:	f04f 0800 	mov.w	r8, #0
 8006c6c:	f104 091a 	add.w	r9, r4, #26
 8006c70:	9b0a      	ldr	r3, [sp, #40]	; 0x28
 8006c72:	3b01      	subs	r3, #1
 8006c74:	4543      	cmp	r3, r8
 8006c76:	dc09      	bgt.n	8006c8c <_printf_float+0x264>
 8006c78:	6823      	ldr	r3, [r4, #0]
 8006c7a:	079b      	lsls	r3, r3, #30
 8006c7c:	f100 8105 	bmi.w	8006e8a <_printf_float+0x462>
 8006c80:	68e0      	ldr	r0, [r4, #12]
 8006c82:	9b0b      	ldr	r3, [sp, #44]	; 0x2c
 8006c84:	4298      	cmp	r0, r3
 8006c86:	bfb8      	it	lt
 8006c88:	4618      	movlt	r0, r3
 8006c8a:	e730      	b.n	8006aee <_printf_float+0xc6>
 8006c8c:	2301      	movs	r3, #1
 8006c8e:	464a      	mov	r2, r9
 8006c90:	4631      	mov	r1, r6
 8006c92:	4628      	mov	r0, r5
 8006c94:	47b8      	blx	r7
 8006c96:	3001      	adds	r0, #1
 8006c98:	f43f af27 	beq.w	8006aea <_printf_float+0xc2>
 8006c9c:	f108 0801 	add.w	r8, r8, #1
 8006ca0:	e7e6      	b.n	8006c70 <_printf_float+0x248>
 8006ca2:	9b09      	ldr	r3, [sp, #36]	; 0x24
 8006ca4:	2b00      	cmp	r3, #0
 8006ca6:	dc39      	bgt.n	8006d1c <_printf_float+0x2f4>
 8006ca8:	4a1b      	ldr	r2, [pc, #108]	; (8006d18 <_printf_float+0x2f0>)
 8006caa:	2301      	movs	r3, #1
 8006cac:	4631      	mov	r1, r6
 8006cae:	4628      	mov	r0, r5
 8006cb0:	47b8      	blx	r7
 8006cb2:	3001      	adds	r0, #1
 8006cb4:	f43f af19 	beq.w	8006aea <_printf_float+0xc2>
 8006cb8:	e9dd 2309 	ldrd	r2, r3, [sp, #36]	; 0x24
 8006cbc:	4313      	orrs	r3, r2
 8006cbe:	d102      	bne.n	8006cc6 <_printf_float+0x29e>
 8006cc0:	6823      	ldr	r3, [r4, #0]
 8006cc2:	07d9      	lsls	r1, r3, #31
 8006cc4:	d5d8      	bpl.n	8006c78 <_printf_float+0x250>
 8006cc6:	ee18 3a10 	vmov	r3, s16
 8006cca:	4652      	mov	r2, sl
 8006ccc:	4631      	mov	r1, r6
 8006cce:	4628      	mov	r0, r5
 8006cd0:	47b8      	blx	r7
 8006cd2:	3001      	adds	r0, #1
 8006cd4:	f43f af09 	beq.w	8006aea <_printf_float+0xc2>
 8006cd8:	f04f 0900 	mov.w	r9, #0
 8006cdc:	f104 0a1a 	add.w	sl, r4, #26
 8006ce0:	9b09      	ldr	r3, [sp, #36]	; 0x24
 8006ce2:	425b      	negs	r3, r3
 8006ce4:	454b      	cmp	r3, r9
 8006ce6:	dc01      	bgt.n	8006cec <_printf_float+0x2c4>
 8006ce8:	9b0a      	ldr	r3, [sp, #40]	; 0x28
 8006cea:	e792      	b.n	8006c12 <_printf_float+0x1ea>
 8006cec:	2301      	movs	r3, #1
 8006cee:	4652      	mov	r2, sl
 8006cf0:	4631      	mov	r1, r6
 8006cf2:	4628      	mov	r0, r5
 8006cf4:	47b8      	blx	r7
 8006cf6:	3001      	adds	r0, #1
 8006cf8:	f43f aef7 	beq.w	8006aea <_printf_float+0xc2>
 8006cfc:	f109 0901 	add.w	r9, r9, #1
 8006d00:	e7ee      	b.n	8006ce0 <_printf_float+0x2b8>
 8006d02:	bf00      	nop
 8006d04:	7fefffff 	.word	0x7fefffff
 8006d08:	0800966c 	.word	0x0800966c
 8006d0c:	08009670 	.word	0x08009670
 8006d10:	08009678 	.word	0x08009678
 8006d14:	08009674 	.word	0x08009674
 8006d18:	0800967c 	.word	0x0800967c
 8006d1c:	9a0a      	ldr	r2, [sp, #40]	; 0x28
 8006d1e:	6da3      	ldr	r3, [r4, #88]	; 0x58
 8006d20:	429a      	cmp	r2, r3
 8006d22:	bfa8      	it	ge
 8006d24:	461a      	movge	r2, r3
 8006d26:	2a00      	cmp	r2, #0
 8006d28:	4691      	mov	r9, r2
 8006d2a:	dc37      	bgt.n	8006d9c <_printf_float+0x374>
 8006d2c:	f04f 0b00 	mov.w	fp, #0
 8006d30:	ea29 79e9 	bic.w	r9, r9, r9, asr #31
 8006d34:	f104 021a 	add.w	r2, r4, #26
 8006d38:	6da3      	ldr	r3, [r4, #88]	; 0x58
 8006d3a:	9305      	str	r3, [sp, #20]
 8006d3c:	eba3 0309 	sub.w	r3, r3, r9
 8006d40:	455b      	cmp	r3, fp
 8006d42:	dc33      	bgt.n	8006dac <_printf_float+0x384>
 8006d44:	e9dd 2309 	ldrd	r2, r3, [sp, #36]	; 0x24
 8006d48:	429a      	cmp	r2, r3
 8006d4a:	db3b      	blt.n	8006dc4 <_printf_float+0x39c>
 8006d4c:	6823      	ldr	r3, [r4, #0]
 8006d4e:	07da      	lsls	r2, r3, #31
 8006d50:	d438      	bmi.n	8006dc4 <_printf_float+0x39c>
 8006d52:	9a0a      	ldr	r2, [sp, #40]	; 0x28
 8006d54:	9b05      	ldr	r3, [sp, #20]
 8006d56:	9909      	ldr	r1, [sp, #36]	; 0x24
 8006d58:	1ad3      	subs	r3, r2, r3
 8006d5a:	eba2 0901 	sub.w	r9, r2, r1
 8006d5e:	4599      	cmp	r9, r3
 8006d60:	bfa8      	it	ge
 8006d62:	4699      	movge	r9, r3
 8006d64:	f1b9 0f00 	cmp.w	r9, #0
 8006d68:	dc35      	bgt.n	8006dd6 <_printf_float+0x3ae>
 8006d6a:	f04f 0800 	mov.w	r8, #0
 8006d6e:	ea29 79e9 	bic.w	r9, r9, r9, asr #31
 8006d72:	f104 0a1a 	add.w	sl, r4, #26
 8006d76:	e9dd 2309 	ldrd	r2, r3, [sp, #36]	; 0x24
 8006d7a:	1a9b      	subs	r3, r3, r2
 8006d7c:	eba3 0309 	sub.w	r3, r3, r9
 8006d80:	4543      	cmp	r3, r8
 8006d82:	f77f af79 	ble.w	8006c78 <_printf_float+0x250>
 8006d86:	2301      	movs	r3, #1
 8006d88:	4652      	mov	r2, sl
 8006d8a:	4631      	mov	r1, r6
 8006d8c:	4628      	mov	r0, r5
 8006d8e:	47b8      	blx	r7
 8006d90:	3001      	adds	r0, #1
 8006d92:	f43f aeaa 	beq.w	8006aea <_printf_float+0xc2>
 8006d96:	f108 0801 	add.w	r8, r8, #1
 8006d9a:	e7ec      	b.n	8006d76 <_printf_float+0x34e>
 8006d9c:	4613      	mov	r3, r2
 8006d9e:	4631      	mov	r1, r6
 8006da0:	4642      	mov	r2, r8
 8006da2:	4628      	mov	r0, r5
 8006da4:	47b8      	blx	r7
 8006da6:	3001      	adds	r0, #1
 8006da8:	d1c0      	bne.n	8006d2c <_printf_float+0x304>
 8006daa:	e69e      	b.n	8006aea <_printf_float+0xc2>
 8006dac:	2301      	movs	r3, #1
 8006dae:	4631      	mov	r1, r6
 8006db0:	4628      	mov	r0, r5
 8006db2:	9205      	str	r2, [sp, #20]
 8006db4:	47b8      	blx	r7
 8006db6:	3001      	adds	r0, #1
 8006db8:	f43f ae97 	beq.w	8006aea <_printf_float+0xc2>
 8006dbc:	9a05      	ldr	r2, [sp, #20]
 8006dbe:	f10b 0b01 	add.w	fp, fp, #1
 8006dc2:	e7b9      	b.n	8006d38 <_printf_float+0x310>
 8006dc4:	ee18 3a10 	vmov	r3, s16
 8006dc8:	4652      	mov	r2, sl
 8006dca:	4631      	mov	r1, r6
 8006dcc:	4628      	mov	r0, r5
 8006dce:	47b8      	blx	r7
 8006dd0:	3001      	adds	r0, #1
 8006dd2:	d1be      	bne.n	8006d52 <_printf_float+0x32a>
 8006dd4:	e689      	b.n	8006aea <_printf_float+0xc2>
 8006dd6:	9a05      	ldr	r2, [sp, #20]
 8006dd8:	464b      	mov	r3, r9
 8006dda:	4442      	add	r2, r8
 8006ddc:	4631      	mov	r1, r6
 8006dde:	4628      	mov	r0, r5
 8006de0:	47b8      	blx	r7
 8006de2:	3001      	adds	r0, #1
 8006de4:	d1c1      	bne.n	8006d6a <_printf_float+0x342>
 8006de6:	e680      	b.n	8006aea <_printf_float+0xc2>
 8006de8:	9a0a      	ldr	r2, [sp, #40]	; 0x28
 8006dea:	2a01      	cmp	r2, #1
 8006dec:	dc01      	bgt.n	8006df2 <_printf_float+0x3ca>
 8006dee:	07db      	lsls	r3, r3, #31
 8006df0:	d538      	bpl.n	8006e64 <_printf_float+0x43c>
 8006df2:	2301      	movs	r3, #1
 8006df4:	4642      	mov	r2, r8
 8006df6:	4631      	mov	r1, r6
 8006df8:	4628      	mov	r0, r5
 8006dfa:	47b8      	blx	r7
 8006dfc:	3001      	adds	r0, #1
 8006dfe:	f43f ae74 	beq.w	8006aea <_printf_float+0xc2>
 8006e02:	ee18 3a10 	vmov	r3, s16
 8006e06:	4652      	mov	r2, sl
 8006e08:	4631      	mov	r1, r6
 8006e0a:	4628      	mov	r0, r5
 8006e0c:	47b8      	blx	r7
 8006e0e:	3001      	adds	r0, #1
 8006e10:	f43f ae6b 	beq.w	8006aea <_printf_float+0xc2>
 8006e14:	e9d4 0112 	ldrd	r0, r1, [r4, #72]	; 0x48
 8006e18:	2200      	movs	r2, #0
 8006e1a:	2300      	movs	r3, #0
 8006e1c:	f7f9 fe74 	bl	8000b08 <__aeabi_dcmpeq>
 8006e20:	b9d8      	cbnz	r0, 8006e5a <_printf_float+0x432>
 8006e22:	9b0a      	ldr	r3, [sp, #40]	; 0x28
 8006e24:	f108 0201 	add.w	r2, r8, #1
 8006e28:	3b01      	subs	r3, #1
 8006e2a:	4631      	mov	r1, r6
 8006e2c:	4628      	mov	r0, r5
 8006e2e:	47b8      	blx	r7
 8006e30:	3001      	adds	r0, #1
 8006e32:	d10e      	bne.n	8006e52 <_printf_float+0x42a>
 8006e34:	e659      	b.n	8006aea <_printf_float+0xc2>
 8006e36:	2301      	movs	r3, #1
 8006e38:	4652      	mov	r2, sl
 8006e3a:	4631      	mov	r1, r6
 8006e3c:	4628      	mov	r0, r5
 8006e3e:	47b8      	blx	r7
 8006e40:	3001      	adds	r0, #1
 8006e42:	f43f ae52 	beq.w	8006aea <_printf_float+0xc2>
 8006e46:	f108 0801 	add.w	r8, r8, #1
 8006e4a:	9b0a      	ldr	r3, [sp, #40]	; 0x28
 8006e4c:	3b01      	subs	r3, #1
 8006e4e:	4543      	cmp	r3, r8
 8006e50:	dcf1      	bgt.n	8006e36 <_printf_float+0x40e>
 8006e52:	464b      	mov	r3, r9
 8006e54:	f104 0250 	add.w	r2, r4, #80	; 0x50
 8006e58:	e6dc      	b.n	8006c14 <_printf_float+0x1ec>
 8006e5a:	f04f 0800 	mov.w	r8, #0
 8006e5e:	f104 0a1a 	add.w	sl, r4, #26
 8006e62:	e7f2      	b.n	8006e4a <_printf_float+0x422>
 8006e64:	2301      	movs	r3, #1
 8006e66:	4642      	mov	r2, r8
 8006e68:	e7df      	b.n	8006e2a <_printf_float+0x402>
 8006e6a:	2301      	movs	r3, #1
 8006e6c:	464a      	mov	r2, r9
 8006e6e:	4631      	mov	r1, r6
 8006e70:	4628      	mov	r0, r5
 8006e72:	47b8      	blx	r7
 8006e74:	3001      	adds	r0, #1
 8006e76:	f43f ae38 	beq.w	8006aea <_printf_float+0xc2>
 8006e7a:	f108 0801 	add.w	r8, r8, #1
 8006e7e:	68e3      	ldr	r3, [r4, #12]
 8006e80:	990b      	ldr	r1, [sp, #44]	; 0x2c
 8006e82:	1a5b      	subs	r3, r3, r1
 8006e84:	4543      	cmp	r3, r8
 8006e86:	dcf0      	bgt.n	8006e6a <_printf_float+0x442>
 8006e88:	e6fa      	b.n	8006c80 <_printf_float+0x258>
 8006e8a:	f04f 0800 	mov.w	r8, #0
 8006e8e:	f104 0919 	add.w	r9, r4, #25
 8006e92:	e7f4      	b.n	8006e7e <_printf_float+0x456>

08006e94 <_printf_common>:
 8006e94:	e92d 47f0 	stmdb	sp!, {r4, r5, r6, r7, r8, r9, sl, lr}
 8006e98:	4616      	mov	r6, r2
 8006e9a:	4699      	mov	r9, r3
 8006e9c:	688a      	ldr	r2, [r1, #8]
 8006e9e:	690b      	ldr	r3, [r1, #16]
 8006ea0:	f8dd 8020 	ldr.w	r8, [sp, #32]
 8006ea4:	4293      	cmp	r3, r2
 8006ea6:	bfb8      	it	lt
 8006ea8:	4613      	movlt	r3, r2
 8006eaa:	6033      	str	r3, [r6, #0]
 8006eac:	f891 2043 	ldrb.w	r2, [r1, #67]	; 0x43
 8006eb0:	4607      	mov	r7, r0
 8006eb2:	460c      	mov	r4, r1
 8006eb4:	b10a      	cbz	r2, 8006eba <_printf_common+0x26>
 8006eb6:	3301      	adds	r3, #1
 8006eb8:	6033      	str	r3, [r6, #0]
 8006eba:	6823      	ldr	r3, [r4, #0]
 8006ebc:	0699      	lsls	r1, r3, #26
 8006ebe:	bf42      	ittt	mi
 8006ec0:	6833      	ldrmi	r3, [r6, #0]
 8006ec2:	3302      	addmi	r3, #2
 8006ec4:	6033      	strmi	r3, [r6, #0]
 8006ec6:	6825      	ldr	r5, [r4, #0]
 8006ec8:	f015 0506 	ands.w	r5, r5, #6
 8006ecc:	d106      	bne.n	8006edc <_printf_common+0x48>
 8006ece:	f104 0a19 	add.w	sl, r4, #25
 8006ed2:	68e3      	ldr	r3, [r4, #12]
 8006ed4:	6832      	ldr	r2, [r6, #0]
 8006ed6:	1a9b      	subs	r3, r3, r2
 8006ed8:	42ab      	cmp	r3, r5
 8006eda:	dc26      	bgt.n	8006f2a <_printf_common+0x96>
 8006edc:	f894 2043 	ldrb.w	r2, [r4, #67]	; 0x43
 8006ee0:	1e13      	subs	r3, r2, #0
 8006ee2:	6822      	ldr	r2, [r4, #0]
 8006ee4:	bf18      	it	ne
 8006ee6:	2301      	movne	r3, #1
 8006ee8:	0692      	lsls	r2, r2, #26
 8006eea:	d42b      	bmi.n	8006f44 <_printf_common+0xb0>
 8006eec:	f104 0243 	add.w	r2, r4, #67	; 0x43
 8006ef0:	4649      	mov	r1, r9
 8006ef2:	4638      	mov	r0, r7
 8006ef4:	47c0      	blx	r8
 8006ef6:	3001      	adds	r0, #1
 8006ef8:	d01e      	beq.n	8006f38 <_printf_common+0xa4>
 8006efa:	6823      	ldr	r3, [r4, #0]
 8006efc:	68e5      	ldr	r5, [r4, #12]
 8006efe:	6832      	ldr	r2, [r6, #0]
 8006f00:	f003 0306 	and.w	r3, r3, #6
 8006f04:	2b04      	cmp	r3, #4
 8006f06:	bf08      	it	eq
 8006f08:	1aad      	subeq	r5, r5, r2
 8006f0a:	68a3      	ldr	r3, [r4, #8]
 8006f0c:	6922      	ldr	r2, [r4, #16]
 8006f0e:	bf0c      	ite	eq
 8006f10:	ea25 75e5 	biceq.w	r5, r5, r5, asr #31
 8006f14:	2500      	movne	r5, #0
 8006f16:	4293      	cmp	r3, r2
 8006f18:	bfc4      	itt	gt
 8006f1a:	1a9b      	subgt	r3, r3, r2
 8006f1c:	18ed      	addgt	r5, r5, r3
 8006f1e:	2600      	movs	r6, #0
 8006f20:	341a      	adds	r4, #26
 8006f22:	42b5      	cmp	r5, r6
 8006f24:	d11a      	bne.n	8006f5c <_printf_common+0xc8>
 8006f26:	2000      	movs	r0, #0
 8006f28:	e008      	b.n	8006f3c <_printf_common+0xa8>
 8006f2a:	2301      	movs	r3, #1
 8006f2c:	4652      	mov	r2, sl
 8006f2e:	4649      	mov	r1, r9
 8006f30:	4638      	mov	r0, r7
 8006f32:	47c0      	blx	r8
 8006f34:	3001      	adds	r0, #1
 8006f36:	d103      	bne.n	8006f40 <_printf_common+0xac>
 8006f38:	f04f 30ff 	mov.w	r0, #4294967295
 8006f3c:	e8bd 87f0 	ldmia.w	sp!, {r4, r5, r6, r7, r8, r9, sl, pc}
 8006f40:	3501      	adds	r5, #1
 8006f42:	e7c6      	b.n	8006ed2 <_printf_common+0x3e>
 8006f44:	18e1      	adds	r1, r4, r3
 8006f46:	1c5a      	adds	r2, r3, #1
 8006f48:	2030      	movs	r0, #48	; 0x30
 8006f4a:	f881 0043 	strb.w	r0, [r1, #67]	; 0x43
 8006f4e:	4422      	add	r2, r4
 8006f50:	f894 1045 	ldrb.w	r1, [r4, #69]	; 0x45
 8006f54:	f882 1043 	strb.w	r1, [r2, #67]	; 0x43
 8006f58:	3302      	adds	r3, #2
 8006f5a:	e7c7      	b.n	8006eec <_printf_common+0x58>
 8006f5c:	2301      	movs	r3, #1
 8006f5e:	4622      	mov	r2, r4
 8006f60:	4649      	mov	r1, r9
 8006f62:	4638      	mov	r0, r7
 8006f64:	47c0      	blx	r8
 8006f66:	3001      	adds	r0, #1
 8006f68:	d0e6      	beq.n	8006f38 <_printf_common+0xa4>
 8006f6a:	3601      	adds	r6, #1
 8006f6c:	e7d9      	b.n	8006f22 <_printf_common+0x8e>
	...

08006f70 <_printf_i>:
 8006f70:	e92d 47ff 	stmdb	sp!, {r0, r1, r2, r3, r4, r5, r6, r7, r8, r9, sl, lr}
 8006f74:	460c      	mov	r4, r1
 8006f76:	4691      	mov	r9, r2
 8006f78:	7e27      	ldrb	r7, [r4, #24]
 8006f7a:	990c      	ldr	r1, [sp, #48]	; 0x30
 8006f7c:	2f78      	cmp	r7, #120	; 0x78
 8006f7e:	4680      	mov	r8, r0
 8006f80:	469a      	mov	sl, r3
 8006f82:	f104 0243 	add.w	r2, r4, #67	; 0x43
 8006f86:	d807      	bhi.n	8006f98 <_printf_i+0x28>
 8006f88:	2f62      	cmp	r7, #98	; 0x62
 8006f8a:	d80a      	bhi.n	8006fa2 <_printf_i+0x32>
 8006f8c:	2f00      	cmp	r7, #0
 8006f8e:	f000 80d8 	beq.w	8007142 <_printf_i+0x1d2>
 8006f92:	2f58      	cmp	r7, #88	; 0x58
 8006f94:	f000 80a3 	beq.w	80070de <_printf_i+0x16e>
 8006f98:	f104 0642 	add.w	r6, r4, #66	; 0x42
 8006f9c:	f884 7042 	strb.w	r7, [r4, #66]	; 0x42
 8006fa0:	e03a      	b.n	8007018 <_printf_i+0xa8>
 8006fa2:	f1a7 0363 	sub.w	r3, r7, #99	; 0x63
 8006fa6:	2b15      	cmp	r3, #21
 8006fa8:	d8f6      	bhi.n	8006f98 <_printf_i+0x28>
 8006faa:	a001      	add	r0, pc, #4	; (adr r0, 8006fb0 <_printf_i+0x40>)
 8006fac:	f850 f023 	ldr.w	pc, [r0, r3, lsl #2]
 8006fb0:	08007009 	.word	0x08007009
 8006fb4:	0800701d 	.word	0x0800701d
 8006fb8:	08006f99 	.word	0x08006f99
 8006fbc:	08006f99 	.word	0x08006f99
 8006fc0:	08006f99 	.word	0x08006f99
 8006fc4:	08006f99 	.word	0x08006f99
 8006fc8:	0800701d 	.word	0x0800701d
 8006fcc:	08006f99 	.word	0x08006f99
 8006fd0:	08006f99 	.word	0x08006f99
 8006fd4:	08006f99 	.word	0x08006f99
 8006fd8:	08006f99 	.word	0x08006f99
 8006fdc:	08007129 	.word	0x08007129
 8006fe0:	0800704d 	.word	0x0800704d
 8006fe4:	0800710b 	.word	0x0800710b
 8006fe8:	08006f99 	.word	0x08006f99
 8006fec:	08006f99 	.word	0x08006f99
 8006ff0:	0800714b 	.word	0x0800714b
 8006ff4:	08006f99 	.word	0x08006f99
 8006ff8:	0800704d 	.word	0x0800704d
 8006ffc:	08006f99 	.word	0x08006f99
 8007000:	08006f99 	.word	0x08006f99
 8007004:	08007113 	.word	0x08007113
 8007008:	680b      	ldr	r3, [r1, #0]
 800700a:	1d1a      	adds	r2, r3, #4
 800700c:	681b      	ldr	r3, [r3, #0]
 800700e:	600a      	str	r2, [r1, #0]
 8007010:	f104 0642 	add.w	r6, r4, #66	; 0x42
 8007014:	f884 3042 	strb.w	r3, [r4, #66]	; 0x42
 8007018:	2301      	movs	r3, #1
 800701a:	e0a3      	b.n	8007164 <_printf_i+0x1f4>
 800701c:	6825      	ldr	r5, [r4, #0]
 800701e:	6808      	ldr	r0, [r1, #0]
 8007020:	062e      	lsls	r6, r5, #24
 8007022:	f100 0304 	add.w	r3, r0, #4
 8007026:	d50a      	bpl.n	800703e <_printf_i+0xce>
 8007028:	6805      	ldr	r5, [r0, #0]
 800702a:	600b      	str	r3, [r1, #0]
 800702c:	2d00      	cmp	r5, #0
 800702e:	da03      	bge.n	8007038 <_printf_i+0xc8>
 8007030:	232d      	movs	r3, #45	; 0x2d
 8007032:	426d      	negs	r5, r5
 8007034:	f884 3043 	strb.w	r3, [r4, #67]	; 0x43
 8007038:	485e      	ldr	r0, [pc, #376]	; (80071b4 <_printf_i+0x244>)
 800703a:	230a      	movs	r3, #10
 800703c:	e019      	b.n	8007072 <_printf_i+0x102>
 800703e:	f015 0f40 	tst.w	r5, #64	; 0x40
 8007042:	6805      	ldr	r5, [r0, #0]
 8007044:	600b      	str	r3, [r1, #0]
 8007046:	bf18      	it	ne
 8007048:	b22d      	sxthne	r5, r5
 800704a:	e7ef      	b.n	800702c <_printf_i+0xbc>
 800704c:	680b      	ldr	r3, [r1, #0]
 800704e:	6825      	ldr	r5, [r4, #0]
 8007050:	1d18      	adds	r0, r3, #4
 8007052:	6008      	str	r0, [r1, #0]
 8007054:	0628      	lsls	r0, r5, #24
 8007056:	d501      	bpl.n	800705c <_printf_i+0xec>
 8007058:	681d      	ldr	r5, [r3, #0]
 800705a:	e002      	b.n	8007062 <_printf_i+0xf2>
 800705c:	0669      	lsls	r1, r5, #25
 800705e:	d5fb      	bpl.n	8007058 <_printf_i+0xe8>
 8007060:	881d      	ldrh	r5, [r3, #0]
 8007062:	4854      	ldr	r0, [pc, #336]	; (80071b4 <_printf_i+0x244>)
 8007064:	2f6f      	cmp	r7, #111	; 0x6f
 8007066:	bf0c      	ite	eq
 8007068:	2308      	moveq	r3, #8
 800706a:	230a      	movne	r3, #10
 800706c:	2100      	movs	r1, #0
 800706e:	f884 1043 	strb.w	r1, [r4, #67]	; 0x43
 8007072:	6866      	ldr	r6, [r4, #4]
 8007074:	60a6      	str	r6, [r4, #8]
 8007076:	2e00      	cmp	r6, #0
 8007078:	bfa2      	ittt	ge
 800707a:	6821      	ldrge	r1, [r4, #0]
 800707c:	f021 0104 	bicge.w	r1, r1, #4
 8007080:	6021      	strge	r1, [r4, #0]
 8007082:	b90d      	cbnz	r5, 8007088 <_printf_i+0x118>
 8007084:	2e00      	cmp	r6, #0
 8007086:	d04d      	beq.n	8007124 <_printf_i+0x1b4>
 8007088:	4616      	mov	r6, r2
 800708a:	fbb5 f1f3 	udiv	r1, r5, r3
 800708e:	fb03 5711 	mls	r7, r3, r1, r5
 8007092:	5dc7      	ldrb	r7, [r0, r7]
 8007094:	f806 7d01 	strb.w	r7, [r6, #-1]!
 8007098:	462f      	mov	r7, r5
 800709a:	42bb      	cmp	r3, r7
 800709c:	460d      	mov	r5, r1
 800709e:	d9f4      	bls.n	800708a <_printf_i+0x11a>
 80070a0:	2b08      	cmp	r3, #8
 80070a2:	d10b      	bne.n	80070bc <_printf_i+0x14c>
 80070a4:	6823      	ldr	r3, [r4, #0]
 80070a6:	07df      	lsls	r7, r3, #31
 80070a8:	d508      	bpl.n	80070bc <_printf_i+0x14c>
 80070aa:	6923      	ldr	r3, [r4, #16]
 80070ac:	6861      	ldr	r1, [r4, #4]
 80070ae:	4299      	cmp	r1, r3
 80070b0:	bfde      	ittt	le
 80070b2:	2330      	movle	r3, #48	; 0x30
 80070b4:	f806 3c01 	strble.w	r3, [r6, #-1]
 80070b8:	f106 36ff 	addle.w	r6, r6, #4294967295
 80070bc:	1b92      	subs	r2, r2, r6
 80070be:	6122      	str	r2, [r4, #16]
 80070c0:	f8cd a000 	str.w	sl, [sp]
 80070c4:	464b      	mov	r3, r9
 80070c6:	aa03      	add	r2, sp, #12
 80070c8:	4621      	mov	r1, r4
 80070ca:	4640      	mov	r0, r8
 80070cc:	f7ff fee2 	bl	8006e94 <_printf_common>
 80070d0:	3001      	adds	r0, #1
 80070d2:	d14c      	bne.n	800716e <_printf_i+0x1fe>
 80070d4:	f04f 30ff 	mov.w	r0, #4294967295
 80070d8:	b004      	add	sp, #16
 80070da:	e8bd 87f0 	ldmia.w	sp!, {r4, r5, r6, r7, r8, r9, sl, pc}
 80070de:	4835      	ldr	r0, [pc, #212]	; (80071b4 <_printf_i+0x244>)
 80070e0:	f884 7045 	strb.w	r7, [r4, #69]	; 0x45
 80070e4:	6823      	ldr	r3, [r4, #0]
 80070e6:	680e      	ldr	r6, [r1, #0]
 80070e8:	061f      	lsls	r7, r3, #24
 80070ea:	f856 5b04 	ldr.w	r5, [r6], #4
 80070ee:	600e      	str	r6, [r1, #0]
 80070f0:	d514      	bpl.n	800711c <_printf_i+0x1ac>
 80070f2:	07d9      	lsls	r1, r3, #31
 80070f4:	bf44      	itt	mi
 80070f6:	f043 0320 	orrmi.w	r3, r3, #32
 80070fa:	6023      	strmi	r3, [r4, #0]
 80070fc:	b91d      	cbnz	r5, 8007106 <_printf_i+0x196>
 80070fe:	6823      	ldr	r3, [r4, #0]
 8007100:	f023 0320 	bic.w	r3, r3, #32
 8007104:	6023      	str	r3, [r4, #0]
 8007106:	2310      	movs	r3, #16
 8007108:	e7b0      	b.n	800706c <_printf_i+0xfc>
 800710a:	6823      	ldr	r3, [r4, #0]
 800710c:	f043 0320 	orr.w	r3, r3, #32
 8007110:	6023      	str	r3, [r4, #0]
 8007112:	2378      	movs	r3, #120	; 0x78
 8007114:	4828      	ldr	r0, [pc, #160]	; (80071b8 <_printf_i+0x248>)
 8007116:	f884 3045 	strb.w	r3, [r4, #69]	; 0x45
 800711a:	e7e3      	b.n	80070e4 <_printf_i+0x174>
 800711c:	065e      	lsls	r6, r3, #25
 800711e:	bf48      	it	mi
 8007120:	b2ad      	uxthmi	r5, r5
 8007122:	e7e6      	b.n	80070f2 <_printf_i+0x182>
 8007124:	4616      	mov	r6, r2
 8007126:	e7bb      	b.n	80070a0 <_printf_i+0x130>
 8007128:	680b      	ldr	r3, [r1, #0]
 800712a:	6826      	ldr	r6, [r4, #0]
 800712c:	6960      	ldr	r0, [r4, #20]
 800712e:	1d1d      	adds	r5, r3, #4
 8007130:	600d      	str	r5, [r1, #0]
 8007132:	0635      	lsls	r5, r6, #24
 8007134:	681b      	ldr	r3, [r3, #0]
 8007136:	d501      	bpl.n	800713c <_printf_i+0x1cc>
 8007138:	6018      	str	r0, [r3, #0]
 800713a:	e002      	b.n	8007142 <_printf_i+0x1d2>
 800713c:	0671      	lsls	r1, r6, #25
 800713e:	d5fb      	bpl.n	8007138 <_printf_i+0x1c8>
 8007140:	8018      	strh	r0, [r3, #0]
 8007142:	2300      	movs	r3, #0
 8007144:	6123      	str	r3, [r4, #16]
 8007146:	4616      	mov	r6, r2
 8007148:	e7ba      	b.n	80070c0 <_printf_i+0x150>
 800714a:	680b      	ldr	r3, [r1, #0]
 800714c:	1d1a      	adds	r2, r3, #4
 800714e:	600a      	str	r2, [r1, #0]
 8007150:	681e      	ldr	r6, [r3, #0]
 8007152:	6862      	ldr	r2, [r4, #4]
 8007154:	2100      	movs	r1, #0
 8007156:	4630      	mov	r0, r6
 8007158:	f7f9 f862 	bl	8000220 <memchr>
 800715c:	b108      	cbz	r0, 8007162 <_printf_i+0x1f2>
 800715e:	1b80      	subs	r0, r0, r6
 8007160:	6060      	str	r0, [r4, #4]
 8007162:	6863      	ldr	r3, [r4, #4]
 8007164:	6123      	str	r3, [r4, #16]
 8007166:	2300      	movs	r3, #0
 8007168:	f884 3043 	strb.w	r3, [r4, #67]	; 0x43
 800716c:	e7a8      	b.n	80070c0 <_printf_i+0x150>
 800716e:	6923      	ldr	r3, [r4, #16]
 8007170:	4632      	mov	r2, r6
 8007172:	4649      	mov	r1, r9
 8007174:	4640      	mov	r0, r8
 8007176:	47d0      	blx	sl
 8007178:	3001      	adds	r0, #1
 800717a:	d0ab      	beq.n	80070d4 <_printf_i+0x164>
 800717c:	6823      	ldr	r3, [r4, #0]
 800717e:	079b      	lsls	r3, r3, #30
 8007180:	d413      	bmi.n	80071aa <_printf_i+0x23a>
 8007182:	68e0      	ldr	r0, [r4, #12]
 8007184:	9b03      	ldr	r3, [sp, #12]
 8007186:	4298      	cmp	r0, r3
 8007188:	bfb8      	it	lt
 800718a:	4618      	movlt	r0, r3
 800718c:	e7a4      	b.n	80070d8 <_printf_i+0x168>
 800718e:	2301      	movs	r3, #1
 8007190:	4632      	mov	r2, r6
 8007192:	4649      	mov	r1, r9
 8007194:	4640      	mov	r0, r8
 8007196:	47d0      	blx	sl
 8007198:	3001      	adds	r0, #1
 800719a:	d09b      	beq.n	80070d4 <_printf_i+0x164>
 800719c:	3501      	adds	r5, #1
 800719e:	68e3      	ldr	r3, [r4, #12]
 80071a0:	9903      	ldr	r1, [sp, #12]
 80071a2:	1a5b      	subs	r3, r3, r1
 80071a4:	42ab      	cmp	r3, r5
 80071a6:	dcf2      	bgt.n	800718e <_printf_i+0x21e>
 80071a8:	e7eb      	b.n	8007182 <_printf_i+0x212>
 80071aa:	2500      	movs	r5, #0
 80071ac:	f104 0619 	add.w	r6, r4, #25
 80071b0:	e7f5      	b.n	800719e <_printf_i+0x22e>
 80071b2:	bf00      	nop
 80071b4:	0800967e 	.word	0x0800967e
 80071b8:	0800968f 	.word	0x0800968f

080071bc <iprintf>:
 80071bc:	b40f      	push	{r0, r1, r2, r3}
 80071be:	4b0a      	ldr	r3, [pc, #40]	; (80071e8 <iprintf+0x2c>)
 80071c0:	b513      	push	{r0, r1, r4, lr}
 80071c2:	681c      	ldr	r4, [r3, #0]
 80071c4:	b124      	cbz	r4, 80071d0 <iprintf+0x14>
 80071c6:	69a3      	ldr	r3, [r4, #24]
 80071c8:	b913      	cbnz	r3, 80071d0 <iprintf+0x14>
 80071ca:	4620      	mov	r0, r4
 80071cc:	f000 fee0 	bl	8007f90 <__sinit>
 80071d0:	ab05      	add	r3, sp, #20
 80071d2:	9a04      	ldr	r2, [sp, #16]
 80071d4:	68a1      	ldr	r1, [r4, #8]
 80071d6:	9301      	str	r3, [sp, #4]
 80071d8:	4620      	mov	r0, r4
 80071da:	f001 fbe9 	bl	80089b0 <_vfiprintf_r>
 80071de:	b002      	add	sp, #8
 80071e0:	e8bd 4010 	ldmia.w	sp!, {r4, lr}
 80071e4:	b004      	add	sp, #16
 80071e6:	4770      	bx	lr
 80071e8:	20000190 	.word	0x20000190

080071ec <quorem>:
 80071ec:	e92d 4ff7 	stmdb	sp!, {r0, r1, r2, r4, r5, r6, r7, r8, r9, sl, fp, lr}
 80071f0:	6903      	ldr	r3, [r0, #16]
 80071f2:	690c      	ldr	r4, [r1, #16]
 80071f4:	42a3      	cmp	r3, r4
 80071f6:	4607      	mov	r7, r0
 80071f8:	f2c0 8081 	blt.w	80072fe <quorem+0x112>
 80071fc:	3c01      	subs	r4, #1
 80071fe:	f101 0814 	add.w	r8, r1, #20
 8007202:	f100 0514 	add.w	r5, r0, #20
 8007206:	eb05 0384 	add.w	r3, r5, r4, lsl #2
 800720a:	9301      	str	r3, [sp, #4]
 800720c:	f858 3024 	ldr.w	r3, [r8, r4, lsl #2]
 8007210:	f855 2024 	ldr.w	r2, [r5, r4, lsl #2]
 8007214:	3301      	adds	r3, #1
 8007216:	429a      	cmp	r2, r3
 8007218:	ea4f 0b84 	mov.w	fp, r4, lsl #2
 800721c:	eb08 0984 	add.w	r9, r8, r4, lsl #2
 8007220:	fbb2 f6f3 	udiv	r6, r2, r3
 8007224:	d331      	bcc.n	800728a <quorem+0x9e>
 8007226:	f04f 0e00 	mov.w	lr, #0
 800722a:	4640      	mov	r0, r8
 800722c:	46ac      	mov	ip, r5
 800722e:	46f2      	mov	sl, lr
 8007230:	f850 2b04 	ldr.w	r2, [r0], #4
 8007234:	b293      	uxth	r3, r2
 8007236:	fb06 e303 	mla	r3, r6, r3, lr
 800723a:	ea4f 4e13 	mov.w	lr, r3, lsr #16
 800723e:	b29b      	uxth	r3, r3
 8007240:	ebaa 0303 	sub.w	r3, sl, r3
 8007244:	0c12      	lsrs	r2, r2, #16
 8007246:	f8dc a000 	ldr.w	sl, [ip]
 800724a:	fb06 e202 	mla	r2, r6, r2, lr
 800724e:	fa13 f38a 	uxtah	r3, r3, sl
 8007252:	ea4f 4e12 	mov.w	lr, r2, lsr #16
 8007256:	fa1f fa82 	uxth.w	sl, r2
 800725a:	f8dc 2000 	ldr.w	r2, [ip]
 800725e:	ebca 4212 	rsb	r2, sl, r2, lsr #16
 8007262:	eb02 4223 	add.w	r2, r2, r3, asr #16
 8007266:	b29b      	uxth	r3, r3
 8007268:	ea43 4302 	orr.w	r3, r3, r2, lsl #16
 800726c:	4581      	cmp	r9, r0
 800726e:	f84c 3b04 	str.w	r3, [ip], #4
 8007272:	ea4f 4a22 	mov.w	sl, r2, asr #16
 8007276:	d2db      	bcs.n	8007230 <quorem+0x44>
 8007278:	f855 300b 	ldr.w	r3, [r5, fp]
 800727c:	b92b      	cbnz	r3, 800728a <quorem+0x9e>
 800727e:	9b01      	ldr	r3, [sp, #4]
 8007280:	3b04      	subs	r3, #4
 8007282:	429d      	cmp	r5, r3
 8007284:	461a      	mov	r2, r3
 8007286:	d32e      	bcc.n	80072e6 <quorem+0xfa>
 8007288:	613c      	str	r4, [r7, #16]
 800728a:	4638      	mov	r0, r7
 800728c:	f001 f9ac 	bl	80085e8 <__mcmp>
 8007290:	2800      	cmp	r0, #0
 8007292:	db24      	blt.n	80072de <quorem+0xf2>
 8007294:	3601      	adds	r6, #1
 8007296:	4628      	mov	r0, r5
 8007298:	f04f 0c00 	mov.w	ip, #0
 800729c:	f858 2b04 	ldr.w	r2, [r8], #4
 80072a0:	f8d0 e000 	ldr.w	lr, [r0]
 80072a4:	b293      	uxth	r3, r2
 80072a6:	ebac 0303 	sub.w	r3, ip, r3
 80072aa:	0c12      	lsrs	r2, r2, #16
 80072ac:	fa13 f38e 	uxtah	r3, r3, lr
 80072b0:	ebc2 421e 	rsb	r2, r2, lr, lsr #16
 80072b4:	eb02 4223 	add.w	r2, r2, r3, asr #16
 80072b8:	b29b      	uxth	r3, r3
 80072ba:	ea43 4302 	orr.w	r3, r3, r2, lsl #16
 80072be:	45c1      	cmp	r9, r8
 80072c0:	f840 3b04 	str.w	r3, [r0], #4
 80072c4:	ea4f 4c22 	mov.w	ip, r2, asr #16
 80072c8:	d2e8      	bcs.n	800729c <quorem+0xb0>
 80072ca:	f855 2024 	ldr.w	r2, [r5, r4, lsl #2]
 80072ce:	eb05 0384 	add.w	r3, r5, r4, lsl #2
 80072d2:	b922      	cbnz	r2, 80072de <quorem+0xf2>
 80072d4:	3b04      	subs	r3, #4
 80072d6:	429d      	cmp	r5, r3
 80072d8:	461a      	mov	r2, r3
 80072da:	d30a      	bcc.n	80072f2 <quorem+0x106>
 80072dc:	613c      	str	r4, [r7, #16]
 80072de:	4630      	mov	r0, r6
 80072e0:	b003      	add	sp, #12
 80072e2:	e8bd 8ff0 	ldmia.w	sp!, {r4, r5, r6, r7, r8, r9, sl, fp, pc}
 80072e6:	6812      	ldr	r2, [r2, #0]
 80072e8:	3b04      	subs	r3, #4
 80072ea:	2a00      	cmp	r2, #0
 80072ec:	d1cc      	bne.n	8007288 <quorem+0x9c>
 80072ee:	3c01      	subs	r4, #1
 80072f0:	e7c7      	b.n	8007282 <quorem+0x96>
 80072f2:	6812      	ldr	r2, [r2, #0]
 80072f4:	3b04      	subs	r3, #4
 80072f6:	2a00      	cmp	r2, #0
 80072f8:	d1f0      	bne.n	80072dc <quorem+0xf0>
 80072fa:	3c01      	subs	r4, #1
 80072fc:	e7eb      	b.n	80072d6 <quorem+0xea>
 80072fe:	2000      	movs	r0, #0
 8007300:	e7ee      	b.n	80072e0 <quorem+0xf4>
 8007302:	0000      	movs	r0, r0
 8007304:	0000      	movs	r0, r0
	...

08007308 <_dtoa_r>:
 8007308:	e92d 4ff0 	stmdb	sp!, {r4, r5, r6, r7, r8, r9, sl, fp, lr}
 800730c:	ed2d 8b02 	vpush	{d8}
 8007310:	ec57 6b10 	vmov	r6, r7, d0
 8007314:	b095      	sub	sp, #84	; 0x54
 8007316:	6a45      	ldr	r5, [r0, #36]	; 0x24
 8007318:	f8dd 8080 	ldr.w	r8, [sp, #128]	; 0x80
 800731c:	9105      	str	r1, [sp, #20]
 800731e:	e9cd 6702 	strd	r6, r7, [sp, #8]
 8007322:	4604      	mov	r4, r0
 8007324:	9209      	str	r2, [sp, #36]	; 0x24
 8007326:	930f      	str	r3, [sp, #60]	; 0x3c
 8007328:	b975      	cbnz	r5, 8007348 <_dtoa_r+0x40>
 800732a:	2010      	movs	r0, #16
 800732c:	f000 fed6 	bl	80080dc <malloc>
 8007330:	4602      	mov	r2, r0
 8007332:	6260      	str	r0, [r4, #36]	; 0x24
 8007334:	b920      	cbnz	r0, 8007340 <_dtoa_r+0x38>
 8007336:	4bb2      	ldr	r3, [pc, #712]	; (8007600 <_dtoa_r+0x2f8>)
 8007338:	21ea      	movs	r1, #234	; 0xea
 800733a:	48b2      	ldr	r0, [pc, #712]	; (8007604 <_dtoa_r+0x2fc>)
 800733c:	f001 fd8e 	bl	8008e5c <__assert_func>
 8007340:	e9c0 5501 	strd	r5, r5, [r0, #4]
 8007344:	6005      	str	r5, [r0, #0]
 8007346:	60c5      	str	r5, [r0, #12]
 8007348:	6a63      	ldr	r3, [r4, #36]	; 0x24
 800734a:	6819      	ldr	r1, [r3, #0]
 800734c:	b151      	cbz	r1, 8007364 <_dtoa_r+0x5c>
 800734e:	685a      	ldr	r2, [r3, #4]
 8007350:	604a      	str	r2, [r1, #4]
 8007352:	2301      	movs	r3, #1
 8007354:	4093      	lsls	r3, r2
 8007356:	608b      	str	r3, [r1, #8]
 8007358:	4620      	mov	r0, r4
 800735a:	f000 ff07 	bl	800816c <_Bfree>
 800735e:	6a63      	ldr	r3, [r4, #36]	; 0x24
 8007360:	2200      	movs	r2, #0
 8007362:	601a      	str	r2, [r3, #0]
 8007364:	1e3b      	subs	r3, r7, #0
 8007366:	bfb9      	ittee	lt
 8007368:	f023 4300 	biclt.w	r3, r3, #2147483648	; 0x80000000
 800736c:	9303      	strlt	r3, [sp, #12]
 800736e:	2300      	movge	r3, #0
 8007370:	f8c8 3000 	strge.w	r3, [r8]
 8007374:	f8dd 900c 	ldr.w	r9, [sp, #12]
 8007378:	4ba3      	ldr	r3, [pc, #652]	; (8007608 <_dtoa_r+0x300>)
 800737a:	bfbc      	itt	lt
 800737c:	2201      	movlt	r2, #1
 800737e:	f8c8 2000 	strlt.w	r2, [r8]
 8007382:	ea33 0309 	bics.w	r3, r3, r9
 8007386:	d11b      	bne.n	80073c0 <_dtoa_r+0xb8>
 8007388:	9a0f      	ldr	r2, [sp, #60]	; 0x3c
 800738a:	f242 730f 	movw	r3, #9999	; 0x270f
 800738e:	6013      	str	r3, [r2, #0]
 8007390:	f3c9 0313 	ubfx	r3, r9, #0, #20
 8007394:	4333      	orrs	r3, r6
 8007396:	f000 857a 	beq.w	8007e8e <_dtoa_r+0xb86>
 800739a:	9b21      	ldr	r3, [sp, #132]	; 0x84
 800739c:	b963      	cbnz	r3, 80073b8 <_dtoa_r+0xb0>
 800739e:	4b9b      	ldr	r3, [pc, #620]	; (800760c <_dtoa_r+0x304>)
 80073a0:	e024      	b.n	80073ec <_dtoa_r+0xe4>
 80073a2:	4b9b      	ldr	r3, [pc, #620]	; (8007610 <_dtoa_r+0x308>)
 80073a4:	9300      	str	r3, [sp, #0]
 80073a6:	3308      	adds	r3, #8
 80073a8:	9a21      	ldr	r2, [sp, #132]	; 0x84
 80073aa:	6013      	str	r3, [r2, #0]
 80073ac:	9800      	ldr	r0, [sp, #0]
 80073ae:	b015      	add	sp, #84	; 0x54
 80073b0:	ecbd 8b02 	vpop	{d8}
 80073b4:	e8bd 8ff0 	ldmia.w	sp!, {r4, r5, r6, r7, r8, r9, sl, fp, pc}
 80073b8:	4b94      	ldr	r3, [pc, #592]	; (800760c <_dtoa_r+0x304>)
 80073ba:	9300      	str	r3, [sp, #0]
 80073bc:	3303      	adds	r3, #3
 80073be:	e7f3      	b.n	80073a8 <_dtoa_r+0xa0>
 80073c0:	ed9d 7b02 	vldr	d7, [sp, #8]
 80073c4:	2200      	movs	r2, #0
 80073c6:	ec51 0b17 	vmov	r0, r1, d7
 80073ca:	2300      	movs	r3, #0
 80073cc:	ed8d 7b0a 	vstr	d7, [sp, #40]	; 0x28
 80073d0:	f7f9 fb9a 	bl	8000b08 <__aeabi_dcmpeq>
 80073d4:	4680      	mov	r8, r0
 80073d6:	b158      	cbz	r0, 80073f0 <_dtoa_r+0xe8>
 80073d8:	9a0f      	ldr	r2, [sp, #60]	; 0x3c
 80073da:	2301      	movs	r3, #1
 80073dc:	6013      	str	r3, [r2, #0]
 80073de:	9b21      	ldr	r3, [sp, #132]	; 0x84
 80073e0:	2b00      	cmp	r3, #0
 80073e2:	f000 8551 	beq.w	8007e88 <_dtoa_r+0xb80>
 80073e6:	488b      	ldr	r0, [pc, #556]	; (8007614 <_dtoa_r+0x30c>)
 80073e8:	6018      	str	r0, [r3, #0]
 80073ea:	1e43      	subs	r3, r0, #1
 80073ec:	9300      	str	r3, [sp, #0]
 80073ee:	e7dd      	b.n	80073ac <_dtoa_r+0xa4>
 80073f0:	ed9d 0b0a 	vldr	d0, [sp, #40]	; 0x28
 80073f4:	aa12      	add	r2, sp, #72	; 0x48
 80073f6:	a913      	add	r1, sp, #76	; 0x4c
 80073f8:	4620      	mov	r0, r4
 80073fa:	f001 f999 	bl	8008730 <__d2b>
 80073fe:	f3c9 550a 	ubfx	r5, r9, #20, #11
 8007402:	4683      	mov	fp, r0
 8007404:	2d00      	cmp	r5, #0
 8007406:	d07c      	beq.n	8007502 <_dtoa_r+0x1fa>
 8007408:	9b0b      	ldr	r3, [sp, #44]	; 0x2c
 800740a:	f8cd 8040 	str.w	r8, [sp, #64]	; 0x40
 800740e:	f3c3 0313 	ubfx	r3, r3, #0, #20
 8007412:	e9dd 670a 	ldrd	r6, r7, [sp, #40]	; 0x28
 8007416:	f043 577f 	orr.w	r7, r3, #1069547520	; 0x3fc00000
 800741a:	f447 1740 	orr.w	r7, r7, #3145728	; 0x300000
 800741e:	f2a5 35ff 	subw	r5, r5, #1023	; 0x3ff
 8007422:	4b7d      	ldr	r3, [pc, #500]	; (8007618 <_dtoa_r+0x310>)
 8007424:	2200      	movs	r2, #0
 8007426:	4630      	mov	r0, r6
 8007428:	4639      	mov	r1, r7
 800742a:	f7f8 ff4d 	bl	80002c8 <__aeabi_dsub>
 800742e:	a36e      	add	r3, pc, #440	; (adr r3, 80075e8 <_dtoa_r+0x2e0>)
 8007430:	e9d3 2300 	ldrd	r2, r3, [r3]
 8007434:	f7f9 f900 	bl	8000638 <__aeabi_dmul>
 8007438:	a36d      	add	r3, pc, #436	; (adr r3, 80075f0 <_dtoa_r+0x2e8>)
 800743a:	e9d3 2300 	ldrd	r2, r3, [r3]
 800743e:	f7f8 ff45 	bl	80002cc <__adddf3>
 8007442:	4606      	mov	r6, r0
 8007444:	4628      	mov	r0, r5
 8007446:	460f      	mov	r7, r1
 8007448:	f7f9 f88c 	bl	8000564 <__aeabi_i2d>
 800744c:	a36a      	add	r3, pc, #424	; (adr r3, 80075f8 <_dtoa_r+0x2f0>)
 800744e:	e9d3 2300 	ldrd	r2, r3, [r3]
 8007452:	f7f9 f8f1 	bl	8000638 <__aeabi_dmul>
 8007456:	4602      	mov	r2, r0
 8007458:	460b      	mov	r3, r1
 800745a:	4630      	mov	r0, r6
 800745c:	4639      	mov	r1, r7
 800745e:	f7f8 ff35 	bl	80002cc <__adddf3>
 8007462:	4606      	mov	r6, r0
 8007464:	460f      	mov	r7, r1
 8007466:	f7f9 fb97 	bl	8000b98 <__aeabi_d2iz>
 800746a:	2200      	movs	r2, #0
 800746c:	4682      	mov	sl, r0
 800746e:	2300      	movs	r3, #0
 8007470:	4630      	mov	r0, r6
 8007472:	4639      	mov	r1, r7
 8007474:	f7f9 fb52 	bl	8000b1c <__aeabi_dcmplt>
 8007478:	b148      	cbz	r0, 800748e <_dtoa_r+0x186>
 800747a:	4650      	mov	r0, sl
 800747c:	f7f9 f872 	bl	8000564 <__aeabi_i2d>
 8007480:	4632      	mov	r2, r6
 8007482:	463b      	mov	r3, r7
 8007484:	f7f9 fb40 	bl	8000b08 <__aeabi_dcmpeq>
 8007488:	b908      	cbnz	r0, 800748e <_dtoa_r+0x186>
 800748a:	f10a 3aff 	add.w	sl, sl, #4294967295
 800748e:	f1ba 0f16 	cmp.w	sl, #22
 8007492:	d854      	bhi.n	800753e <_dtoa_r+0x236>
 8007494:	4b61      	ldr	r3, [pc, #388]	; (800761c <_dtoa_r+0x314>)
 8007496:	eb03 03ca 	add.w	r3, r3, sl, lsl #3
 800749a:	e9d3 2300 	ldrd	r2, r3, [r3]
 800749e:	e9dd 010a 	ldrd	r0, r1, [sp, #40]	; 0x28
 80074a2:	f7f9 fb3b 	bl	8000b1c <__aeabi_dcmplt>
 80074a6:	2800      	cmp	r0, #0
 80074a8:	d04b      	beq.n	8007542 <_dtoa_r+0x23a>
 80074aa:	f10a 3aff 	add.w	sl, sl, #4294967295
 80074ae:	2300      	movs	r3, #0
 80074b0:	930e      	str	r3, [sp, #56]	; 0x38
 80074b2:	9b12      	ldr	r3, [sp, #72]	; 0x48
 80074b4:	1b5d      	subs	r5, r3, r5
 80074b6:	1e6b      	subs	r3, r5, #1
 80074b8:	9304      	str	r3, [sp, #16]
 80074ba:	bf43      	ittte	mi
 80074bc:	2300      	movmi	r3, #0
 80074be:	f1c5 0801 	rsbmi	r8, r5, #1
 80074c2:	9304      	strmi	r3, [sp, #16]
 80074c4:	f04f 0800 	movpl.w	r8, #0
 80074c8:	f1ba 0f00 	cmp.w	sl, #0
 80074cc:	db3b      	blt.n	8007546 <_dtoa_r+0x23e>
 80074ce:	9b04      	ldr	r3, [sp, #16]
 80074d0:	f8cd a034 	str.w	sl, [sp, #52]	; 0x34
 80074d4:	4453      	add	r3, sl
 80074d6:	9304      	str	r3, [sp, #16]
 80074d8:	2300      	movs	r3, #0
 80074da:	9306      	str	r3, [sp, #24]
 80074dc:	9b05      	ldr	r3, [sp, #20]
 80074de:	2b09      	cmp	r3, #9
 80074e0:	d869      	bhi.n	80075b6 <_dtoa_r+0x2ae>
 80074e2:	2b05      	cmp	r3, #5
 80074e4:	bfc4      	itt	gt
 80074e6:	3b04      	subgt	r3, #4
 80074e8:	9305      	strgt	r3, [sp, #20]
 80074ea:	9b05      	ldr	r3, [sp, #20]
 80074ec:	f1a3 0302 	sub.w	r3, r3, #2
 80074f0:	bfcc      	ite	gt
 80074f2:	2500      	movgt	r5, #0
 80074f4:	2501      	movle	r5, #1
 80074f6:	2b03      	cmp	r3, #3
 80074f8:	d869      	bhi.n	80075ce <_dtoa_r+0x2c6>
 80074fa:	e8df f003 	tbb	[pc, r3]
 80074fe:	4e2c      	.short	0x4e2c
 8007500:	5a4c      	.short	0x5a4c
 8007502:	e9dd 5312 	ldrd	r5, r3, [sp, #72]	; 0x48
 8007506:	441d      	add	r5, r3
 8007508:	f205 4332 	addw	r3, r5, #1074	; 0x432
 800750c:	2b20      	cmp	r3, #32
 800750e:	bfc1      	itttt	gt
 8007510:	f1c3 0340 	rsbgt	r3, r3, #64	; 0x40
 8007514:	f205 4012 	addwgt	r0, r5, #1042	; 0x412
 8007518:	fa09 f303 	lslgt.w	r3, r9, r3
 800751c:	fa26 f000 	lsrgt.w	r0, r6, r0
 8007520:	bfda      	itte	le
 8007522:	f1c3 0320 	rsble	r3, r3, #32
 8007526:	fa06 f003 	lslle.w	r0, r6, r3
 800752a:	4318      	orrgt	r0, r3
 800752c:	f7f9 f80a 	bl	8000544 <__aeabi_ui2d>
 8007530:	2301      	movs	r3, #1
 8007532:	4606      	mov	r6, r0
 8007534:	f1a1 77f8 	sub.w	r7, r1, #32505856	; 0x1f00000
 8007538:	3d01      	subs	r5, #1
 800753a:	9310      	str	r3, [sp, #64]	; 0x40
 800753c:	e771      	b.n	8007422 <_dtoa_r+0x11a>
 800753e:	2301      	movs	r3, #1
 8007540:	e7b6      	b.n	80074b0 <_dtoa_r+0x1a8>
 8007542:	900e      	str	r0, [sp, #56]	; 0x38
 8007544:	e7b5      	b.n	80074b2 <_dtoa_r+0x1aa>
 8007546:	f1ca 0300 	rsb	r3, sl, #0
 800754a:	9306      	str	r3, [sp, #24]
 800754c:	2300      	movs	r3, #0
 800754e:	eba8 080a 	sub.w	r8, r8, sl
 8007552:	930d      	str	r3, [sp, #52]	; 0x34
 8007554:	e7c2      	b.n	80074dc <_dtoa_r+0x1d4>
 8007556:	2300      	movs	r3, #0
 8007558:	9308      	str	r3, [sp, #32]
 800755a:	9b09      	ldr	r3, [sp, #36]	; 0x24
 800755c:	2b00      	cmp	r3, #0
 800755e:	dc39      	bgt.n	80075d4 <_dtoa_r+0x2cc>
 8007560:	f04f 0901 	mov.w	r9, #1
 8007564:	f8cd 9004 	str.w	r9, [sp, #4]
 8007568:	464b      	mov	r3, r9
 800756a:	f8cd 9024 	str.w	r9, [sp, #36]	; 0x24
 800756e:	6a60      	ldr	r0, [r4, #36]	; 0x24
 8007570:	2200      	movs	r2, #0
 8007572:	6042      	str	r2, [r0, #4]
 8007574:	2204      	movs	r2, #4
 8007576:	f102 0614 	add.w	r6, r2, #20
 800757a:	429e      	cmp	r6, r3
 800757c:	6841      	ldr	r1, [r0, #4]
 800757e:	d92f      	bls.n	80075e0 <_dtoa_r+0x2d8>
 8007580:	4620      	mov	r0, r4
 8007582:	f000 fdb3 	bl	80080ec <_Balloc>
 8007586:	9000      	str	r0, [sp, #0]
 8007588:	2800      	cmp	r0, #0
 800758a:	d14b      	bne.n	8007624 <_dtoa_r+0x31c>
 800758c:	4b24      	ldr	r3, [pc, #144]	; (8007620 <_dtoa_r+0x318>)
 800758e:	4602      	mov	r2, r0
 8007590:	f44f 71d5 	mov.w	r1, #426	; 0x1aa
 8007594:	e6d1      	b.n	800733a <_dtoa_r+0x32>
 8007596:	2301      	movs	r3, #1
 8007598:	e7de      	b.n	8007558 <_dtoa_r+0x250>
 800759a:	2300      	movs	r3, #0
 800759c:	9308      	str	r3, [sp, #32]
 800759e:	9b09      	ldr	r3, [sp, #36]	; 0x24
 80075a0:	eb0a 0903 	add.w	r9, sl, r3
 80075a4:	f109 0301 	add.w	r3, r9, #1
 80075a8:	2b01      	cmp	r3, #1
 80075aa:	9301      	str	r3, [sp, #4]
 80075ac:	bfb8      	it	lt
 80075ae:	2301      	movlt	r3, #1
 80075b0:	e7dd      	b.n	800756e <_dtoa_r+0x266>
 80075b2:	2301      	movs	r3, #1
 80075b4:	e7f2      	b.n	800759c <_dtoa_r+0x294>
 80075b6:	2501      	movs	r5, #1
 80075b8:	2300      	movs	r3, #0
 80075ba:	9305      	str	r3, [sp, #20]
 80075bc:	9508      	str	r5, [sp, #32]
 80075be:	f04f 39ff 	mov.w	r9, #4294967295
 80075c2:	2200      	movs	r2, #0
 80075c4:	f8cd 9004 	str.w	r9, [sp, #4]
 80075c8:	2312      	movs	r3, #18
 80075ca:	9209      	str	r2, [sp, #36]	; 0x24
 80075cc:	e7cf      	b.n	800756e <_dtoa_r+0x266>
 80075ce:	2301      	movs	r3, #1
 80075d0:	9308      	str	r3, [sp, #32]
 80075d2:	e7f4      	b.n	80075be <_dtoa_r+0x2b6>
 80075d4:	f8dd 9024 	ldr.w	r9, [sp, #36]	; 0x24
 80075d8:	f8cd 9004 	str.w	r9, [sp, #4]
 80075dc:	464b      	mov	r3, r9
 80075de:	e7c6      	b.n	800756e <_dtoa_r+0x266>
 80075e0:	3101      	adds	r1, #1
 80075e2:	6041      	str	r1, [r0, #4]
 80075e4:	0052      	lsls	r2, r2, #1
 80075e6:	e7c6      	b.n	8007576 <_dtoa_r+0x26e>
 80075e8:	636f4361 	.word	0x636f4361
 80075ec:	3fd287a7 	.word	0x3fd287a7
 80075f0:	8b60c8b3 	.word	0x8b60c8b3
 80075f4:	3fc68a28 	.word	0x3fc68a28
 80075f8:	509f79fb 	.word	0x509f79fb
 80075fc:	3fd34413 	.word	0x3fd34413
 8007600:	080096ad 	.word	0x080096ad
 8007604:	080096c4 	.word	0x080096c4
 8007608:	7ff00000 	.word	0x7ff00000
 800760c:	080096a9 	.word	0x080096a9
 8007610:	080096a0 	.word	0x080096a0
 8007614:	0800967d 	.word	0x0800967d
 8007618:	3ff80000 	.word	0x3ff80000
 800761c:	08009820 	.word	0x08009820
 8007620:	08009723 	.word	0x08009723
 8007624:	6a63      	ldr	r3, [r4, #36]	; 0x24
 8007626:	9a00      	ldr	r2, [sp, #0]
 8007628:	601a      	str	r2, [r3, #0]
 800762a:	9b01      	ldr	r3, [sp, #4]
 800762c:	2b0e      	cmp	r3, #14
 800762e:	f200 80ad 	bhi.w	800778c <_dtoa_r+0x484>
 8007632:	2d00      	cmp	r5, #0
 8007634:	f000 80aa 	beq.w	800778c <_dtoa_r+0x484>
 8007638:	f1ba 0f00 	cmp.w	sl, #0
 800763c:	dd36      	ble.n	80076ac <_dtoa_r+0x3a4>
 800763e:	4ac3      	ldr	r2, [pc, #780]	; (800794c <_dtoa_r+0x644>)
 8007640:	f00a 030f 	and.w	r3, sl, #15
 8007644:	eb02 03c3 	add.w	r3, r2, r3, lsl #3
 8007648:	ed93 7b00 	vldr	d7, [r3]
 800764c:	f41a 7f80 	tst.w	sl, #256	; 0x100
 8007650:	ea4f 172a 	mov.w	r7, sl, asr #4
 8007654:	eeb0 8a47 	vmov.f32	s16, s14
 8007658:	eef0 8a67 	vmov.f32	s17, s15
 800765c:	d016      	beq.n	800768c <_dtoa_r+0x384>
 800765e:	4bbc      	ldr	r3, [pc, #752]	; (8007950 <_dtoa_r+0x648>)
 8007660:	e9dd 010a 	ldrd	r0, r1, [sp, #40]	; 0x28
 8007664:	e9d3 2308 	ldrd	r2, r3, [r3, #32]
 8007668:	f7f9 f910 	bl	800088c <__aeabi_ddiv>
 800766c:	e9cd 0102 	strd	r0, r1, [sp, #8]
 8007670:	f007 070f 	and.w	r7, r7, #15
 8007674:	2503      	movs	r5, #3
 8007676:	4eb6      	ldr	r6, [pc, #728]	; (8007950 <_dtoa_r+0x648>)
 8007678:	b957      	cbnz	r7, 8007690 <_dtoa_r+0x388>
 800767a:	e9dd 0102 	ldrd	r0, r1, [sp, #8]
 800767e:	ec53 2b18 	vmov	r2, r3, d8
 8007682:	f7f9 f903 	bl	800088c <__aeabi_ddiv>
 8007686:	e9cd 0102 	strd	r0, r1, [sp, #8]
 800768a:	e029      	b.n	80076e0 <_dtoa_r+0x3d8>
 800768c:	2502      	movs	r5, #2
 800768e:	e7f2      	b.n	8007676 <_dtoa_r+0x36e>
 8007690:	07f9      	lsls	r1, r7, #31
 8007692:	d508      	bpl.n	80076a6 <_dtoa_r+0x39e>
 8007694:	ec51 0b18 	vmov	r0, r1, d8
 8007698:	e9d6 2300 	ldrd	r2, r3, [r6]
 800769c:	f7f8 ffcc 	bl	8000638 <__aeabi_dmul>
 80076a0:	ec41 0b18 	vmov	d8, r0, r1
 80076a4:	3501      	adds	r5, #1
 80076a6:	107f      	asrs	r7, r7, #1
 80076a8:	3608      	adds	r6, #8
 80076aa:	e7e5      	b.n	8007678 <_dtoa_r+0x370>
 80076ac:	f000 80a6 	beq.w	80077fc <_dtoa_r+0x4f4>
 80076b0:	f1ca 0600 	rsb	r6, sl, #0
 80076b4:	4ba5      	ldr	r3, [pc, #660]	; (800794c <_dtoa_r+0x644>)
 80076b6:	4fa6      	ldr	r7, [pc, #664]	; (8007950 <_dtoa_r+0x648>)
 80076b8:	f006 020f 	and.w	r2, r6, #15
 80076bc:	eb03 03c2 	add.w	r3, r3, r2, lsl #3
 80076c0:	e9d3 2300 	ldrd	r2, r3, [r3]
 80076c4:	e9dd 010a 	ldrd	r0, r1, [sp, #40]	; 0x28
 80076c8:	f7f8 ffb6 	bl	8000638 <__aeabi_dmul>
 80076cc:	e9cd 0102 	strd	r0, r1, [sp, #8]
 80076d0:	1136      	asrs	r6, r6, #4
 80076d2:	2300      	movs	r3, #0
 80076d4:	2502      	movs	r5, #2
 80076d6:	2e00      	cmp	r6, #0
 80076d8:	f040 8085 	bne.w	80077e6 <_dtoa_r+0x4de>
 80076dc:	2b00      	cmp	r3, #0
 80076de:	d1d2      	bne.n	8007686 <_dtoa_r+0x37e>
 80076e0:	9b0e      	ldr	r3, [sp, #56]	; 0x38
 80076e2:	2b00      	cmp	r3, #0
 80076e4:	f000 808c 	beq.w	8007800 <_dtoa_r+0x4f8>
 80076e8:	e9dd 6702 	ldrd	r6, r7, [sp, #8]
 80076ec:	4b99      	ldr	r3, [pc, #612]	; (8007954 <_dtoa_r+0x64c>)
 80076ee:	2200      	movs	r2, #0
 80076f0:	4630      	mov	r0, r6
 80076f2:	4639      	mov	r1, r7
 80076f4:	f7f9 fa12 	bl	8000b1c <__aeabi_dcmplt>
 80076f8:	2800      	cmp	r0, #0
 80076fa:	f000 8081 	beq.w	8007800 <_dtoa_r+0x4f8>
 80076fe:	9b01      	ldr	r3, [sp, #4]
 8007700:	2b00      	cmp	r3, #0
 8007702:	d07d      	beq.n	8007800 <_dtoa_r+0x4f8>
 8007704:	f1b9 0f00 	cmp.w	r9, #0
 8007708:	dd3c      	ble.n	8007784 <_dtoa_r+0x47c>
 800770a:	f10a 33ff 	add.w	r3, sl, #4294967295
 800770e:	9307      	str	r3, [sp, #28]
 8007710:	2200      	movs	r2, #0
 8007712:	4b91      	ldr	r3, [pc, #580]	; (8007958 <_dtoa_r+0x650>)
 8007714:	4630      	mov	r0, r6
 8007716:	4639      	mov	r1, r7
 8007718:	f7f8 ff8e 	bl	8000638 <__aeabi_dmul>
 800771c:	e9cd 0102 	strd	r0, r1, [sp, #8]
 8007720:	3501      	adds	r5, #1
 8007722:	f8cd 9030 	str.w	r9, [sp, #48]	; 0x30
 8007726:	e9dd 6702 	ldrd	r6, r7, [sp, #8]
 800772a:	4628      	mov	r0, r5
 800772c:	f7f8 ff1a 	bl	8000564 <__aeabi_i2d>
 8007730:	4632      	mov	r2, r6
 8007732:	463b      	mov	r3, r7
 8007734:	f7f8 ff80 	bl	8000638 <__aeabi_dmul>
 8007738:	4b88      	ldr	r3, [pc, #544]	; (800795c <_dtoa_r+0x654>)
 800773a:	2200      	movs	r2, #0
 800773c:	f7f8 fdc6 	bl	80002cc <__adddf3>
 8007740:	f1a1 7350 	sub.w	r3, r1, #54525952	; 0x3400000
 8007744:	e9cd 0102 	strd	r0, r1, [sp, #8]
 8007748:	9303      	str	r3, [sp, #12]
 800774a:	9b0c      	ldr	r3, [sp, #48]	; 0x30
 800774c:	2b00      	cmp	r3, #0
 800774e:	d15c      	bne.n	800780a <_dtoa_r+0x502>
 8007750:	4b83      	ldr	r3, [pc, #524]	; (8007960 <_dtoa_r+0x658>)
 8007752:	2200      	movs	r2, #0
 8007754:	4630      	mov	r0, r6
 8007756:	4639      	mov	r1, r7
 8007758:	f7f8 fdb6 	bl	80002c8 <__aeabi_dsub>
 800775c:	e9dd 2302 	ldrd	r2, r3, [sp, #8]
 8007760:	4606      	mov	r6, r0
 8007762:	460f      	mov	r7, r1
 8007764:	f7f9 f9f8 	bl	8000b58 <__aeabi_dcmpgt>
 8007768:	2800      	cmp	r0, #0
 800776a:	f040 8296 	bne.w	8007c9a <_dtoa_r+0x992>
 800776e:	e9dd 2102 	ldrd	r2, r1, [sp, #8]
 8007772:	4630      	mov	r0, r6
 8007774:	f101 4300 	add.w	r3, r1, #2147483648	; 0x80000000
 8007778:	4639      	mov	r1, r7
 800777a:	f7f9 f9cf 	bl	8000b1c <__aeabi_dcmplt>
 800777e:	2800      	cmp	r0, #0
 8007780:	f040 8288 	bne.w	8007c94 <_dtoa_r+0x98c>
 8007784:	e9dd 230a 	ldrd	r2, r3, [sp, #40]	; 0x28
 8007788:	e9cd 2302 	strd	r2, r3, [sp, #8]
 800778c:	9b13      	ldr	r3, [sp, #76]	; 0x4c
 800778e:	2b00      	cmp	r3, #0
 8007790:	f2c0 8158 	blt.w	8007a44 <_dtoa_r+0x73c>
 8007794:	f1ba 0f0e 	cmp.w	sl, #14
 8007798:	f300 8154 	bgt.w	8007a44 <_dtoa_r+0x73c>
 800779c:	4b6b      	ldr	r3, [pc, #428]	; (800794c <_dtoa_r+0x644>)
 800779e:	eb03 03ca 	add.w	r3, r3, sl, lsl #3
 80077a2:	e9d3 8900 	ldrd	r8, r9, [r3]
 80077a6:	9b09      	ldr	r3, [sp, #36]	; 0x24
 80077a8:	2b00      	cmp	r3, #0
 80077aa:	f280 80e3 	bge.w	8007974 <_dtoa_r+0x66c>
 80077ae:	9b01      	ldr	r3, [sp, #4]
 80077b0:	2b00      	cmp	r3, #0
 80077b2:	f300 80df 	bgt.w	8007974 <_dtoa_r+0x66c>
 80077b6:	f040 826d 	bne.w	8007c94 <_dtoa_r+0x98c>
 80077ba:	4b69      	ldr	r3, [pc, #420]	; (8007960 <_dtoa_r+0x658>)
 80077bc:	2200      	movs	r2, #0
 80077be:	4640      	mov	r0, r8
 80077c0:	4649      	mov	r1, r9
 80077c2:	f7f8 ff39 	bl	8000638 <__aeabi_dmul>
 80077c6:	e9dd 2302 	ldrd	r2, r3, [sp, #8]
 80077ca:	f7f9 f9bb 	bl	8000b44 <__aeabi_dcmpge>
 80077ce:	9e01      	ldr	r6, [sp, #4]
 80077d0:	4637      	mov	r7, r6
 80077d2:	2800      	cmp	r0, #0
 80077d4:	f040 8243 	bne.w	8007c5e <_dtoa_r+0x956>
 80077d8:	9d00      	ldr	r5, [sp, #0]
 80077da:	2331      	movs	r3, #49	; 0x31
 80077dc:	f805 3b01 	strb.w	r3, [r5], #1
 80077e0:	f10a 0a01 	add.w	sl, sl, #1
 80077e4:	e23f      	b.n	8007c66 <_dtoa_r+0x95e>
 80077e6:	07f2      	lsls	r2, r6, #31
 80077e8:	d505      	bpl.n	80077f6 <_dtoa_r+0x4ee>
 80077ea:	e9d7 2300 	ldrd	r2, r3, [r7]
 80077ee:	f7f8 ff23 	bl	8000638 <__aeabi_dmul>
 80077f2:	3501      	adds	r5, #1
 80077f4:	2301      	movs	r3, #1
 80077f6:	1076      	asrs	r6, r6, #1
 80077f8:	3708      	adds	r7, #8
 80077fa:	e76c      	b.n	80076d6 <_dtoa_r+0x3ce>
 80077fc:	2502      	movs	r5, #2
 80077fe:	e76f      	b.n	80076e0 <_dtoa_r+0x3d8>
 8007800:	9b01      	ldr	r3, [sp, #4]
 8007802:	f8cd a01c 	str.w	sl, [sp, #28]
 8007806:	930c      	str	r3, [sp, #48]	; 0x30
 8007808:	e78d      	b.n	8007726 <_dtoa_r+0x41e>
 800780a:	9900      	ldr	r1, [sp, #0]
 800780c:	980c      	ldr	r0, [sp, #48]	; 0x30
 800780e:	9a0c      	ldr	r2, [sp, #48]	; 0x30
 8007810:	4b4e      	ldr	r3, [pc, #312]	; (800794c <_dtoa_r+0x644>)
 8007812:	ed9d 7b02 	vldr	d7, [sp, #8]
 8007816:	4401      	add	r1, r0
 8007818:	9102      	str	r1, [sp, #8]
 800781a:	9908      	ldr	r1, [sp, #32]
 800781c:	eeb0 8a47 	vmov.f32	s16, s14
 8007820:	eef0 8a67 	vmov.f32	s17, s15
 8007824:	eb03 03c2 	add.w	r3, r3, r2, lsl #3
 8007828:	e953 2302 	ldrd	r2, r3, [r3, #-8]
 800782c:	2900      	cmp	r1, #0
 800782e:	d045      	beq.n	80078bc <_dtoa_r+0x5b4>
 8007830:	494c      	ldr	r1, [pc, #304]	; (8007964 <_dtoa_r+0x65c>)
 8007832:	2000      	movs	r0, #0
 8007834:	f7f9 f82a 	bl	800088c <__aeabi_ddiv>
 8007838:	ec53 2b18 	vmov	r2, r3, d8
 800783c:	f7f8 fd44 	bl	80002c8 <__aeabi_dsub>
 8007840:	9d00      	ldr	r5, [sp, #0]
 8007842:	ec41 0b18 	vmov	d8, r0, r1
 8007846:	4639      	mov	r1, r7
 8007848:	4630      	mov	r0, r6
 800784a:	f7f9 f9a5 	bl	8000b98 <__aeabi_d2iz>
 800784e:	900c      	str	r0, [sp, #48]	; 0x30
 8007850:	f7f8 fe88 	bl	8000564 <__aeabi_i2d>
 8007854:	4602      	mov	r2, r0
 8007856:	460b      	mov	r3, r1
 8007858:	4630      	mov	r0, r6
 800785a:	4639      	mov	r1, r7
 800785c:	f7f8 fd34 	bl	80002c8 <__aeabi_dsub>
 8007860:	9b0c      	ldr	r3, [sp, #48]	; 0x30
 8007862:	3330      	adds	r3, #48	; 0x30
 8007864:	f805 3b01 	strb.w	r3, [r5], #1
 8007868:	ec53 2b18 	vmov	r2, r3, d8
 800786c:	4606      	mov	r6, r0
 800786e:	460f      	mov	r7, r1
 8007870:	f7f9 f954 	bl	8000b1c <__aeabi_dcmplt>
 8007874:	2800      	cmp	r0, #0
 8007876:	d165      	bne.n	8007944 <_dtoa_r+0x63c>
 8007878:	4632      	mov	r2, r6
 800787a:	463b      	mov	r3, r7
 800787c:	4935      	ldr	r1, [pc, #212]	; (8007954 <_dtoa_r+0x64c>)
 800787e:	2000      	movs	r0, #0
 8007880:	f7f8 fd22 	bl	80002c8 <__aeabi_dsub>
 8007884:	ec53 2b18 	vmov	r2, r3, d8
 8007888:	f7f9 f948 	bl	8000b1c <__aeabi_dcmplt>
 800788c:	2800      	cmp	r0, #0
 800788e:	f040 80b9 	bne.w	8007a04 <_dtoa_r+0x6fc>
 8007892:	9b02      	ldr	r3, [sp, #8]
 8007894:	429d      	cmp	r5, r3
 8007896:	f43f af75 	beq.w	8007784 <_dtoa_r+0x47c>
 800789a:	4b2f      	ldr	r3, [pc, #188]	; (8007958 <_dtoa_r+0x650>)
 800789c:	ec51 0b18 	vmov	r0, r1, d8
 80078a0:	2200      	movs	r2, #0
 80078a2:	f7f8 fec9 	bl	8000638 <__aeabi_dmul>
 80078a6:	4b2c      	ldr	r3, [pc, #176]	; (8007958 <_dtoa_r+0x650>)
 80078a8:	ec41 0b18 	vmov	d8, r0, r1
 80078ac:	2200      	movs	r2, #0
 80078ae:	4630      	mov	r0, r6
 80078b0:	4639      	mov	r1, r7
 80078b2:	f7f8 fec1 	bl	8000638 <__aeabi_dmul>
 80078b6:	4606      	mov	r6, r0
 80078b8:	460f      	mov	r7, r1
 80078ba:	e7c4      	b.n	8007846 <_dtoa_r+0x53e>
 80078bc:	ec51 0b17 	vmov	r0, r1, d7
 80078c0:	f7f8 feba 	bl	8000638 <__aeabi_dmul>
 80078c4:	9b02      	ldr	r3, [sp, #8]
 80078c6:	9d00      	ldr	r5, [sp, #0]
 80078c8:	930c      	str	r3, [sp, #48]	; 0x30
 80078ca:	ec41 0b18 	vmov	d8, r0, r1
 80078ce:	4639      	mov	r1, r7
 80078d0:	4630      	mov	r0, r6
 80078d2:	f7f9 f961 	bl	8000b98 <__aeabi_d2iz>
 80078d6:	9011      	str	r0, [sp, #68]	; 0x44
 80078d8:	f7f8 fe44 	bl	8000564 <__aeabi_i2d>
 80078dc:	4602      	mov	r2, r0
 80078de:	460b      	mov	r3, r1
 80078e0:	4630      	mov	r0, r6
 80078e2:	4639      	mov	r1, r7
 80078e4:	f7f8 fcf0 	bl	80002c8 <__aeabi_dsub>
 80078e8:	9b11      	ldr	r3, [sp, #68]	; 0x44
 80078ea:	3330      	adds	r3, #48	; 0x30
 80078ec:	f805 3b01 	strb.w	r3, [r5], #1
 80078f0:	9b02      	ldr	r3, [sp, #8]
 80078f2:	429d      	cmp	r5, r3
 80078f4:	4606      	mov	r6, r0
 80078f6:	460f      	mov	r7, r1
 80078f8:	f04f 0200 	mov.w	r2, #0
 80078fc:	d134      	bne.n	8007968 <_dtoa_r+0x660>
 80078fe:	4b19      	ldr	r3, [pc, #100]	; (8007964 <_dtoa_r+0x65c>)
 8007900:	ec51 0b18 	vmov	r0, r1, d8
 8007904:	f7f8 fce2 	bl	80002cc <__adddf3>
 8007908:	4602      	mov	r2, r0
 800790a:	460b      	mov	r3, r1
 800790c:	4630      	mov	r0, r6
 800790e:	4639      	mov	r1, r7
 8007910:	f7f9 f922 	bl	8000b58 <__aeabi_dcmpgt>
 8007914:	2800      	cmp	r0, #0
 8007916:	d175      	bne.n	8007a04 <_dtoa_r+0x6fc>
 8007918:	ec53 2b18 	vmov	r2, r3, d8
 800791c:	4911      	ldr	r1, [pc, #68]	; (8007964 <_dtoa_r+0x65c>)
 800791e:	2000      	movs	r0, #0
 8007920:	f7f8 fcd2 	bl	80002c8 <__aeabi_dsub>
 8007924:	4602      	mov	r2, r0
 8007926:	460b      	mov	r3, r1
 8007928:	4630      	mov	r0, r6
 800792a:	4639      	mov	r1, r7
 800792c:	f7f9 f8f6 	bl	8000b1c <__aeabi_dcmplt>
 8007930:	2800      	cmp	r0, #0
 8007932:	f43f af27 	beq.w	8007784 <_dtoa_r+0x47c>
 8007936:	9d0c      	ldr	r5, [sp, #48]	; 0x30
 8007938:	1e6b      	subs	r3, r5, #1
 800793a:	930c      	str	r3, [sp, #48]	; 0x30
 800793c:	f815 3c01 	ldrb.w	r3, [r5, #-1]
 8007940:	2b30      	cmp	r3, #48	; 0x30
 8007942:	d0f8      	beq.n	8007936 <_dtoa_r+0x62e>
 8007944:	f8dd a01c 	ldr.w	sl, [sp, #28]
 8007948:	e04a      	b.n	80079e0 <_dtoa_r+0x6d8>
 800794a:	bf00      	nop
 800794c:	08009820 	.word	0x08009820
 8007950:	080097f8 	.word	0x080097f8
 8007954:	3ff00000 	.word	0x3ff00000
 8007958:	40240000 	.word	0x40240000
 800795c:	401c0000 	.word	0x401c0000
 8007960:	40140000 	.word	0x40140000
 8007964:	3fe00000 	.word	0x3fe00000
 8007968:	4baf      	ldr	r3, [pc, #700]	; (8007c28 <_dtoa_r+0x920>)
 800796a:	f7f8 fe65 	bl	8000638 <__aeabi_dmul>
 800796e:	4606      	mov	r6, r0
 8007970:	460f      	mov	r7, r1
 8007972:	e7ac      	b.n	80078ce <_dtoa_r+0x5c6>
 8007974:	e9dd 6702 	ldrd	r6, r7, [sp, #8]
 8007978:	9d00      	ldr	r5, [sp, #0]
 800797a:	4642      	mov	r2, r8
 800797c:	464b      	mov	r3, r9
 800797e:	4630      	mov	r0, r6
 8007980:	4639      	mov	r1, r7
 8007982:	f7f8 ff83 	bl	800088c <__aeabi_ddiv>
 8007986:	f7f9 f907 	bl	8000b98 <__aeabi_d2iz>
 800798a:	9002      	str	r0, [sp, #8]
 800798c:	f7f8 fdea 	bl	8000564 <__aeabi_i2d>
 8007990:	4642      	mov	r2, r8
 8007992:	464b      	mov	r3, r9
 8007994:	f7f8 fe50 	bl	8000638 <__aeabi_dmul>
 8007998:	4602      	mov	r2, r0
 800799a:	460b      	mov	r3, r1
 800799c:	4630      	mov	r0, r6
 800799e:	4639      	mov	r1, r7
 80079a0:	f7f8 fc92 	bl	80002c8 <__aeabi_dsub>
 80079a4:	9e02      	ldr	r6, [sp, #8]
 80079a6:	9f01      	ldr	r7, [sp, #4]
 80079a8:	3630      	adds	r6, #48	; 0x30
 80079aa:	f805 6b01 	strb.w	r6, [r5], #1
 80079ae:	9e00      	ldr	r6, [sp, #0]
 80079b0:	1bae      	subs	r6, r5, r6
 80079b2:	42b7      	cmp	r7, r6
 80079b4:	4602      	mov	r2, r0
 80079b6:	460b      	mov	r3, r1
 80079b8:	d137      	bne.n	8007a2a <_dtoa_r+0x722>
 80079ba:	f7f8 fc87 	bl	80002cc <__adddf3>
 80079be:	4642      	mov	r2, r8
 80079c0:	464b      	mov	r3, r9
 80079c2:	4606      	mov	r6, r0
 80079c4:	460f      	mov	r7, r1
 80079c6:	f7f9 f8c7 	bl	8000b58 <__aeabi_dcmpgt>
 80079ca:	b9c8      	cbnz	r0, 8007a00 <_dtoa_r+0x6f8>
 80079cc:	4642      	mov	r2, r8
 80079ce:	464b      	mov	r3, r9
 80079d0:	4630      	mov	r0, r6
 80079d2:	4639      	mov	r1, r7
 80079d4:	f7f9 f898 	bl	8000b08 <__aeabi_dcmpeq>
 80079d8:	b110      	cbz	r0, 80079e0 <_dtoa_r+0x6d8>
 80079da:	9b02      	ldr	r3, [sp, #8]
 80079dc:	07d9      	lsls	r1, r3, #31
 80079de:	d40f      	bmi.n	8007a00 <_dtoa_r+0x6f8>
 80079e0:	4620      	mov	r0, r4
 80079e2:	4659      	mov	r1, fp
 80079e4:	f000 fbc2 	bl	800816c <_Bfree>
 80079e8:	2300      	movs	r3, #0
 80079ea:	702b      	strb	r3, [r5, #0]
 80079ec:	9b0f      	ldr	r3, [sp, #60]	; 0x3c
 80079ee:	f10a 0001 	add.w	r0, sl, #1
 80079f2:	6018      	str	r0, [r3, #0]
 80079f4:	9b21      	ldr	r3, [sp, #132]	; 0x84
 80079f6:	2b00      	cmp	r3, #0
 80079f8:	f43f acd8 	beq.w	80073ac <_dtoa_r+0xa4>
 80079fc:	601d      	str	r5, [r3, #0]
 80079fe:	e4d5      	b.n	80073ac <_dtoa_r+0xa4>
 8007a00:	f8cd a01c 	str.w	sl, [sp, #28]
 8007a04:	462b      	mov	r3, r5
 8007a06:	461d      	mov	r5, r3
 8007a08:	f813 2d01 	ldrb.w	r2, [r3, #-1]!
 8007a0c:	2a39      	cmp	r2, #57	; 0x39
 8007a0e:	d108      	bne.n	8007a22 <_dtoa_r+0x71a>
 8007a10:	9a00      	ldr	r2, [sp, #0]
 8007a12:	429a      	cmp	r2, r3
 8007a14:	d1f7      	bne.n	8007a06 <_dtoa_r+0x6fe>
 8007a16:	9a07      	ldr	r2, [sp, #28]
 8007a18:	9900      	ldr	r1, [sp, #0]
 8007a1a:	3201      	adds	r2, #1
 8007a1c:	9207      	str	r2, [sp, #28]
 8007a1e:	2230      	movs	r2, #48	; 0x30
 8007a20:	700a      	strb	r2, [r1, #0]
 8007a22:	781a      	ldrb	r2, [r3, #0]
 8007a24:	3201      	adds	r2, #1
 8007a26:	701a      	strb	r2, [r3, #0]
 8007a28:	e78c      	b.n	8007944 <_dtoa_r+0x63c>
 8007a2a:	4b7f      	ldr	r3, [pc, #508]	; (8007c28 <_dtoa_r+0x920>)
 8007a2c:	2200      	movs	r2, #0
 8007a2e:	f7f8 fe03 	bl	8000638 <__aeabi_dmul>
 8007a32:	2200      	movs	r2, #0
 8007a34:	2300      	movs	r3, #0
 8007a36:	4606      	mov	r6, r0
 8007a38:	460f      	mov	r7, r1
 8007a3a:	f7f9 f865 	bl	8000b08 <__aeabi_dcmpeq>
 8007a3e:	2800      	cmp	r0, #0
 8007a40:	d09b      	beq.n	800797a <_dtoa_r+0x672>
 8007a42:	e7cd      	b.n	80079e0 <_dtoa_r+0x6d8>
 8007a44:	9a08      	ldr	r2, [sp, #32]
 8007a46:	2a00      	cmp	r2, #0
 8007a48:	f000 80c4 	beq.w	8007bd4 <_dtoa_r+0x8cc>
 8007a4c:	9a05      	ldr	r2, [sp, #20]
 8007a4e:	2a01      	cmp	r2, #1
 8007a50:	f300 80a8 	bgt.w	8007ba4 <_dtoa_r+0x89c>
 8007a54:	9a10      	ldr	r2, [sp, #64]	; 0x40
 8007a56:	2a00      	cmp	r2, #0
 8007a58:	f000 80a0 	beq.w	8007b9c <_dtoa_r+0x894>
 8007a5c:	f203 4333 	addw	r3, r3, #1075	; 0x433
 8007a60:	9e06      	ldr	r6, [sp, #24]
 8007a62:	4645      	mov	r5, r8
 8007a64:	9a04      	ldr	r2, [sp, #16]
 8007a66:	2101      	movs	r1, #1
 8007a68:	441a      	add	r2, r3
 8007a6a:	4620      	mov	r0, r4
 8007a6c:	4498      	add	r8, r3
 8007a6e:	9204      	str	r2, [sp, #16]
 8007a70:	f000 fc38 	bl	80082e4 <__i2b>
 8007a74:	4607      	mov	r7, r0
 8007a76:	2d00      	cmp	r5, #0
 8007a78:	dd0b      	ble.n	8007a92 <_dtoa_r+0x78a>
 8007a7a:	9b04      	ldr	r3, [sp, #16]
 8007a7c:	2b00      	cmp	r3, #0
 8007a7e:	dd08      	ble.n	8007a92 <_dtoa_r+0x78a>
 8007a80:	42ab      	cmp	r3, r5
 8007a82:	9a04      	ldr	r2, [sp, #16]
 8007a84:	bfa8      	it	ge
 8007a86:	462b      	movge	r3, r5
 8007a88:	eba8 0803 	sub.w	r8, r8, r3
 8007a8c:	1aed      	subs	r5, r5, r3
 8007a8e:	1ad3      	subs	r3, r2, r3
 8007a90:	9304      	str	r3, [sp, #16]
 8007a92:	9b06      	ldr	r3, [sp, #24]
 8007a94:	b1fb      	cbz	r3, 8007ad6 <_dtoa_r+0x7ce>
 8007a96:	9b08      	ldr	r3, [sp, #32]
 8007a98:	2b00      	cmp	r3, #0
 8007a9a:	f000 809f 	beq.w	8007bdc <_dtoa_r+0x8d4>
 8007a9e:	2e00      	cmp	r6, #0
 8007aa0:	dd11      	ble.n	8007ac6 <_dtoa_r+0x7be>
 8007aa2:	4639      	mov	r1, r7
 8007aa4:	4632      	mov	r2, r6
 8007aa6:	4620      	mov	r0, r4
 8007aa8:	f000 fcd8 	bl	800845c <__pow5mult>
 8007aac:	465a      	mov	r2, fp
 8007aae:	4601      	mov	r1, r0
 8007ab0:	4607      	mov	r7, r0
 8007ab2:	4620      	mov	r0, r4
 8007ab4:	f000 fc2c 	bl	8008310 <__multiply>
 8007ab8:	4659      	mov	r1, fp
 8007aba:	9007      	str	r0, [sp, #28]
 8007abc:	4620      	mov	r0, r4
 8007abe:	f000 fb55 	bl	800816c <_Bfree>
 8007ac2:	9b07      	ldr	r3, [sp, #28]
 8007ac4:	469b      	mov	fp, r3
 8007ac6:	9b06      	ldr	r3, [sp, #24]
 8007ac8:	1b9a      	subs	r2, r3, r6
 8007aca:	d004      	beq.n	8007ad6 <_dtoa_r+0x7ce>
 8007acc:	4659      	mov	r1, fp
 8007ace:	4620      	mov	r0, r4
 8007ad0:	f000 fcc4 	bl	800845c <__pow5mult>
 8007ad4:	4683      	mov	fp, r0
 8007ad6:	2101      	movs	r1, #1
 8007ad8:	4620      	mov	r0, r4
 8007ada:	f000 fc03 	bl	80082e4 <__i2b>
 8007ade:	9b0d      	ldr	r3, [sp, #52]	; 0x34
 8007ae0:	2b00      	cmp	r3, #0
 8007ae2:	4606      	mov	r6, r0
 8007ae4:	dd7c      	ble.n	8007be0 <_dtoa_r+0x8d8>
 8007ae6:	461a      	mov	r2, r3
 8007ae8:	4601      	mov	r1, r0
 8007aea:	4620      	mov	r0, r4
 8007aec:	f000 fcb6 	bl	800845c <__pow5mult>
 8007af0:	9b05      	ldr	r3, [sp, #20]
 8007af2:	2b01      	cmp	r3, #1
 8007af4:	4606      	mov	r6, r0
 8007af6:	dd76      	ble.n	8007be6 <_dtoa_r+0x8de>
 8007af8:	2300      	movs	r3, #0
 8007afa:	9306      	str	r3, [sp, #24]
 8007afc:	6933      	ldr	r3, [r6, #16]
 8007afe:	eb06 0383 	add.w	r3, r6, r3, lsl #2
 8007b02:	6918      	ldr	r0, [r3, #16]
 8007b04:	f000 fb9e 	bl	8008244 <__hi0bits>
 8007b08:	f1c0 0020 	rsb	r0, r0, #32
 8007b0c:	9b04      	ldr	r3, [sp, #16]
 8007b0e:	4418      	add	r0, r3
 8007b10:	f010 001f 	ands.w	r0, r0, #31
 8007b14:	f000 8086 	beq.w	8007c24 <_dtoa_r+0x91c>
 8007b18:	f1c0 0320 	rsb	r3, r0, #32
 8007b1c:	2b04      	cmp	r3, #4
 8007b1e:	dd7f      	ble.n	8007c20 <_dtoa_r+0x918>
 8007b20:	f1c0 001c 	rsb	r0, r0, #28
 8007b24:	9b04      	ldr	r3, [sp, #16]
 8007b26:	4403      	add	r3, r0
 8007b28:	4480      	add	r8, r0
 8007b2a:	4405      	add	r5, r0
 8007b2c:	9304      	str	r3, [sp, #16]
 8007b2e:	f1b8 0f00 	cmp.w	r8, #0
 8007b32:	dd05      	ble.n	8007b40 <_dtoa_r+0x838>
 8007b34:	4659      	mov	r1, fp
 8007b36:	4642      	mov	r2, r8
 8007b38:	4620      	mov	r0, r4
 8007b3a:	f000 fce9 	bl	8008510 <__lshift>
 8007b3e:	4683      	mov	fp, r0
 8007b40:	9b04      	ldr	r3, [sp, #16]
 8007b42:	2b00      	cmp	r3, #0
 8007b44:	dd05      	ble.n	8007b52 <_dtoa_r+0x84a>
 8007b46:	4631      	mov	r1, r6
 8007b48:	461a      	mov	r2, r3
 8007b4a:	4620      	mov	r0, r4
 8007b4c:	f000 fce0 	bl	8008510 <__lshift>
 8007b50:	4606      	mov	r6, r0
 8007b52:	9b0e      	ldr	r3, [sp, #56]	; 0x38
 8007b54:	2b00      	cmp	r3, #0
 8007b56:	d069      	beq.n	8007c2c <_dtoa_r+0x924>
 8007b58:	4631      	mov	r1, r6
 8007b5a:	4658      	mov	r0, fp
 8007b5c:	f000 fd44 	bl	80085e8 <__mcmp>
 8007b60:	2800      	cmp	r0, #0
 8007b62:	da63      	bge.n	8007c2c <_dtoa_r+0x924>
 8007b64:	2300      	movs	r3, #0
 8007b66:	4659      	mov	r1, fp
 8007b68:	220a      	movs	r2, #10
 8007b6a:	4620      	mov	r0, r4
 8007b6c:	f000 fb20 	bl	80081b0 <__multadd>
 8007b70:	9b08      	ldr	r3, [sp, #32]
 8007b72:	f10a 3aff 	add.w	sl, sl, #4294967295
 8007b76:	4683      	mov	fp, r0
 8007b78:	2b00      	cmp	r3, #0
 8007b7a:	f000 818f 	beq.w	8007e9c <_dtoa_r+0xb94>
 8007b7e:	4639      	mov	r1, r7
 8007b80:	2300      	movs	r3, #0
 8007b82:	220a      	movs	r2, #10
 8007b84:	4620      	mov	r0, r4
 8007b86:	f000 fb13 	bl	80081b0 <__multadd>
 8007b8a:	f1b9 0f00 	cmp.w	r9, #0
 8007b8e:	4607      	mov	r7, r0
 8007b90:	f300 808e 	bgt.w	8007cb0 <_dtoa_r+0x9a8>
 8007b94:	9b05      	ldr	r3, [sp, #20]
 8007b96:	2b02      	cmp	r3, #2
 8007b98:	dc50      	bgt.n	8007c3c <_dtoa_r+0x934>
 8007b9a:	e089      	b.n	8007cb0 <_dtoa_r+0x9a8>
 8007b9c:	9b12      	ldr	r3, [sp, #72]	; 0x48
 8007b9e:	f1c3 0336 	rsb	r3, r3, #54	; 0x36
 8007ba2:	e75d      	b.n	8007a60 <_dtoa_r+0x758>
 8007ba4:	9b01      	ldr	r3, [sp, #4]
 8007ba6:	1e5e      	subs	r6, r3, #1
 8007ba8:	9b06      	ldr	r3, [sp, #24]
 8007baa:	42b3      	cmp	r3, r6
 8007bac:	bfbf      	itttt	lt
 8007bae:	9b06      	ldrlt	r3, [sp, #24]
 8007bb0:	9606      	strlt	r6, [sp, #24]
 8007bb2:	1af2      	sublt	r2, r6, r3
 8007bb4:	9b0d      	ldrlt	r3, [sp, #52]	; 0x34
 8007bb6:	bfb6      	itet	lt
 8007bb8:	189b      	addlt	r3, r3, r2
 8007bba:	1b9e      	subge	r6, r3, r6
 8007bbc:	930d      	strlt	r3, [sp, #52]	; 0x34
 8007bbe:	9b01      	ldr	r3, [sp, #4]
 8007bc0:	bfb8      	it	lt
 8007bc2:	2600      	movlt	r6, #0
 8007bc4:	2b00      	cmp	r3, #0
 8007bc6:	bfb5      	itete	lt
 8007bc8:	eba8 0503 	sublt.w	r5, r8, r3
 8007bcc:	9b01      	ldrge	r3, [sp, #4]
 8007bce:	2300      	movlt	r3, #0
 8007bd0:	4645      	movge	r5, r8
 8007bd2:	e747      	b.n	8007a64 <_dtoa_r+0x75c>
 8007bd4:	9e06      	ldr	r6, [sp, #24]
 8007bd6:	9f08      	ldr	r7, [sp, #32]
 8007bd8:	4645      	mov	r5, r8
 8007bda:	e74c      	b.n	8007a76 <_dtoa_r+0x76e>
 8007bdc:	9a06      	ldr	r2, [sp, #24]
 8007bde:	e775      	b.n	8007acc <_dtoa_r+0x7c4>
 8007be0:	9b05      	ldr	r3, [sp, #20]
 8007be2:	2b01      	cmp	r3, #1
 8007be4:	dc18      	bgt.n	8007c18 <_dtoa_r+0x910>
 8007be6:	9b02      	ldr	r3, [sp, #8]
 8007be8:	b9b3      	cbnz	r3, 8007c18 <_dtoa_r+0x910>
 8007bea:	9b03      	ldr	r3, [sp, #12]
 8007bec:	f3c3 0313 	ubfx	r3, r3, #0, #20
 8007bf0:	b9a3      	cbnz	r3, 8007c1c <_dtoa_r+0x914>
 8007bf2:	9b03      	ldr	r3, [sp, #12]
 8007bf4:	f023 4300 	bic.w	r3, r3, #2147483648	; 0x80000000
 8007bf8:	0d1b      	lsrs	r3, r3, #20
 8007bfa:	051b      	lsls	r3, r3, #20
 8007bfc:	b12b      	cbz	r3, 8007c0a <_dtoa_r+0x902>
 8007bfe:	9b04      	ldr	r3, [sp, #16]
 8007c00:	3301      	adds	r3, #1
 8007c02:	9304      	str	r3, [sp, #16]
 8007c04:	f108 0801 	add.w	r8, r8, #1
 8007c08:	2301      	movs	r3, #1
 8007c0a:	9306      	str	r3, [sp, #24]
 8007c0c:	9b0d      	ldr	r3, [sp, #52]	; 0x34
 8007c0e:	2b00      	cmp	r3, #0
 8007c10:	f47f af74 	bne.w	8007afc <_dtoa_r+0x7f4>
 8007c14:	2001      	movs	r0, #1
 8007c16:	e779      	b.n	8007b0c <_dtoa_r+0x804>
 8007c18:	2300      	movs	r3, #0
 8007c1a:	e7f6      	b.n	8007c0a <_dtoa_r+0x902>
 8007c1c:	9b02      	ldr	r3, [sp, #8]
 8007c1e:	e7f4      	b.n	8007c0a <_dtoa_r+0x902>
 8007c20:	d085      	beq.n	8007b2e <_dtoa_r+0x826>
 8007c22:	4618      	mov	r0, r3
 8007c24:	301c      	adds	r0, #28
 8007c26:	e77d      	b.n	8007b24 <_dtoa_r+0x81c>
 8007c28:	40240000 	.word	0x40240000
 8007c2c:	9b01      	ldr	r3, [sp, #4]
 8007c2e:	2b00      	cmp	r3, #0
 8007c30:	dc38      	bgt.n	8007ca4 <_dtoa_r+0x99c>
 8007c32:	9b05      	ldr	r3, [sp, #20]
 8007c34:	2b02      	cmp	r3, #2
 8007c36:	dd35      	ble.n	8007ca4 <_dtoa_r+0x99c>
 8007c38:	f8dd 9004 	ldr.w	r9, [sp, #4]
 8007c3c:	f1b9 0f00 	cmp.w	r9, #0
 8007c40:	d10d      	bne.n	8007c5e <_dtoa_r+0x956>
 8007c42:	4631      	mov	r1, r6
 8007c44:	464b      	mov	r3, r9
 8007c46:	2205      	movs	r2, #5
 8007c48:	4620      	mov	r0, r4
 8007c4a:	f000 fab1 	bl	80081b0 <__multadd>
 8007c4e:	4601      	mov	r1, r0
 8007c50:	4606      	mov	r6, r0
 8007c52:	4658      	mov	r0, fp
 8007c54:	f000 fcc8 	bl	80085e8 <__mcmp>
 8007c58:	2800      	cmp	r0, #0
 8007c5a:	f73f adbd 	bgt.w	80077d8 <_dtoa_r+0x4d0>
 8007c5e:	9b09      	ldr	r3, [sp, #36]	; 0x24
 8007c60:	9d00      	ldr	r5, [sp, #0]
 8007c62:	ea6f 0a03 	mvn.w	sl, r3
 8007c66:	f04f 0800 	mov.w	r8, #0
 8007c6a:	4631      	mov	r1, r6
 8007c6c:	4620      	mov	r0, r4
 8007c6e:	f000 fa7d 	bl	800816c <_Bfree>
 8007c72:	2f00      	cmp	r7, #0
 8007c74:	f43f aeb4 	beq.w	80079e0 <_dtoa_r+0x6d8>
 8007c78:	f1b8 0f00 	cmp.w	r8, #0
 8007c7c:	d005      	beq.n	8007c8a <_dtoa_r+0x982>
 8007c7e:	45b8      	cmp	r8, r7
 8007c80:	d003      	beq.n	8007c8a <_dtoa_r+0x982>
 8007c82:	4641      	mov	r1, r8
 8007c84:	4620      	mov	r0, r4
 8007c86:	f000 fa71 	bl	800816c <_Bfree>
 8007c8a:	4639      	mov	r1, r7
 8007c8c:	4620      	mov	r0, r4
 8007c8e:	f000 fa6d 	bl	800816c <_Bfree>
 8007c92:	e6a5      	b.n	80079e0 <_dtoa_r+0x6d8>
 8007c94:	2600      	movs	r6, #0
 8007c96:	4637      	mov	r7, r6
 8007c98:	e7e1      	b.n	8007c5e <_dtoa_r+0x956>
 8007c9a:	9e0c      	ldr	r6, [sp, #48]	; 0x30
 8007c9c:	f8dd a01c 	ldr.w	sl, [sp, #28]
 8007ca0:	4637      	mov	r7, r6
 8007ca2:	e599      	b.n	80077d8 <_dtoa_r+0x4d0>
 8007ca4:	9b08      	ldr	r3, [sp, #32]
 8007ca6:	f8dd 9004 	ldr.w	r9, [sp, #4]
 8007caa:	2b00      	cmp	r3, #0
 8007cac:	f000 80fd 	beq.w	8007eaa <_dtoa_r+0xba2>
 8007cb0:	2d00      	cmp	r5, #0
 8007cb2:	dd05      	ble.n	8007cc0 <_dtoa_r+0x9b8>
 8007cb4:	4639      	mov	r1, r7
 8007cb6:	462a      	mov	r2, r5
 8007cb8:	4620      	mov	r0, r4
 8007cba:	f000 fc29 	bl	8008510 <__lshift>
 8007cbe:	4607      	mov	r7, r0
 8007cc0:	9b06      	ldr	r3, [sp, #24]
 8007cc2:	2b00      	cmp	r3, #0
 8007cc4:	d05c      	beq.n	8007d80 <_dtoa_r+0xa78>
 8007cc6:	6879      	ldr	r1, [r7, #4]
 8007cc8:	4620      	mov	r0, r4
 8007cca:	f000 fa0f 	bl	80080ec <_Balloc>
 8007cce:	4605      	mov	r5, r0
 8007cd0:	b928      	cbnz	r0, 8007cde <_dtoa_r+0x9d6>
 8007cd2:	4b80      	ldr	r3, [pc, #512]	; (8007ed4 <_dtoa_r+0xbcc>)
 8007cd4:	4602      	mov	r2, r0
 8007cd6:	f240 21ea 	movw	r1, #746	; 0x2ea
 8007cda:	f7ff bb2e 	b.w	800733a <_dtoa_r+0x32>
 8007cde:	693a      	ldr	r2, [r7, #16]
 8007ce0:	3202      	adds	r2, #2
 8007ce2:	0092      	lsls	r2, r2, #2
 8007ce4:	f107 010c 	add.w	r1, r7, #12
 8007ce8:	300c      	adds	r0, #12
 8007cea:	f7fe fde7 	bl	80068bc <memcpy>
 8007cee:	2201      	movs	r2, #1
 8007cf0:	4629      	mov	r1, r5
 8007cf2:	4620      	mov	r0, r4
 8007cf4:	f000 fc0c 	bl	8008510 <__lshift>
 8007cf8:	9b00      	ldr	r3, [sp, #0]
 8007cfa:	3301      	adds	r3, #1
 8007cfc:	9301      	str	r3, [sp, #4]
 8007cfe:	9b00      	ldr	r3, [sp, #0]
 8007d00:	444b      	add	r3, r9
 8007d02:	9307      	str	r3, [sp, #28]
 8007d04:	9b02      	ldr	r3, [sp, #8]
 8007d06:	f003 0301 	and.w	r3, r3, #1
 8007d0a:	46b8      	mov	r8, r7
 8007d0c:	9306      	str	r3, [sp, #24]
 8007d0e:	4607      	mov	r7, r0
 8007d10:	9b01      	ldr	r3, [sp, #4]
 8007d12:	4631      	mov	r1, r6
 8007d14:	3b01      	subs	r3, #1
 8007d16:	4658      	mov	r0, fp
 8007d18:	9302      	str	r3, [sp, #8]
 8007d1a:	f7ff fa67 	bl	80071ec <quorem>
 8007d1e:	4603      	mov	r3, r0
 8007d20:	3330      	adds	r3, #48	; 0x30
 8007d22:	9004      	str	r0, [sp, #16]
 8007d24:	4641      	mov	r1, r8
 8007d26:	4658      	mov	r0, fp
 8007d28:	9308      	str	r3, [sp, #32]
 8007d2a:	f000 fc5d 	bl	80085e8 <__mcmp>
 8007d2e:	463a      	mov	r2, r7
 8007d30:	4681      	mov	r9, r0
 8007d32:	4631      	mov	r1, r6
 8007d34:	4620      	mov	r0, r4
 8007d36:	f000 fc73 	bl	8008620 <__mdiff>
 8007d3a:	68c2      	ldr	r2, [r0, #12]
 8007d3c:	9b08      	ldr	r3, [sp, #32]
 8007d3e:	4605      	mov	r5, r0
 8007d40:	bb02      	cbnz	r2, 8007d84 <_dtoa_r+0xa7c>
 8007d42:	4601      	mov	r1, r0
 8007d44:	4658      	mov	r0, fp
 8007d46:	f000 fc4f 	bl	80085e8 <__mcmp>
 8007d4a:	9b08      	ldr	r3, [sp, #32]
 8007d4c:	4602      	mov	r2, r0
 8007d4e:	4629      	mov	r1, r5
 8007d50:	4620      	mov	r0, r4
 8007d52:	e9cd 3208 	strd	r3, r2, [sp, #32]
 8007d56:	f000 fa09 	bl	800816c <_Bfree>
 8007d5a:	9b05      	ldr	r3, [sp, #20]
 8007d5c:	9a09      	ldr	r2, [sp, #36]	; 0x24
 8007d5e:	9d01      	ldr	r5, [sp, #4]
 8007d60:	ea43 0102 	orr.w	r1, r3, r2
 8007d64:	9b06      	ldr	r3, [sp, #24]
 8007d66:	430b      	orrs	r3, r1
 8007d68:	9b08      	ldr	r3, [sp, #32]
 8007d6a:	d10d      	bne.n	8007d88 <_dtoa_r+0xa80>
 8007d6c:	2b39      	cmp	r3, #57	; 0x39
 8007d6e:	d029      	beq.n	8007dc4 <_dtoa_r+0xabc>
 8007d70:	f1b9 0f00 	cmp.w	r9, #0
 8007d74:	dd01      	ble.n	8007d7a <_dtoa_r+0xa72>
 8007d76:	9b04      	ldr	r3, [sp, #16]
 8007d78:	3331      	adds	r3, #49	; 0x31
 8007d7a:	9a02      	ldr	r2, [sp, #8]
 8007d7c:	7013      	strb	r3, [r2, #0]
 8007d7e:	e774      	b.n	8007c6a <_dtoa_r+0x962>
 8007d80:	4638      	mov	r0, r7
 8007d82:	e7b9      	b.n	8007cf8 <_dtoa_r+0x9f0>
 8007d84:	2201      	movs	r2, #1
 8007d86:	e7e2      	b.n	8007d4e <_dtoa_r+0xa46>
 8007d88:	f1b9 0f00 	cmp.w	r9, #0
 8007d8c:	db06      	blt.n	8007d9c <_dtoa_r+0xa94>
 8007d8e:	9905      	ldr	r1, [sp, #20]
 8007d90:	ea41 0909 	orr.w	r9, r1, r9
 8007d94:	9906      	ldr	r1, [sp, #24]
 8007d96:	ea59 0101 	orrs.w	r1, r9, r1
 8007d9a:	d120      	bne.n	8007dde <_dtoa_r+0xad6>
 8007d9c:	2a00      	cmp	r2, #0
 8007d9e:	ddec      	ble.n	8007d7a <_dtoa_r+0xa72>
 8007da0:	4659      	mov	r1, fp
 8007da2:	2201      	movs	r2, #1
 8007da4:	4620      	mov	r0, r4
 8007da6:	9301      	str	r3, [sp, #4]
 8007da8:	f000 fbb2 	bl	8008510 <__lshift>
 8007dac:	4631      	mov	r1, r6
 8007dae:	4683      	mov	fp, r0
 8007db0:	f000 fc1a 	bl	80085e8 <__mcmp>
 8007db4:	2800      	cmp	r0, #0
 8007db6:	9b01      	ldr	r3, [sp, #4]
 8007db8:	dc02      	bgt.n	8007dc0 <_dtoa_r+0xab8>
 8007dba:	d1de      	bne.n	8007d7a <_dtoa_r+0xa72>
 8007dbc:	07da      	lsls	r2, r3, #31
 8007dbe:	d5dc      	bpl.n	8007d7a <_dtoa_r+0xa72>
 8007dc0:	2b39      	cmp	r3, #57	; 0x39
 8007dc2:	d1d8      	bne.n	8007d76 <_dtoa_r+0xa6e>
 8007dc4:	9a02      	ldr	r2, [sp, #8]
 8007dc6:	2339      	movs	r3, #57	; 0x39
 8007dc8:	7013      	strb	r3, [r2, #0]
 8007dca:	462b      	mov	r3, r5
 8007dcc:	461d      	mov	r5, r3
 8007dce:	3b01      	subs	r3, #1
 8007dd0:	f815 2c01 	ldrb.w	r2, [r5, #-1]
 8007dd4:	2a39      	cmp	r2, #57	; 0x39
 8007dd6:	d050      	beq.n	8007e7a <_dtoa_r+0xb72>
 8007dd8:	3201      	adds	r2, #1
 8007dda:	701a      	strb	r2, [r3, #0]
 8007ddc:	e745      	b.n	8007c6a <_dtoa_r+0x962>
 8007dde:	2a00      	cmp	r2, #0
 8007de0:	dd03      	ble.n	8007dea <_dtoa_r+0xae2>
 8007de2:	2b39      	cmp	r3, #57	; 0x39
 8007de4:	d0ee      	beq.n	8007dc4 <_dtoa_r+0xabc>
 8007de6:	3301      	adds	r3, #1
 8007de8:	e7c7      	b.n	8007d7a <_dtoa_r+0xa72>
 8007dea:	9a01      	ldr	r2, [sp, #4]
 8007dec:	9907      	ldr	r1, [sp, #28]
 8007dee:	f802 3c01 	strb.w	r3, [r2, #-1]
 8007df2:	428a      	cmp	r2, r1
 8007df4:	d02a      	beq.n	8007e4c <_dtoa_r+0xb44>
 8007df6:	4659      	mov	r1, fp
 8007df8:	2300      	movs	r3, #0
 8007dfa:	220a      	movs	r2, #10
 8007dfc:	4620      	mov	r0, r4
 8007dfe:	f000 f9d7 	bl	80081b0 <__multadd>
 8007e02:	45b8      	cmp	r8, r7
 8007e04:	4683      	mov	fp, r0
 8007e06:	f04f 0300 	mov.w	r3, #0
 8007e0a:	f04f 020a 	mov.w	r2, #10
 8007e0e:	4641      	mov	r1, r8
 8007e10:	4620      	mov	r0, r4
 8007e12:	d107      	bne.n	8007e24 <_dtoa_r+0xb1c>
 8007e14:	f000 f9cc 	bl	80081b0 <__multadd>
 8007e18:	4680      	mov	r8, r0
 8007e1a:	4607      	mov	r7, r0
 8007e1c:	9b01      	ldr	r3, [sp, #4]
 8007e1e:	3301      	adds	r3, #1
 8007e20:	9301      	str	r3, [sp, #4]
 8007e22:	e775      	b.n	8007d10 <_dtoa_r+0xa08>
 8007e24:	f000 f9c4 	bl	80081b0 <__multadd>
 8007e28:	4639      	mov	r1, r7
 8007e2a:	4680      	mov	r8, r0
 8007e2c:	2300      	movs	r3, #0
 8007e2e:	220a      	movs	r2, #10
 8007e30:	4620      	mov	r0, r4
 8007e32:	f000 f9bd 	bl	80081b0 <__multadd>
 8007e36:	4607      	mov	r7, r0
 8007e38:	e7f0      	b.n	8007e1c <_dtoa_r+0xb14>
 8007e3a:	f1b9 0f00 	cmp.w	r9, #0
 8007e3e:	9a00      	ldr	r2, [sp, #0]
 8007e40:	bfcc      	ite	gt
 8007e42:	464d      	movgt	r5, r9
 8007e44:	2501      	movle	r5, #1
 8007e46:	4415      	add	r5, r2
 8007e48:	f04f 0800 	mov.w	r8, #0
 8007e4c:	4659      	mov	r1, fp
 8007e4e:	2201      	movs	r2, #1
 8007e50:	4620      	mov	r0, r4
 8007e52:	9301      	str	r3, [sp, #4]
 8007e54:	f000 fb5c 	bl	8008510 <__lshift>
 8007e58:	4631      	mov	r1, r6
 8007e5a:	4683      	mov	fp, r0
 8007e5c:	f000 fbc4 	bl	80085e8 <__mcmp>
 8007e60:	2800      	cmp	r0, #0
 8007e62:	dcb2      	bgt.n	8007dca <_dtoa_r+0xac2>
 8007e64:	d102      	bne.n	8007e6c <_dtoa_r+0xb64>
 8007e66:	9b01      	ldr	r3, [sp, #4]
 8007e68:	07db      	lsls	r3, r3, #31
 8007e6a:	d4ae      	bmi.n	8007dca <_dtoa_r+0xac2>
 8007e6c:	462b      	mov	r3, r5
 8007e6e:	461d      	mov	r5, r3
 8007e70:	f813 2d01 	ldrb.w	r2, [r3, #-1]!
 8007e74:	2a30      	cmp	r2, #48	; 0x30
 8007e76:	d0fa      	beq.n	8007e6e <_dtoa_r+0xb66>
 8007e78:	e6f7      	b.n	8007c6a <_dtoa_r+0x962>
 8007e7a:	9a00      	ldr	r2, [sp, #0]
 8007e7c:	429a      	cmp	r2, r3
 8007e7e:	d1a5      	bne.n	8007dcc <_dtoa_r+0xac4>
 8007e80:	f10a 0a01 	add.w	sl, sl, #1
 8007e84:	2331      	movs	r3, #49	; 0x31
 8007e86:	e779      	b.n	8007d7c <_dtoa_r+0xa74>
 8007e88:	4b13      	ldr	r3, [pc, #76]	; (8007ed8 <_dtoa_r+0xbd0>)
 8007e8a:	f7ff baaf 	b.w	80073ec <_dtoa_r+0xe4>
 8007e8e:	9b21      	ldr	r3, [sp, #132]	; 0x84
 8007e90:	2b00      	cmp	r3, #0
 8007e92:	f47f aa86 	bne.w	80073a2 <_dtoa_r+0x9a>
 8007e96:	4b11      	ldr	r3, [pc, #68]	; (8007edc <_dtoa_r+0xbd4>)
 8007e98:	f7ff baa8 	b.w	80073ec <_dtoa_r+0xe4>
 8007e9c:	f1b9 0f00 	cmp.w	r9, #0
 8007ea0:	dc03      	bgt.n	8007eaa <_dtoa_r+0xba2>
 8007ea2:	9b05      	ldr	r3, [sp, #20]
 8007ea4:	2b02      	cmp	r3, #2
 8007ea6:	f73f aec9 	bgt.w	8007c3c <_dtoa_r+0x934>
 8007eaa:	9d00      	ldr	r5, [sp, #0]
 8007eac:	4631      	mov	r1, r6
 8007eae:	4658      	mov	r0, fp
 8007eb0:	f7ff f99c 	bl	80071ec <quorem>
 8007eb4:	f100 0330 	add.w	r3, r0, #48	; 0x30
 8007eb8:	f805 3b01 	strb.w	r3, [r5], #1
 8007ebc:	9a00      	ldr	r2, [sp, #0]
 8007ebe:	1aaa      	subs	r2, r5, r2
 8007ec0:	4591      	cmp	r9, r2
 8007ec2:	ddba      	ble.n	8007e3a <_dtoa_r+0xb32>
 8007ec4:	4659      	mov	r1, fp
 8007ec6:	2300      	movs	r3, #0
 8007ec8:	220a      	movs	r2, #10
 8007eca:	4620      	mov	r0, r4
 8007ecc:	f000 f970 	bl	80081b0 <__multadd>
 8007ed0:	4683      	mov	fp, r0
 8007ed2:	e7eb      	b.n	8007eac <_dtoa_r+0xba4>
 8007ed4:	08009723 	.word	0x08009723
 8007ed8:	0800967c 	.word	0x0800967c
 8007edc:	080096a0 	.word	0x080096a0

08007ee0 <std>:
 8007ee0:	2300      	movs	r3, #0
 8007ee2:	b510      	push	{r4, lr}
 8007ee4:	4604      	mov	r4, r0
 8007ee6:	e9c0 3300 	strd	r3, r3, [r0]
 8007eea:	e9c0 3304 	strd	r3, r3, [r0, #16]
 8007eee:	6083      	str	r3, [r0, #8]
 8007ef0:	8181      	strh	r1, [r0, #12]
 8007ef2:	6643      	str	r3, [r0, #100]	; 0x64
 8007ef4:	81c2      	strh	r2, [r0, #14]
 8007ef6:	6183      	str	r3, [r0, #24]
 8007ef8:	4619      	mov	r1, r3
 8007efa:	2208      	movs	r2, #8
 8007efc:	305c      	adds	r0, #92	; 0x5c
 8007efe:	f7fe fceb 	bl	80068d8 <memset>
 8007f02:	4b05      	ldr	r3, [pc, #20]	; (8007f18 <std+0x38>)
 8007f04:	6263      	str	r3, [r4, #36]	; 0x24
 8007f06:	4b05      	ldr	r3, [pc, #20]	; (8007f1c <std+0x3c>)
 8007f08:	62a3      	str	r3, [r4, #40]	; 0x28
 8007f0a:	4b05      	ldr	r3, [pc, #20]	; (8007f20 <std+0x40>)
 8007f0c:	62e3      	str	r3, [r4, #44]	; 0x2c
 8007f0e:	4b05      	ldr	r3, [pc, #20]	; (8007f24 <std+0x44>)
 8007f10:	6224      	str	r4, [r4, #32]
 8007f12:	6323      	str	r3, [r4, #48]	; 0x30
 8007f14:	bd10      	pop	{r4, pc}
 8007f16:	bf00      	nop
 8007f18:	08008c31 	.word	0x08008c31
 8007f1c:	08008c53 	.word	0x08008c53
 8007f20:	08008c8b 	.word	0x08008c8b
 8007f24:	08008caf 	.word	0x08008caf

08007f28 <_cleanup_r>:
 8007f28:	4901      	ldr	r1, [pc, #4]	; (8007f30 <_cleanup_r+0x8>)
 8007f2a:	f000 b8af 	b.w	800808c <_fwalk_reent>
 8007f2e:	bf00      	nop
 8007f30:	08008fc5 	.word	0x08008fc5

08007f34 <__sfmoreglue>:
 8007f34:	b570      	push	{r4, r5, r6, lr}
 8007f36:	1e4a      	subs	r2, r1, #1
 8007f38:	2568      	movs	r5, #104	; 0x68
 8007f3a:	4355      	muls	r5, r2
 8007f3c:	460e      	mov	r6, r1
 8007f3e:	f105 0174 	add.w	r1, r5, #116	; 0x74
 8007f42:	f000 fcb1 	bl	80088a8 <_malloc_r>
 8007f46:	4604      	mov	r4, r0
 8007f48:	b140      	cbz	r0, 8007f5c <__sfmoreglue+0x28>
 8007f4a:	2100      	movs	r1, #0
 8007f4c:	e9c0 1600 	strd	r1, r6, [r0]
 8007f50:	300c      	adds	r0, #12
 8007f52:	60a0      	str	r0, [r4, #8]
 8007f54:	f105 0268 	add.w	r2, r5, #104	; 0x68
 8007f58:	f7fe fcbe 	bl	80068d8 <memset>
 8007f5c:	4620      	mov	r0, r4
 8007f5e:	bd70      	pop	{r4, r5, r6, pc}

08007f60 <__sfp_lock_acquire>:
 8007f60:	4801      	ldr	r0, [pc, #4]	; (8007f68 <__sfp_lock_acquire+0x8>)
 8007f62:	f000 b8b8 	b.w	80080d6 <__retarget_lock_acquire_recursive>
 8007f66:	bf00      	nop
 8007f68:	20002244 	.word	0x20002244

08007f6c <__sfp_lock_release>:
 8007f6c:	4801      	ldr	r0, [pc, #4]	; (8007f74 <__sfp_lock_release+0x8>)
 8007f6e:	f000 b8b3 	b.w	80080d8 <__retarget_lock_release_recursive>
 8007f72:	bf00      	nop
 8007f74:	20002244 	.word	0x20002244

08007f78 <__sinit_lock_acquire>:
 8007f78:	4801      	ldr	r0, [pc, #4]	; (8007f80 <__sinit_lock_acquire+0x8>)
 8007f7a:	f000 b8ac 	b.w	80080d6 <__retarget_lock_acquire_recursive>
 8007f7e:	bf00      	nop
 8007f80:	2000223f 	.word	0x2000223f

08007f84 <__sinit_lock_release>:
 8007f84:	4801      	ldr	r0, [pc, #4]	; (8007f8c <__sinit_lock_release+0x8>)
 8007f86:	f000 b8a7 	b.w	80080d8 <__retarget_lock_release_recursive>
 8007f8a:	bf00      	nop
 8007f8c:	2000223f 	.word	0x2000223f

08007f90 <__sinit>:
 8007f90:	b510      	push	{r4, lr}
 8007f92:	4604      	mov	r4, r0
 8007f94:	f7ff fff0 	bl	8007f78 <__sinit_lock_acquire>
 8007f98:	69a3      	ldr	r3, [r4, #24]
 8007f9a:	b11b      	cbz	r3, 8007fa4 <__sinit+0x14>
 8007f9c:	e8bd 4010 	ldmia.w	sp!, {r4, lr}
 8007fa0:	f7ff bff0 	b.w	8007f84 <__sinit_lock_release>
 8007fa4:	e9c4 3312 	strd	r3, r3, [r4, #72]	; 0x48
 8007fa8:	6523      	str	r3, [r4, #80]	; 0x50
 8007faa:	4b13      	ldr	r3, [pc, #76]	; (8007ff8 <__sinit+0x68>)
 8007fac:	4a13      	ldr	r2, [pc, #76]	; (8007ffc <__sinit+0x6c>)
 8007fae:	681b      	ldr	r3, [r3, #0]
 8007fb0:	62a2      	str	r2, [r4, #40]	; 0x28
 8007fb2:	42a3      	cmp	r3, r4
 8007fb4:	bf04      	itt	eq
 8007fb6:	2301      	moveq	r3, #1
 8007fb8:	61a3      	streq	r3, [r4, #24]
 8007fba:	4620      	mov	r0, r4
 8007fbc:	f000 f820 	bl	8008000 <__sfp>
 8007fc0:	6060      	str	r0, [r4, #4]
 8007fc2:	4620      	mov	r0, r4
 8007fc4:	f000 f81c 	bl	8008000 <__sfp>
 8007fc8:	60a0      	str	r0, [r4, #8]
 8007fca:	4620      	mov	r0, r4
 8007fcc:	f000 f818 	bl	8008000 <__sfp>
 8007fd0:	2200      	movs	r2, #0
 8007fd2:	60e0      	str	r0, [r4, #12]
 8007fd4:	2104      	movs	r1, #4
 8007fd6:	6860      	ldr	r0, [r4, #4]
 8007fd8:	f7ff ff82 	bl	8007ee0 <std>
 8007fdc:	68a0      	ldr	r0, [r4, #8]
 8007fde:	2201      	movs	r2, #1
 8007fe0:	2109      	movs	r1, #9
 8007fe2:	f7ff ff7d 	bl	8007ee0 <std>
 8007fe6:	68e0      	ldr	r0, [r4, #12]
 8007fe8:	2202      	movs	r2, #2
 8007fea:	2112      	movs	r1, #18
 8007fec:	f7ff ff78 	bl	8007ee0 <std>
 8007ff0:	2301      	movs	r3, #1
 8007ff2:	61a3      	str	r3, [r4, #24]
 8007ff4:	e7d2      	b.n	8007f9c <__sinit+0xc>
 8007ff6:	bf00      	nop
 8007ff8:	08009668 	.word	0x08009668
 8007ffc:	08007f29 	.word	0x08007f29

08008000 <__sfp>:
 8008000:	b5f8      	push	{r3, r4, r5, r6, r7, lr}
 8008002:	4607      	mov	r7, r0
 8008004:	f7ff ffac 	bl	8007f60 <__sfp_lock_acquire>
 8008008:	4b1e      	ldr	r3, [pc, #120]	; (8008084 <__sfp+0x84>)
 800800a:	681e      	ldr	r6, [r3, #0]
 800800c:	69b3      	ldr	r3, [r6, #24]
 800800e:	b913      	cbnz	r3, 8008016 <__sfp+0x16>
 8008010:	4630      	mov	r0, r6
 8008012:	f7ff ffbd 	bl	8007f90 <__sinit>
 8008016:	3648      	adds	r6, #72	; 0x48
 8008018:	e9d6 3401 	ldrd	r3, r4, [r6, #4]
 800801c:	3b01      	subs	r3, #1
 800801e:	d503      	bpl.n	8008028 <__sfp+0x28>
 8008020:	6833      	ldr	r3, [r6, #0]
 8008022:	b30b      	cbz	r3, 8008068 <__sfp+0x68>
 8008024:	6836      	ldr	r6, [r6, #0]
 8008026:	e7f7      	b.n	8008018 <__sfp+0x18>
 8008028:	f9b4 500c 	ldrsh.w	r5, [r4, #12]
 800802c:	b9d5      	cbnz	r5, 8008064 <__sfp+0x64>
 800802e:	4b16      	ldr	r3, [pc, #88]	; (8008088 <__sfp+0x88>)
 8008030:	60e3      	str	r3, [r4, #12]
 8008032:	f104 0058 	add.w	r0, r4, #88	; 0x58
 8008036:	6665      	str	r5, [r4, #100]	; 0x64
 8008038:	f000 f84c 	bl	80080d4 <__retarget_lock_init_recursive>
 800803c:	f7ff ff96 	bl	8007f6c <__sfp_lock_release>
 8008040:	e9c4 5501 	strd	r5, r5, [r4, #4]
 8008044:	e9c4 5504 	strd	r5, r5, [r4, #16]
 8008048:	6025      	str	r5, [r4, #0]
 800804a:	61a5      	str	r5, [r4, #24]
 800804c:	2208      	movs	r2, #8
 800804e:	4629      	mov	r1, r5
 8008050:	f104 005c 	add.w	r0, r4, #92	; 0x5c
 8008054:	f7fe fc40 	bl	80068d8 <memset>
 8008058:	e9c4 550d 	strd	r5, r5, [r4, #52]	; 0x34
 800805c:	e9c4 5512 	strd	r5, r5, [r4, #72]	; 0x48
 8008060:	4620      	mov	r0, r4
 8008062:	bdf8      	pop	{r3, r4, r5, r6, r7, pc}
 8008064:	3468      	adds	r4, #104	; 0x68
 8008066:	e7d9      	b.n	800801c <__sfp+0x1c>
 8008068:	2104      	movs	r1, #4
 800806a:	4638      	mov	r0, r7
 800806c:	f7ff ff62 	bl	8007f34 <__sfmoreglue>
 8008070:	4604      	mov	r4, r0
 8008072:	6030      	str	r0, [r6, #0]
 8008074:	2800      	cmp	r0, #0
 8008076:	d1d5      	bne.n	8008024 <__sfp+0x24>
 8008078:	f7ff ff78 	bl	8007f6c <__sfp_lock_release>
 800807c:	230c      	movs	r3, #12
 800807e:	603b      	str	r3, [r7, #0]
 8008080:	e7ee      	b.n	8008060 <__sfp+0x60>
 8008082:	bf00      	nop
 8008084:	08009668 	.word	0x08009668
 8008088:	ffff0001 	.word	0xffff0001

0800808c <_fwalk_reent>:
 800808c:	e92d 43f8 	stmdb	sp!, {r3, r4, r5, r6, r7, r8, r9, lr}
 8008090:	4606      	mov	r6, r0
 8008092:	4688      	mov	r8, r1
 8008094:	f100 0448 	add.w	r4, r0, #72	; 0x48
 8008098:	2700      	movs	r7, #0
 800809a:	e9d4 9501 	ldrd	r9, r5, [r4, #4]
 800809e:	f1b9 0901 	subs.w	r9, r9, #1
 80080a2:	d505      	bpl.n	80080b0 <_fwalk_reent+0x24>
 80080a4:	6824      	ldr	r4, [r4, #0]
 80080a6:	2c00      	cmp	r4, #0
 80080a8:	d1f7      	bne.n	800809a <_fwalk_reent+0xe>
 80080aa:	4638      	mov	r0, r7
 80080ac:	e8bd 83f8 	ldmia.w	sp!, {r3, r4, r5, r6, r7, r8, r9, pc}
 80080b0:	89ab      	ldrh	r3, [r5, #12]
 80080b2:	2b01      	cmp	r3, #1
 80080b4:	d907      	bls.n	80080c6 <_fwalk_reent+0x3a>
 80080b6:	f9b5 300e 	ldrsh.w	r3, [r5, #14]
 80080ba:	3301      	adds	r3, #1
 80080bc:	d003      	beq.n	80080c6 <_fwalk_reent+0x3a>
 80080be:	4629      	mov	r1, r5
 80080c0:	4630      	mov	r0, r6
 80080c2:	47c0      	blx	r8
 80080c4:	4307      	orrs	r7, r0
 80080c6:	3568      	adds	r5, #104	; 0x68
 80080c8:	e7e9      	b.n	800809e <_fwalk_reent+0x12>
	...

080080cc <_localeconv_r>:
 80080cc:	4800      	ldr	r0, [pc, #0]	; (80080d0 <_localeconv_r+0x4>)
 80080ce:	4770      	bx	lr
 80080d0:	200002e4 	.word	0x200002e4

080080d4 <__retarget_lock_init_recursive>:
 80080d4:	4770      	bx	lr

080080d6 <__retarget_lock_acquire_recursive>:
 80080d6:	4770      	bx	lr

080080d8 <__retarget_lock_release_recursive>:
 80080d8:	4770      	bx	lr
	...

080080dc <malloc>:
 80080dc:	4b02      	ldr	r3, [pc, #8]	; (80080e8 <malloc+0xc>)
 80080de:	4601      	mov	r1, r0
 80080e0:	6818      	ldr	r0, [r3, #0]
 80080e2:	f000 bbe1 	b.w	80088a8 <_malloc_r>
 80080e6:	bf00      	nop
 80080e8:	20000190 	.word	0x20000190

080080ec <_Balloc>:
 80080ec:	b570      	push	{r4, r5, r6, lr}
 80080ee:	6a46      	ldr	r6, [r0, #36]	; 0x24
 80080f0:	4604      	mov	r4, r0
 80080f2:	460d      	mov	r5, r1
 80080f4:	b976      	cbnz	r6, 8008114 <_Balloc+0x28>
 80080f6:	2010      	movs	r0, #16
 80080f8:	f7ff fff0 	bl	80080dc <malloc>
 80080fc:	4602      	mov	r2, r0
 80080fe:	6260      	str	r0, [r4, #36]	; 0x24
 8008100:	b920      	cbnz	r0, 800810c <_Balloc+0x20>
 8008102:	4b18      	ldr	r3, [pc, #96]	; (8008164 <_Balloc+0x78>)
 8008104:	4818      	ldr	r0, [pc, #96]	; (8008168 <_Balloc+0x7c>)
 8008106:	2166      	movs	r1, #102	; 0x66
 8008108:	f000 fea8 	bl	8008e5c <__assert_func>
 800810c:	e9c0 6601 	strd	r6, r6, [r0, #4]
 8008110:	6006      	str	r6, [r0, #0]
 8008112:	60c6      	str	r6, [r0, #12]
 8008114:	6a66      	ldr	r6, [r4, #36]	; 0x24
 8008116:	68f3      	ldr	r3, [r6, #12]
 8008118:	b183      	cbz	r3, 800813c <_Balloc+0x50>
 800811a:	6a63      	ldr	r3, [r4, #36]	; 0x24
 800811c:	68db      	ldr	r3, [r3, #12]
 800811e:	f853 0025 	ldr.w	r0, [r3, r5, lsl #2]
 8008122:	b9b8      	cbnz	r0, 8008154 <_Balloc+0x68>
 8008124:	2101      	movs	r1, #1
 8008126:	fa01 f605 	lsl.w	r6, r1, r5
 800812a:	1d72      	adds	r2, r6, #5
 800812c:	0092      	lsls	r2, r2, #2
 800812e:	4620      	mov	r0, r4
 8008130:	f000 fb5a 	bl	80087e8 <_calloc_r>
 8008134:	b160      	cbz	r0, 8008150 <_Balloc+0x64>
 8008136:	e9c0 5601 	strd	r5, r6, [r0, #4]
 800813a:	e00e      	b.n	800815a <_Balloc+0x6e>
 800813c:	2221      	movs	r2, #33	; 0x21
 800813e:	2104      	movs	r1, #4
 8008140:	4620      	mov	r0, r4
 8008142:	f000 fb51 	bl	80087e8 <_calloc_r>
 8008146:	6a63      	ldr	r3, [r4, #36]	; 0x24
 8008148:	60f0      	str	r0, [r6, #12]
 800814a:	68db      	ldr	r3, [r3, #12]
 800814c:	2b00      	cmp	r3, #0
 800814e:	d1e4      	bne.n	800811a <_Balloc+0x2e>
 8008150:	2000      	movs	r0, #0
 8008152:	bd70      	pop	{r4, r5, r6, pc}
 8008154:	6802      	ldr	r2, [r0, #0]
 8008156:	f843 2025 	str.w	r2, [r3, r5, lsl #2]
 800815a:	2300      	movs	r3, #0
 800815c:	e9c0 3303 	strd	r3, r3, [r0, #12]
 8008160:	e7f7      	b.n	8008152 <_Balloc+0x66>
 8008162:	bf00      	nop
 8008164:	080096ad 	.word	0x080096ad
 8008168:	08009794 	.word	0x08009794

0800816c <_Bfree>:
 800816c:	b570      	push	{r4, r5, r6, lr}
 800816e:	6a46      	ldr	r6, [r0, #36]	; 0x24
 8008170:	4605      	mov	r5, r0
 8008172:	460c      	mov	r4, r1
 8008174:	b976      	cbnz	r6, 8008194 <_Bfree+0x28>
 8008176:	2010      	movs	r0, #16
 8008178:	f7ff ffb0 	bl	80080dc <malloc>
 800817c:	4602      	mov	r2, r0
 800817e:	6268      	str	r0, [r5, #36]	; 0x24
 8008180:	b920      	cbnz	r0, 800818c <_Bfree+0x20>
 8008182:	4b09      	ldr	r3, [pc, #36]	; (80081a8 <_Bfree+0x3c>)
 8008184:	4809      	ldr	r0, [pc, #36]	; (80081ac <_Bfree+0x40>)
 8008186:	218a      	movs	r1, #138	; 0x8a
 8008188:	f000 fe68 	bl	8008e5c <__assert_func>
 800818c:	e9c0 6601 	strd	r6, r6, [r0, #4]
 8008190:	6006      	str	r6, [r0, #0]
 8008192:	60c6      	str	r6, [r0, #12]
 8008194:	b13c      	cbz	r4, 80081a6 <_Bfree+0x3a>
 8008196:	6a6b      	ldr	r3, [r5, #36]	; 0x24
 8008198:	6862      	ldr	r2, [r4, #4]
 800819a:	68db      	ldr	r3, [r3, #12]
 800819c:	f853 1022 	ldr.w	r1, [r3, r2, lsl #2]
 80081a0:	6021      	str	r1, [r4, #0]
 80081a2:	f843 4022 	str.w	r4, [r3, r2, lsl #2]
 80081a6:	bd70      	pop	{r4, r5, r6, pc}
 80081a8:	080096ad 	.word	0x080096ad
 80081ac:	08009794 	.word	0x08009794

080081b0 <__multadd>:
 80081b0:	e92d 41f0 	stmdb	sp!, {r4, r5, r6, r7, r8, lr}
 80081b4:	690e      	ldr	r6, [r1, #16]
 80081b6:	4607      	mov	r7, r0
 80081b8:	4698      	mov	r8, r3
 80081ba:	460c      	mov	r4, r1
 80081bc:	f101 0014 	add.w	r0, r1, #20
 80081c0:	2300      	movs	r3, #0
 80081c2:	6805      	ldr	r5, [r0, #0]
 80081c4:	b2a9      	uxth	r1, r5
 80081c6:	fb02 8101 	mla	r1, r2, r1, r8
 80081ca:	ea4f 4c11 	mov.w	ip, r1, lsr #16
 80081ce:	0c2d      	lsrs	r5, r5, #16
 80081d0:	fb02 c505 	mla	r5, r2, r5, ip
 80081d4:	b289      	uxth	r1, r1
 80081d6:	3301      	adds	r3, #1
 80081d8:	eb01 4105 	add.w	r1, r1, r5, lsl #16
 80081dc:	429e      	cmp	r6, r3
 80081de:	f840 1b04 	str.w	r1, [r0], #4
 80081e2:	ea4f 4815 	mov.w	r8, r5, lsr #16
 80081e6:	dcec      	bgt.n	80081c2 <__multadd+0x12>
 80081e8:	f1b8 0f00 	cmp.w	r8, #0
 80081ec:	d022      	beq.n	8008234 <__multadd+0x84>
 80081ee:	68a3      	ldr	r3, [r4, #8]
 80081f0:	42b3      	cmp	r3, r6
 80081f2:	dc19      	bgt.n	8008228 <__multadd+0x78>
 80081f4:	6861      	ldr	r1, [r4, #4]
 80081f6:	4638      	mov	r0, r7
 80081f8:	3101      	adds	r1, #1
 80081fa:	f7ff ff77 	bl	80080ec <_Balloc>
 80081fe:	4605      	mov	r5, r0
 8008200:	b928      	cbnz	r0, 800820e <__multadd+0x5e>
 8008202:	4602      	mov	r2, r0
 8008204:	4b0d      	ldr	r3, [pc, #52]	; (800823c <__multadd+0x8c>)
 8008206:	480e      	ldr	r0, [pc, #56]	; (8008240 <__multadd+0x90>)
 8008208:	21b5      	movs	r1, #181	; 0xb5
 800820a:	f000 fe27 	bl	8008e5c <__assert_func>
 800820e:	6922      	ldr	r2, [r4, #16]
 8008210:	3202      	adds	r2, #2
 8008212:	f104 010c 	add.w	r1, r4, #12
 8008216:	0092      	lsls	r2, r2, #2
 8008218:	300c      	adds	r0, #12
 800821a:	f7fe fb4f 	bl	80068bc <memcpy>
 800821e:	4621      	mov	r1, r4
 8008220:	4638      	mov	r0, r7
 8008222:	f7ff ffa3 	bl	800816c <_Bfree>
 8008226:	462c      	mov	r4, r5
 8008228:	eb04 0386 	add.w	r3, r4, r6, lsl #2
 800822c:	3601      	adds	r6, #1
 800822e:	f8c3 8014 	str.w	r8, [r3, #20]
 8008232:	6126      	str	r6, [r4, #16]
 8008234:	4620      	mov	r0, r4
 8008236:	e8bd 81f0 	ldmia.w	sp!, {r4, r5, r6, r7, r8, pc}
 800823a:	bf00      	nop
 800823c:	08009723 	.word	0x08009723
 8008240:	08009794 	.word	0x08009794

08008244 <__hi0bits>:
 8008244:	0c03      	lsrs	r3, r0, #16
 8008246:	041b      	lsls	r3, r3, #16
 8008248:	b9d3      	cbnz	r3, 8008280 <__hi0bits+0x3c>
 800824a:	0400      	lsls	r0, r0, #16
 800824c:	2310      	movs	r3, #16
 800824e:	f010 4f7f 	tst.w	r0, #4278190080	; 0xff000000
 8008252:	bf04      	itt	eq
 8008254:	0200      	lsleq	r0, r0, #8
 8008256:	3308      	addeq	r3, #8
 8008258:	f010 4f70 	tst.w	r0, #4026531840	; 0xf0000000
 800825c:	bf04      	itt	eq
 800825e:	0100      	lsleq	r0, r0, #4
 8008260:	3304      	addeq	r3, #4
 8008262:	f010 4f40 	tst.w	r0, #3221225472	; 0xc0000000
 8008266:	bf04      	itt	eq
 8008268:	0080      	lsleq	r0, r0, #2
 800826a:	3302      	addeq	r3, #2
 800826c:	2800      	cmp	r0, #0
 800826e:	db05      	blt.n	800827c <__hi0bits+0x38>
 8008270:	f010 4f80 	tst.w	r0, #1073741824	; 0x40000000
 8008274:	f103 0301 	add.w	r3, r3, #1
 8008278:	bf08      	it	eq
 800827a:	2320      	moveq	r3, #32
 800827c:	4618      	mov	r0, r3
 800827e:	4770      	bx	lr
 8008280:	2300      	movs	r3, #0
 8008282:	e7e4      	b.n	800824e <__hi0bits+0xa>

08008284 <__lo0bits>:
 8008284:	6803      	ldr	r3, [r0, #0]
 8008286:	f013 0207 	ands.w	r2, r3, #7
 800828a:	4601      	mov	r1, r0
 800828c:	d00b      	beq.n	80082a6 <__lo0bits+0x22>
 800828e:	07da      	lsls	r2, r3, #31
 8008290:	d424      	bmi.n	80082dc <__lo0bits+0x58>
 8008292:	0798      	lsls	r0, r3, #30
 8008294:	bf49      	itett	mi
 8008296:	085b      	lsrmi	r3, r3, #1
 8008298:	089b      	lsrpl	r3, r3, #2
 800829a:	2001      	movmi	r0, #1
 800829c:	600b      	strmi	r3, [r1, #0]
 800829e:	bf5c      	itt	pl
 80082a0:	600b      	strpl	r3, [r1, #0]
 80082a2:	2002      	movpl	r0, #2
 80082a4:	4770      	bx	lr
 80082a6:	b298      	uxth	r0, r3
 80082a8:	b9b0      	cbnz	r0, 80082d8 <__lo0bits+0x54>
 80082aa:	0c1b      	lsrs	r3, r3, #16
 80082ac:	2010      	movs	r0, #16
 80082ae:	f013 0fff 	tst.w	r3, #255	; 0xff
 80082b2:	bf04      	itt	eq
 80082b4:	0a1b      	lsreq	r3, r3, #8
 80082b6:	3008      	addeq	r0, #8
 80082b8:	071a      	lsls	r2, r3, #28
 80082ba:	bf04      	itt	eq
 80082bc:	091b      	lsreq	r3, r3, #4
 80082be:	3004      	addeq	r0, #4
 80082c0:	079a      	lsls	r2, r3, #30
 80082c2:	bf04      	itt	eq
 80082c4:	089b      	lsreq	r3, r3, #2
 80082c6:	3002      	addeq	r0, #2
 80082c8:	07da      	lsls	r2, r3, #31
 80082ca:	d403      	bmi.n	80082d4 <__lo0bits+0x50>
 80082cc:	085b      	lsrs	r3, r3, #1
 80082ce:	f100 0001 	add.w	r0, r0, #1
 80082d2:	d005      	beq.n	80082e0 <__lo0bits+0x5c>
 80082d4:	600b      	str	r3, [r1, #0]
 80082d6:	4770      	bx	lr
 80082d8:	4610      	mov	r0, r2
 80082da:	e7e8      	b.n	80082ae <__lo0bits+0x2a>
 80082dc:	2000      	movs	r0, #0
 80082de:	4770      	bx	lr
 80082e0:	2020      	movs	r0, #32
 80082e2:	4770      	bx	lr

080082e4 <__i2b>:
 80082e4:	b510      	push	{r4, lr}
 80082e6:	460c      	mov	r4, r1
 80082e8:	2101      	movs	r1, #1
 80082ea:	f7ff feff 	bl	80080ec <_Balloc>
 80082ee:	4602      	mov	r2, r0
 80082f0:	b928      	cbnz	r0, 80082fe <__i2b+0x1a>
 80082f2:	4b05      	ldr	r3, [pc, #20]	; (8008308 <__i2b+0x24>)
 80082f4:	4805      	ldr	r0, [pc, #20]	; (800830c <__i2b+0x28>)
 80082f6:	f44f 71a0 	mov.w	r1, #320	; 0x140
 80082fa:	f000 fdaf 	bl	8008e5c <__assert_func>
 80082fe:	2301      	movs	r3, #1
 8008300:	6144      	str	r4, [r0, #20]
 8008302:	6103      	str	r3, [r0, #16]
 8008304:	bd10      	pop	{r4, pc}
 8008306:	bf00      	nop
 8008308:	08009723 	.word	0x08009723
 800830c:	08009794 	.word	0x08009794

08008310 <__multiply>:
 8008310:	e92d 4ff0 	stmdb	sp!, {r4, r5, r6, r7, r8, r9, sl, fp, lr}
 8008314:	4614      	mov	r4, r2
 8008316:	690a      	ldr	r2, [r1, #16]
 8008318:	6923      	ldr	r3, [r4, #16]
 800831a:	429a      	cmp	r2, r3
 800831c:	bfb8      	it	lt
 800831e:	460b      	movlt	r3, r1
 8008320:	460d      	mov	r5, r1
 8008322:	bfbc      	itt	lt
 8008324:	4625      	movlt	r5, r4
 8008326:	461c      	movlt	r4, r3
 8008328:	f8d5 a010 	ldr.w	sl, [r5, #16]
 800832c:	f8d4 9010 	ldr.w	r9, [r4, #16]
 8008330:	68ab      	ldr	r3, [r5, #8]
 8008332:	6869      	ldr	r1, [r5, #4]
 8008334:	eb0a 0709 	add.w	r7, sl, r9
 8008338:	42bb      	cmp	r3, r7
 800833a:	b085      	sub	sp, #20
 800833c:	bfb8      	it	lt
 800833e:	3101      	addlt	r1, #1
 8008340:	f7ff fed4 	bl	80080ec <_Balloc>
 8008344:	b930      	cbnz	r0, 8008354 <__multiply+0x44>
 8008346:	4602      	mov	r2, r0
 8008348:	4b42      	ldr	r3, [pc, #264]	; (8008454 <__multiply+0x144>)
 800834a:	4843      	ldr	r0, [pc, #268]	; (8008458 <__multiply+0x148>)
 800834c:	f240 115d 	movw	r1, #349	; 0x15d
 8008350:	f000 fd84 	bl	8008e5c <__assert_func>
 8008354:	f100 0614 	add.w	r6, r0, #20
 8008358:	eb06 0887 	add.w	r8, r6, r7, lsl #2
 800835c:	4633      	mov	r3, r6
 800835e:	2200      	movs	r2, #0
 8008360:	4543      	cmp	r3, r8
 8008362:	d31e      	bcc.n	80083a2 <__multiply+0x92>
 8008364:	f105 0c14 	add.w	ip, r5, #20
 8008368:	f104 0314 	add.w	r3, r4, #20
 800836c:	eb0c 0c8a 	add.w	ip, ip, sl, lsl #2
 8008370:	eb03 0289 	add.w	r2, r3, r9, lsl #2
 8008374:	9202      	str	r2, [sp, #8]
 8008376:	ebac 0205 	sub.w	r2, ip, r5
 800837a:	3a15      	subs	r2, #21
 800837c:	f022 0203 	bic.w	r2, r2, #3
 8008380:	3204      	adds	r2, #4
 8008382:	f105 0115 	add.w	r1, r5, #21
 8008386:	458c      	cmp	ip, r1
 8008388:	bf38      	it	cc
 800838a:	2204      	movcc	r2, #4
 800838c:	9201      	str	r2, [sp, #4]
 800838e:	9a02      	ldr	r2, [sp, #8]
 8008390:	9303      	str	r3, [sp, #12]
 8008392:	429a      	cmp	r2, r3
 8008394:	d808      	bhi.n	80083a8 <__multiply+0x98>
 8008396:	2f00      	cmp	r7, #0
 8008398:	dc55      	bgt.n	8008446 <__multiply+0x136>
 800839a:	6107      	str	r7, [r0, #16]
 800839c:	b005      	add	sp, #20
 800839e:	e8bd 8ff0 	ldmia.w	sp!, {r4, r5, r6, r7, r8, r9, sl, fp, pc}
 80083a2:	f843 2b04 	str.w	r2, [r3], #4
 80083a6:	e7db      	b.n	8008360 <__multiply+0x50>
 80083a8:	f8b3 a000 	ldrh.w	sl, [r3]
 80083ac:	f1ba 0f00 	cmp.w	sl, #0
 80083b0:	d020      	beq.n	80083f4 <__multiply+0xe4>
 80083b2:	f105 0e14 	add.w	lr, r5, #20
 80083b6:	46b1      	mov	r9, r6
 80083b8:	2200      	movs	r2, #0
 80083ba:	f85e 4b04 	ldr.w	r4, [lr], #4
 80083be:	f8d9 b000 	ldr.w	fp, [r9]
 80083c2:	b2a1      	uxth	r1, r4
 80083c4:	fa1f fb8b 	uxth.w	fp, fp
 80083c8:	fb0a b101 	mla	r1, sl, r1, fp
 80083cc:	4411      	add	r1, r2
 80083ce:	f8d9 2000 	ldr.w	r2, [r9]
 80083d2:	0c24      	lsrs	r4, r4, #16
 80083d4:	0c12      	lsrs	r2, r2, #16
 80083d6:	fb0a 2404 	mla	r4, sl, r4, r2
 80083da:	eb04 4411 	add.w	r4, r4, r1, lsr #16
 80083de:	b289      	uxth	r1, r1
 80083e0:	ea41 4104 	orr.w	r1, r1, r4, lsl #16
 80083e4:	45f4      	cmp	ip, lr
 80083e6:	f849 1b04 	str.w	r1, [r9], #4
 80083ea:	ea4f 4214 	mov.w	r2, r4, lsr #16
 80083ee:	d8e4      	bhi.n	80083ba <__multiply+0xaa>
 80083f0:	9901      	ldr	r1, [sp, #4]
 80083f2:	5072      	str	r2, [r6, r1]
 80083f4:	9a03      	ldr	r2, [sp, #12]
 80083f6:	f8b2 9002 	ldrh.w	r9, [r2, #2]
 80083fa:	3304      	adds	r3, #4
 80083fc:	f1b9 0f00 	cmp.w	r9, #0
 8008400:	d01f      	beq.n	8008442 <__multiply+0x132>
 8008402:	6834      	ldr	r4, [r6, #0]
 8008404:	f105 0114 	add.w	r1, r5, #20
 8008408:	46b6      	mov	lr, r6
 800840a:	f04f 0a00 	mov.w	sl, #0
 800840e:	880a      	ldrh	r2, [r1, #0]
 8008410:	f8be b002 	ldrh.w	fp, [lr, #2]
 8008414:	fb09 b202 	mla	r2, r9, r2, fp
 8008418:	4492      	add	sl, r2
 800841a:	b2a4      	uxth	r4, r4
 800841c:	ea44 440a 	orr.w	r4, r4, sl, lsl #16
 8008420:	f84e 4b04 	str.w	r4, [lr], #4
 8008424:	f851 4b04 	ldr.w	r4, [r1], #4
 8008428:	f8be 2000 	ldrh.w	r2, [lr]
 800842c:	0c24      	lsrs	r4, r4, #16
 800842e:	fb09 2404 	mla	r4, r9, r4, r2
 8008432:	eb04 441a 	add.w	r4, r4, sl, lsr #16
 8008436:	458c      	cmp	ip, r1
 8008438:	ea4f 4a14 	mov.w	sl, r4, lsr #16
 800843c:	d8e7      	bhi.n	800840e <__multiply+0xfe>
 800843e:	9a01      	ldr	r2, [sp, #4]
 8008440:	50b4      	str	r4, [r6, r2]
 8008442:	3604      	adds	r6, #4
 8008444:	e7a3      	b.n	800838e <__multiply+0x7e>
 8008446:	f858 3d04 	ldr.w	r3, [r8, #-4]!
 800844a:	2b00      	cmp	r3, #0
 800844c:	d1a5      	bne.n	800839a <__multiply+0x8a>
 800844e:	3f01      	subs	r7, #1
 8008450:	e7a1      	b.n	8008396 <__multiply+0x86>
 8008452:	bf00      	nop
 8008454:	08009723 	.word	0x08009723
 8008458:	08009794 	.word	0x08009794

0800845c <__pow5mult>:
 800845c:	e92d 43f8 	stmdb	sp!, {r3, r4, r5, r6, r7, r8, r9, lr}
 8008460:	4615      	mov	r5, r2
 8008462:	f012 0203 	ands.w	r2, r2, #3
 8008466:	4606      	mov	r6, r0
 8008468:	460f      	mov	r7, r1
 800846a:	d007      	beq.n	800847c <__pow5mult+0x20>
 800846c:	4c25      	ldr	r4, [pc, #148]	; (8008504 <__pow5mult+0xa8>)
 800846e:	3a01      	subs	r2, #1
 8008470:	2300      	movs	r3, #0
 8008472:	f854 2022 	ldr.w	r2, [r4, r2, lsl #2]
 8008476:	f7ff fe9b 	bl	80081b0 <__multadd>
 800847a:	4607      	mov	r7, r0
 800847c:	10ad      	asrs	r5, r5, #2
 800847e:	d03d      	beq.n	80084fc <__pow5mult+0xa0>
 8008480:	6a74      	ldr	r4, [r6, #36]	; 0x24
 8008482:	b97c      	cbnz	r4, 80084a4 <__pow5mult+0x48>
 8008484:	2010      	movs	r0, #16
 8008486:	f7ff fe29 	bl	80080dc <malloc>
 800848a:	4602      	mov	r2, r0
 800848c:	6270      	str	r0, [r6, #36]	; 0x24
 800848e:	b928      	cbnz	r0, 800849c <__pow5mult+0x40>
 8008490:	4b1d      	ldr	r3, [pc, #116]	; (8008508 <__pow5mult+0xac>)
 8008492:	481e      	ldr	r0, [pc, #120]	; (800850c <__pow5mult+0xb0>)
 8008494:	f44f 71d7 	mov.w	r1, #430	; 0x1ae
 8008498:	f000 fce0 	bl	8008e5c <__assert_func>
 800849c:	e9c0 4401 	strd	r4, r4, [r0, #4]
 80084a0:	6004      	str	r4, [r0, #0]
 80084a2:	60c4      	str	r4, [r0, #12]
 80084a4:	f8d6 8024 	ldr.w	r8, [r6, #36]	; 0x24
 80084a8:	f8d8 4008 	ldr.w	r4, [r8, #8]
 80084ac:	b94c      	cbnz	r4, 80084c2 <__pow5mult+0x66>
 80084ae:	f240 2171 	movw	r1, #625	; 0x271
 80084b2:	4630      	mov	r0, r6
 80084b4:	f7ff ff16 	bl	80082e4 <__i2b>
 80084b8:	2300      	movs	r3, #0
 80084ba:	f8c8 0008 	str.w	r0, [r8, #8]
 80084be:	4604      	mov	r4, r0
 80084c0:	6003      	str	r3, [r0, #0]
 80084c2:	f04f 0900 	mov.w	r9, #0
 80084c6:	07eb      	lsls	r3, r5, #31
 80084c8:	d50a      	bpl.n	80084e0 <__pow5mult+0x84>
 80084ca:	4639      	mov	r1, r7
 80084cc:	4622      	mov	r2, r4
 80084ce:	4630      	mov	r0, r6
 80084d0:	f7ff ff1e 	bl	8008310 <__multiply>
 80084d4:	4639      	mov	r1, r7
 80084d6:	4680      	mov	r8, r0
 80084d8:	4630      	mov	r0, r6
 80084da:	f7ff fe47 	bl	800816c <_Bfree>
 80084de:	4647      	mov	r7, r8
 80084e0:	106d      	asrs	r5, r5, #1
 80084e2:	d00b      	beq.n	80084fc <__pow5mult+0xa0>
 80084e4:	6820      	ldr	r0, [r4, #0]
 80084e6:	b938      	cbnz	r0, 80084f8 <__pow5mult+0x9c>
 80084e8:	4622      	mov	r2, r4
 80084ea:	4621      	mov	r1, r4
 80084ec:	4630      	mov	r0, r6
 80084ee:	f7ff ff0f 	bl	8008310 <__multiply>
 80084f2:	6020      	str	r0, [r4, #0]
 80084f4:	f8c0 9000 	str.w	r9, [r0]
 80084f8:	4604      	mov	r4, r0
 80084fa:	e7e4      	b.n	80084c6 <__pow5mult+0x6a>
 80084fc:	4638      	mov	r0, r7
 80084fe:	e8bd 83f8 	ldmia.w	sp!, {r3, r4, r5, r6, r7, r8, r9, pc}
 8008502:	bf00      	nop
 8008504:	080098e8 	.word	0x080098e8
 8008508:	080096ad 	.word	0x080096ad
 800850c:	08009794 	.word	0x08009794

08008510 <__lshift>:
 8008510:	e92d 47f0 	stmdb	sp!, {r4, r5, r6, r7, r8, r9, sl, lr}
 8008514:	460c      	mov	r4, r1
 8008516:	6849      	ldr	r1, [r1, #4]
 8008518:	6923      	ldr	r3, [r4, #16]
 800851a:	eb03 1862 	add.w	r8, r3, r2, asr #5
 800851e:	68a3      	ldr	r3, [r4, #8]
 8008520:	4607      	mov	r7, r0
 8008522:	4691      	mov	r9, r2
 8008524:	ea4f 1a62 	mov.w	sl, r2, asr #5
 8008528:	f108 0601 	add.w	r6, r8, #1
 800852c:	42b3      	cmp	r3, r6
 800852e:	db0b      	blt.n	8008548 <__lshift+0x38>
 8008530:	4638      	mov	r0, r7
 8008532:	f7ff fddb 	bl	80080ec <_Balloc>
 8008536:	4605      	mov	r5, r0
 8008538:	b948      	cbnz	r0, 800854e <__lshift+0x3e>
 800853a:	4602      	mov	r2, r0
 800853c:	4b28      	ldr	r3, [pc, #160]	; (80085e0 <__lshift+0xd0>)
 800853e:	4829      	ldr	r0, [pc, #164]	; (80085e4 <__lshift+0xd4>)
 8008540:	f240 11d9 	movw	r1, #473	; 0x1d9
 8008544:	f000 fc8a 	bl	8008e5c <__assert_func>
 8008548:	3101      	adds	r1, #1
 800854a:	005b      	lsls	r3, r3, #1
 800854c:	e7ee      	b.n	800852c <__lshift+0x1c>
 800854e:	2300      	movs	r3, #0
 8008550:	f100 0114 	add.w	r1, r0, #20
 8008554:	f100 0210 	add.w	r2, r0, #16
 8008558:	4618      	mov	r0, r3
 800855a:	4553      	cmp	r3, sl
 800855c:	db33      	blt.n	80085c6 <__lshift+0xb6>
 800855e:	6920      	ldr	r0, [r4, #16]
 8008560:	ea2a 7aea 	bic.w	sl, sl, sl, asr #31
 8008564:	f104 0314 	add.w	r3, r4, #20
 8008568:	f019 091f 	ands.w	r9, r9, #31
 800856c:	eb01 018a 	add.w	r1, r1, sl, lsl #2
 8008570:	eb03 0c80 	add.w	ip, r3, r0, lsl #2
 8008574:	d02b      	beq.n	80085ce <__lshift+0xbe>
 8008576:	f1c9 0e20 	rsb	lr, r9, #32
 800857a:	468a      	mov	sl, r1
 800857c:	2200      	movs	r2, #0
 800857e:	6818      	ldr	r0, [r3, #0]
 8008580:	fa00 f009 	lsl.w	r0, r0, r9
 8008584:	4302      	orrs	r2, r0
 8008586:	f84a 2b04 	str.w	r2, [sl], #4
 800858a:	f853 2b04 	ldr.w	r2, [r3], #4
 800858e:	459c      	cmp	ip, r3
 8008590:	fa22 f20e 	lsr.w	r2, r2, lr
 8008594:	d8f3      	bhi.n	800857e <__lshift+0x6e>
 8008596:	ebac 0304 	sub.w	r3, ip, r4
 800859a:	3b15      	subs	r3, #21
 800859c:	f023 0303 	bic.w	r3, r3, #3
 80085a0:	3304      	adds	r3, #4
 80085a2:	f104 0015 	add.w	r0, r4, #21
 80085a6:	4584      	cmp	ip, r0
 80085a8:	bf38      	it	cc
 80085aa:	2304      	movcc	r3, #4
 80085ac:	50ca      	str	r2, [r1, r3]
 80085ae:	b10a      	cbz	r2, 80085b4 <__lshift+0xa4>
 80085b0:	f108 0602 	add.w	r6, r8, #2
 80085b4:	3e01      	subs	r6, #1
 80085b6:	4638      	mov	r0, r7
 80085b8:	612e      	str	r6, [r5, #16]
 80085ba:	4621      	mov	r1, r4
 80085bc:	f7ff fdd6 	bl	800816c <_Bfree>
 80085c0:	4628      	mov	r0, r5
 80085c2:	e8bd 87f0 	ldmia.w	sp!, {r4, r5, r6, r7, r8, r9, sl, pc}
 80085c6:	f842 0f04 	str.w	r0, [r2, #4]!
 80085ca:	3301      	adds	r3, #1
 80085cc:	e7c5      	b.n	800855a <__lshift+0x4a>
 80085ce:	3904      	subs	r1, #4
 80085d0:	f853 2b04 	ldr.w	r2, [r3], #4
 80085d4:	f841 2f04 	str.w	r2, [r1, #4]!
 80085d8:	459c      	cmp	ip, r3
 80085da:	d8f9      	bhi.n	80085d0 <__lshift+0xc0>
 80085dc:	e7ea      	b.n	80085b4 <__lshift+0xa4>
 80085de:	bf00      	nop
 80085e0:	08009723 	.word	0x08009723
 80085e4:	08009794 	.word	0x08009794

080085e8 <__mcmp>:
 80085e8:	b530      	push	{r4, r5, lr}
 80085ea:	6902      	ldr	r2, [r0, #16]
 80085ec:	690c      	ldr	r4, [r1, #16]
 80085ee:	1b12      	subs	r2, r2, r4
 80085f0:	d10e      	bne.n	8008610 <__mcmp+0x28>
 80085f2:	f100 0314 	add.w	r3, r0, #20
 80085f6:	3114      	adds	r1, #20
 80085f8:	eb03 0084 	add.w	r0, r3, r4, lsl #2
 80085fc:	eb01 0184 	add.w	r1, r1, r4, lsl #2
 8008600:	f850 5d04 	ldr.w	r5, [r0, #-4]!
 8008604:	f851 4d04 	ldr.w	r4, [r1, #-4]!
 8008608:	42a5      	cmp	r5, r4
 800860a:	d003      	beq.n	8008614 <__mcmp+0x2c>
 800860c:	d305      	bcc.n	800861a <__mcmp+0x32>
 800860e:	2201      	movs	r2, #1
 8008610:	4610      	mov	r0, r2
 8008612:	bd30      	pop	{r4, r5, pc}
 8008614:	4283      	cmp	r3, r0
 8008616:	d3f3      	bcc.n	8008600 <__mcmp+0x18>
 8008618:	e7fa      	b.n	8008610 <__mcmp+0x28>
 800861a:	f04f 32ff 	mov.w	r2, #4294967295
 800861e:	e7f7      	b.n	8008610 <__mcmp+0x28>

08008620 <__mdiff>:
 8008620:	e92d 4ff8 	stmdb	sp!, {r3, r4, r5, r6, r7, r8, r9, sl, fp, lr}
 8008624:	460c      	mov	r4, r1
 8008626:	4606      	mov	r6, r0
 8008628:	4611      	mov	r1, r2
 800862a:	4620      	mov	r0, r4
 800862c:	4617      	mov	r7, r2
 800862e:	f7ff ffdb 	bl	80085e8 <__mcmp>
 8008632:	1e05      	subs	r5, r0, #0
 8008634:	d110      	bne.n	8008658 <__mdiff+0x38>
 8008636:	4629      	mov	r1, r5
 8008638:	4630      	mov	r0, r6
 800863a:	f7ff fd57 	bl	80080ec <_Balloc>
 800863e:	b930      	cbnz	r0, 800864e <__mdiff+0x2e>
 8008640:	4b39      	ldr	r3, [pc, #228]	; (8008728 <__mdiff+0x108>)
 8008642:	4602      	mov	r2, r0
 8008644:	f240 2132 	movw	r1, #562	; 0x232
 8008648:	4838      	ldr	r0, [pc, #224]	; (800872c <__mdiff+0x10c>)
 800864a:	f000 fc07 	bl	8008e5c <__assert_func>
 800864e:	2301      	movs	r3, #1
 8008650:	e9c0 3504 	strd	r3, r5, [r0, #16]
 8008654:	e8bd 8ff8 	ldmia.w	sp!, {r3, r4, r5, r6, r7, r8, r9, sl, fp, pc}
 8008658:	bfa4      	itt	ge
 800865a:	463b      	movge	r3, r7
 800865c:	4627      	movge	r7, r4
 800865e:	4630      	mov	r0, r6
 8008660:	6879      	ldr	r1, [r7, #4]
 8008662:	bfa6      	itte	ge
 8008664:	461c      	movge	r4, r3
 8008666:	2500      	movge	r5, #0
 8008668:	2501      	movlt	r5, #1
 800866a:	f7ff fd3f 	bl	80080ec <_Balloc>
 800866e:	b920      	cbnz	r0, 800867a <__mdiff+0x5a>
 8008670:	4b2d      	ldr	r3, [pc, #180]	; (8008728 <__mdiff+0x108>)
 8008672:	4602      	mov	r2, r0
 8008674:	f44f 7110 	mov.w	r1, #576	; 0x240
 8008678:	e7e6      	b.n	8008648 <__mdiff+0x28>
 800867a:	693e      	ldr	r6, [r7, #16]
 800867c:	60c5      	str	r5, [r0, #12]
 800867e:	6925      	ldr	r5, [r4, #16]
 8008680:	f107 0114 	add.w	r1, r7, #20
 8008684:	f104 0914 	add.w	r9, r4, #20
 8008688:	f100 0e14 	add.w	lr, r0, #20
 800868c:	f107 0210 	add.w	r2, r7, #16
 8008690:	eb01 0c86 	add.w	ip, r1, r6, lsl #2
 8008694:	eb09 0585 	add.w	r5, r9, r5, lsl #2
 8008698:	46f2      	mov	sl, lr
 800869a:	2700      	movs	r7, #0
 800869c:	f859 3b04 	ldr.w	r3, [r9], #4
 80086a0:	f852 bf04 	ldr.w	fp, [r2, #4]!
 80086a4:	fa1f f883 	uxth.w	r8, r3
 80086a8:	fa17 f78b 	uxtah	r7, r7, fp
 80086ac:	0c1b      	lsrs	r3, r3, #16
 80086ae:	eba7 0808 	sub.w	r8, r7, r8
 80086b2:	ebc3 431b 	rsb	r3, r3, fp, lsr #16
 80086b6:	eb03 4328 	add.w	r3, r3, r8, asr #16
 80086ba:	fa1f f888 	uxth.w	r8, r8
 80086be:	141f      	asrs	r7, r3, #16
 80086c0:	454d      	cmp	r5, r9
 80086c2:	ea48 4303 	orr.w	r3, r8, r3, lsl #16
 80086c6:	f84a 3b04 	str.w	r3, [sl], #4
 80086ca:	d8e7      	bhi.n	800869c <__mdiff+0x7c>
 80086cc:	1b2b      	subs	r3, r5, r4
 80086ce:	3b15      	subs	r3, #21
 80086d0:	f023 0303 	bic.w	r3, r3, #3
 80086d4:	3304      	adds	r3, #4
 80086d6:	3415      	adds	r4, #21
 80086d8:	42a5      	cmp	r5, r4
 80086da:	bf38      	it	cc
 80086dc:	2304      	movcc	r3, #4
 80086de:	4419      	add	r1, r3
 80086e0:	4473      	add	r3, lr
 80086e2:	469e      	mov	lr, r3
 80086e4:	460d      	mov	r5, r1
 80086e6:	4565      	cmp	r5, ip
 80086e8:	d30e      	bcc.n	8008708 <__mdiff+0xe8>
 80086ea:	f10c 0203 	add.w	r2, ip, #3
 80086ee:	1a52      	subs	r2, r2, r1
 80086f0:	f022 0203 	bic.w	r2, r2, #3
 80086f4:	3903      	subs	r1, #3
 80086f6:	458c      	cmp	ip, r1
 80086f8:	bf38      	it	cc
 80086fa:	2200      	movcc	r2, #0
 80086fc:	441a      	add	r2, r3
 80086fe:	f852 3d04 	ldr.w	r3, [r2, #-4]!
 8008702:	b17b      	cbz	r3, 8008724 <__mdiff+0x104>
 8008704:	6106      	str	r6, [r0, #16]
 8008706:	e7a5      	b.n	8008654 <__mdiff+0x34>
 8008708:	f855 8b04 	ldr.w	r8, [r5], #4
 800870c:	fa17 f488 	uxtah	r4, r7, r8
 8008710:	1422      	asrs	r2, r4, #16
 8008712:	eb02 4218 	add.w	r2, r2, r8, lsr #16
 8008716:	b2a4      	uxth	r4, r4
 8008718:	ea44 4402 	orr.w	r4, r4, r2, lsl #16
 800871c:	f84e 4b04 	str.w	r4, [lr], #4
 8008720:	1417      	asrs	r7, r2, #16
 8008722:	e7e0      	b.n	80086e6 <__mdiff+0xc6>
 8008724:	3e01      	subs	r6, #1
 8008726:	e7ea      	b.n	80086fe <__mdiff+0xde>
 8008728:	08009723 	.word	0x08009723
 800872c:	08009794 	.word	0x08009794

08008730 <__d2b>:
 8008730:	e92d 43f7 	stmdb	sp!, {r0, r1, r2, r4, r5, r6, r7, r8, r9, lr}
 8008734:	4689      	mov	r9, r1
 8008736:	2101      	movs	r1, #1
 8008738:	ec57 6b10 	vmov	r6, r7, d0
 800873c:	4690      	mov	r8, r2
 800873e:	f7ff fcd5 	bl	80080ec <_Balloc>
 8008742:	4604      	mov	r4, r0
 8008744:	b930      	cbnz	r0, 8008754 <__d2b+0x24>
 8008746:	4602      	mov	r2, r0
 8008748:	4b25      	ldr	r3, [pc, #148]	; (80087e0 <__d2b+0xb0>)
 800874a:	4826      	ldr	r0, [pc, #152]	; (80087e4 <__d2b+0xb4>)
 800874c:	f240 310a 	movw	r1, #778	; 0x30a
 8008750:	f000 fb84 	bl	8008e5c <__assert_func>
 8008754:	f3c7 550a 	ubfx	r5, r7, #20, #11
 8008758:	f3c7 0313 	ubfx	r3, r7, #0, #20
 800875c:	bb35      	cbnz	r5, 80087ac <__d2b+0x7c>
 800875e:	2e00      	cmp	r6, #0
 8008760:	9301      	str	r3, [sp, #4]
 8008762:	d028      	beq.n	80087b6 <__d2b+0x86>
 8008764:	4668      	mov	r0, sp
 8008766:	9600      	str	r6, [sp, #0]
 8008768:	f7ff fd8c 	bl	8008284 <__lo0bits>
 800876c:	9900      	ldr	r1, [sp, #0]
 800876e:	b300      	cbz	r0, 80087b2 <__d2b+0x82>
 8008770:	9a01      	ldr	r2, [sp, #4]
 8008772:	f1c0 0320 	rsb	r3, r0, #32
 8008776:	fa02 f303 	lsl.w	r3, r2, r3
 800877a:	430b      	orrs	r3, r1
 800877c:	40c2      	lsrs	r2, r0
 800877e:	6163      	str	r3, [r4, #20]
 8008780:	9201      	str	r2, [sp, #4]
 8008782:	9b01      	ldr	r3, [sp, #4]
 8008784:	61a3      	str	r3, [r4, #24]
 8008786:	2b00      	cmp	r3, #0
 8008788:	bf14      	ite	ne
 800878a:	2202      	movne	r2, #2
 800878c:	2201      	moveq	r2, #1
 800878e:	6122      	str	r2, [r4, #16]
 8008790:	b1d5      	cbz	r5, 80087c8 <__d2b+0x98>
 8008792:	f2a5 4533 	subw	r5, r5, #1075	; 0x433
 8008796:	4405      	add	r5, r0
 8008798:	f8c9 5000 	str.w	r5, [r9]
 800879c:	f1c0 0035 	rsb	r0, r0, #53	; 0x35
 80087a0:	f8c8 0000 	str.w	r0, [r8]
 80087a4:	4620      	mov	r0, r4
 80087a6:	b003      	add	sp, #12
 80087a8:	e8bd 83f0 	ldmia.w	sp!, {r4, r5, r6, r7, r8, r9, pc}
 80087ac:	f443 1380 	orr.w	r3, r3, #1048576	; 0x100000
 80087b0:	e7d5      	b.n	800875e <__d2b+0x2e>
 80087b2:	6161      	str	r1, [r4, #20]
 80087b4:	e7e5      	b.n	8008782 <__d2b+0x52>
 80087b6:	a801      	add	r0, sp, #4
 80087b8:	f7ff fd64 	bl	8008284 <__lo0bits>
 80087bc:	9b01      	ldr	r3, [sp, #4]
 80087be:	6163      	str	r3, [r4, #20]
 80087c0:	2201      	movs	r2, #1
 80087c2:	6122      	str	r2, [r4, #16]
 80087c4:	3020      	adds	r0, #32
 80087c6:	e7e3      	b.n	8008790 <__d2b+0x60>
 80087c8:	eb04 0382 	add.w	r3, r4, r2, lsl #2
 80087cc:	f2a0 4032 	subw	r0, r0, #1074	; 0x432
 80087d0:	f8c9 0000 	str.w	r0, [r9]
 80087d4:	6918      	ldr	r0, [r3, #16]
 80087d6:	f7ff fd35 	bl	8008244 <__hi0bits>
 80087da:	ebc0 1042 	rsb	r0, r0, r2, lsl #5
 80087de:	e7df      	b.n	80087a0 <__d2b+0x70>
 80087e0:	08009723 	.word	0x08009723
 80087e4:	08009794 	.word	0x08009794

080087e8 <_calloc_r>:
 80087e8:	b513      	push	{r0, r1, r4, lr}
 80087ea:	434a      	muls	r2, r1
 80087ec:	4611      	mov	r1, r2
 80087ee:	9201      	str	r2, [sp, #4]
 80087f0:	f000 f85a 	bl	80088a8 <_malloc_r>
 80087f4:	4604      	mov	r4, r0
 80087f6:	b118      	cbz	r0, 8008800 <_calloc_r+0x18>
 80087f8:	9a01      	ldr	r2, [sp, #4]
 80087fa:	2100      	movs	r1, #0
 80087fc:	f7fe f86c 	bl	80068d8 <memset>
 8008800:	4620      	mov	r0, r4
 8008802:	b002      	add	sp, #8
 8008804:	bd10      	pop	{r4, pc}
	...

08008808 <_free_r>:
 8008808:	b537      	push	{r0, r1, r2, r4, r5, lr}
 800880a:	2900      	cmp	r1, #0
 800880c:	d048      	beq.n	80088a0 <_free_r+0x98>
 800880e:	f851 3c04 	ldr.w	r3, [r1, #-4]
 8008812:	9001      	str	r0, [sp, #4]
 8008814:	2b00      	cmp	r3, #0
 8008816:	f1a1 0404 	sub.w	r4, r1, #4
 800881a:	bfb8      	it	lt
 800881c:	18e4      	addlt	r4, r4, r3
 800881e:	f000 fca7 	bl	8009170 <__malloc_lock>
 8008822:	4a20      	ldr	r2, [pc, #128]	; (80088a4 <_free_r+0x9c>)
 8008824:	9801      	ldr	r0, [sp, #4]
 8008826:	6813      	ldr	r3, [r2, #0]
 8008828:	4615      	mov	r5, r2
 800882a:	b933      	cbnz	r3, 800883a <_free_r+0x32>
 800882c:	6063      	str	r3, [r4, #4]
 800882e:	6014      	str	r4, [r2, #0]
 8008830:	b003      	add	sp, #12
 8008832:	e8bd 4030 	ldmia.w	sp!, {r4, r5, lr}
 8008836:	f000 bca1 	b.w	800917c <__malloc_unlock>
 800883a:	42a3      	cmp	r3, r4
 800883c:	d90b      	bls.n	8008856 <_free_r+0x4e>
 800883e:	6821      	ldr	r1, [r4, #0]
 8008840:	1862      	adds	r2, r4, r1
 8008842:	4293      	cmp	r3, r2
 8008844:	bf04      	itt	eq
 8008846:	681a      	ldreq	r2, [r3, #0]
 8008848:	685b      	ldreq	r3, [r3, #4]
 800884a:	6063      	str	r3, [r4, #4]
 800884c:	bf04      	itt	eq
 800884e:	1852      	addeq	r2, r2, r1
 8008850:	6022      	streq	r2, [r4, #0]
 8008852:	602c      	str	r4, [r5, #0]
 8008854:	e7ec      	b.n	8008830 <_free_r+0x28>
 8008856:	461a      	mov	r2, r3
 8008858:	685b      	ldr	r3, [r3, #4]
 800885a:	b10b      	cbz	r3, 8008860 <_free_r+0x58>
 800885c:	42a3      	cmp	r3, r4
 800885e:	d9fa      	bls.n	8008856 <_free_r+0x4e>
 8008860:	6811      	ldr	r1, [r2, #0]
 8008862:	1855      	adds	r5, r2, r1
 8008864:	42a5      	cmp	r5, r4
 8008866:	d10b      	bne.n	8008880 <_free_r+0x78>
 8008868:	6824      	ldr	r4, [r4, #0]
 800886a:	4421      	add	r1, r4
 800886c:	1854      	adds	r4, r2, r1
 800886e:	42a3      	cmp	r3, r4
 8008870:	6011      	str	r1, [r2, #0]
 8008872:	d1dd      	bne.n	8008830 <_free_r+0x28>
 8008874:	681c      	ldr	r4, [r3, #0]
 8008876:	685b      	ldr	r3, [r3, #4]
 8008878:	6053      	str	r3, [r2, #4]
 800887a:	4421      	add	r1, r4
 800887c:	6011      	str	r1, [r2, #0]
 800887e:	e7d7      	b.n	8008830 <_free_r+0x28>
 8008880:	d902      	bls.n	8008888 <_free_r+0x80>
 8008882:	230c      	movs	r3, #12
 8008884:	6003      	str	r3, [r0, #0]
 8008886:	e7d3      	b.n	8008830 <_free_r+0x28>
 8008888:	6825      	ldr	r5, [r4, #0]
 800888a:	1961      	adds	r1, r4, r5
 800888c:	428b      	cmp	r3, r1
 800888e:	bf04      	itt	eq
 8008890:	6819      	ldreq	r1, [r3, #0]
 8008892:	685b      	ldreq	r3, [r3, #4]
 8008894:	6063      	str	r3, [r4, #4]
 8008896:	bf04      	itt	eq
 8008898:	1949      	addeq	r1, r1, r5
 800889a:	6021      	streq	r1, [r4, #0]
 800889c:	6054      	str	r4, [r2, #4]
 800889e:	e7c7      	b.n	8008830 <_free_r+0x28>
 80088a0:	b003      	add	sp, #12
 80088a2:	bd30      	pop	{r4, r5, pc}
 80088a4:	200005a8 	.word	0x200005a8

080088a8 <_malloc_r>:
 80088a8:	b5f8      	push	{r3, r4, r5, r6, r7, lr}
 80088aa:	1ccd      	adds	r5, r1, #3
 80088ac:	f025 0503 	bic.w	r5, r5, #3
 80088b0:	3508      	adds	r5, #8
 80088b2:	2d0c      	cmp	r5, #12
 80088b4:	bf38      	it	cc
 80088b6:	250c      	movcc	r5, #12
 80088b8:	2d00      	cmp	r5, #0
 80088ba:	4606      	mov	r6, r0
 80088bc:	db01      	blt.n	80088c2 <_malloc_r+0x1a>
 80088be:	42a9      	cmp	r1, r5
 80088c0:	d903      	bls.n	80088ca <_malloc_r+0x22>
 80088c2:	230c      	movs	r3, #12
 80088c4:	6033      	str	r3, [r6, #0]
 80088c6:	2000      	movs	r0, #0
 80088c8:	bdf8      	pop	{r3, r4, r5, r6, r7, pc}
 80088ca:	f000 fc51 	bl	8009170 <__malloc_lock>
 80088ce:	4921      	ldr	r1, [pc, #132]	; (8008954 <_malloc_r+0xac>)
 80088d0:	680a      	ldr	r2, [r1, #0]
 80088d2:	4614      	mov	r4, r2
 80088d4:	b99c      	cbnz	r4, 80088fe <_malloc_r+0x56>
 80088d6:	4f20      	ldr	r7, [pc, #128]	; (8008958 <_malloc_r+0xb0>)
 80088d8:	683b      	ldr	r3, [r7, #0]
 80088da:	b923      	cbnz	r3, 80088e6 <_malloc_r+0x3e>
 80088dc:	4621      	mov	r1, r4
 80088de:	4630      	mov	r0, r6
 80088e0:	f000 f996 	bl	8008c10 <_sbrk_r>
 80088e4:	6038      	str	r0, [r7, #0]
 80088e6:	4629      	mov	r1, r5
 80088e8:	4630      	mov	r0, r6
 80088ea:	f000 f991 	bl	8008c10 <_sbrk_r>
 80088ee:	1c43      	adds	r3, r0, #1
 80088f0:	d123      	bne.n	800893a <_malloc_r+0x92>
 80088f2:	230c      	movs	r3, #12
 80088f4:	6033      	str	r3, [r6, #0]
 80088f6:	4630      	mov	r0, r6
 80088f8:	f000 fc40 	bl	800917c <__malloc_unlock>
 80088fc:	e7e3      	b.n	80088c6 <_malloc_r+0x1e>
 80088fe:	6823      	ldr	r3, [r4, #0]
 8008900:	1b5b      	subs	r3, r3, r5
 8008902:	d417      	bmi.n	8008934 <_malloc_r+0x8c>
 8008904:	2b0b      	cmp	r3, #11
 8008906:	d903      	bls.n	8008910 <_malloc_r+0x68>
 8008908:	6023      	str	r3, [r4, #0]
 800890a:	441c      	add	r4, r3
 800890c:	6025      	str	r5, [r4, #0]
 800890e:	e004      	b.n	800891a <_malloc_r+0x72>
 8008910:	6863      	ldr	r3, [r4, #4]
 8008912:	42a2      	cmp	r2, r4
 8008914:	bf0c      	ite	eq
 8008916:	600b      	streq	r3, [r1, #0]
 8008918:	6053      	strne	r3, [r2, #4]
 800891a:	4630      	mov	r0, r6
 800891c:	f000 fc2e 	bl	800917c <__malloc_unlock>
 8008920:	f104 000b 	add.w	r0, r4, #11
 8008924:	1d23      	adds	r3, r4, #4
 8008926:	f020 0007 	bic.w	r0, r0, #7
 800892a:	1ac2      	subs	r2, r0, r3
 800892c:	d0cc      	beq.n	80088c8 <_malloc_r+0x20>
 800892e:	1a1b      	subs	r3, r3, r0
 8008930:	50a3      	str	r3, [r4, r2]
 8008932:	e7c9      	b.n	80088c8 <_malloc_r+0x20>
 8008934:	4622      	mov	r2, r4
 8008936:	6864      	ldr	r4, [r4, #4]
 8008938:	e7cc      	b.n	80088d4 <_malloc_r+0x2c>
 800893a:	1cc4      	adds	r4, r0, #3
 800893c:	f024 0403 	bic.w	r4, r4, #3
 8008940:	42a0      	cmp	r0, r4
 8008942:	d0e3      	beq.n	800890c <_malloc_r+0x64>
 8008944:	1a21      	subs	r1, r4, r0
 8008946:	4630      	mov	r0, r6
 8008948:	f000 f962 	bl	8008c10 <_sbrk_r>
 800894c:	3001      	adds	r0, #1
 800894e:	d1dd      	bne.n	800890c <_malloc_r+0x64>
 8008950:	e7cf      	b.n	80088f2 <_malloc_r+0x4a>
 8008952:	bf00      	nop
 8008954:	200005a8 	.word	0x200005a8
 8008958:	200005ac 	.word	0x200005ac

0800895c <__sfputc_r>:
 800895c:	6893      	ldr	r3, [r2, #8]
 800895e:	3b01      	subs	r3, #1
 8008960:	2b00      	cmp	r3, #0
 8008962:	b410      	push	{r4}
 8008964:	6093      	str	r3, [r2, #8]
 8008966:	da08      	bge.n	800897a <__sfputc_r+0x1e>
 8008968:	6994      	ldr	r4, [r2, #24]
 800896a:	42a3      	cmp	r3, r4
 800896c:	db01      	blt.n	8008972 <__sfputc_r+0x16>
 800896e:	290a      	cmp	r1, #10
 8008970:	d103      	bne.n	800897a <__sfputc_r+0x1e>
 8008972:	f85d 4b04 	ldr.w	r4, [sp], #4
 8008976:	f000 b99f 	b.w	8008cb8 <__swbuf_r>
 800897a:	6813      	ldr	r3, [r2, #0]
 800897c:	1c58      	adds	r0, r3, #1
 800897e:	6010      	str	r0, [r2, #0]
 8008980:	7019      	strb	r1, [r3, #0]
 8008982:	4608      	mov	r0, r1
 8008984:	f85d 4b04 	ldr.w	r4, [sp], #4
 8008988:	4770      	bx	lr

0800898a <__sfputs_r>:
 800898a:	b5f8      	push	{r3, r4, r5, r6, r7, lr}
 800898c:	4606      	mov	r6, r0
 800898e:	460f      	mov	r7, r1
 8008990:	4614      	mov	r4, r2
 8008992:	18d5      	adds	r5, r2, r3
 8008994:	42ac      	cmp	r4, r5
 8008996:	d101      	bne.n	800899c <__sfputs_r+0x12>
 8008998:	2000      	movs	r0, #0
 800899a:	e007      	b.n	80089ac <__sfputs_r+0x22>
 800899c:	f814 1b01 	ldrb.w	r1, [r4], #1
 80089a0:	463a      	mov	r2, r7
 80089a2:	4630      	mov	r0, r6
 80089a4:	f7ff ffda 	bl	800895c <__sfputc_r>
 80089a8:	1c43      	adds	r3, r0, #1
 80089aa:	d1f3      	bne.n	8008994 <__sfputs_r+0xa>
 80089ac:	bdf8      	pop	{r3, r4, r5, r6, r7, pc}
	...

080089b0 <_vfiprintf_r>:
 80089b0:	e92d 4ff0 	stmdb	sp!, {r4, r5, r6, r7, r8, r9, sl, fp, lr}
 80089b4:	460d      	mov	r5, r1
 80089b6:	b09d      	sub	sp, #116	; 0x74
 80089b8:	4614      	mov	r4, r2
 80089ba:	4698      	mov	r8, r3
 80089bc:	4606      	mov	r6, r0
 80089be:	b118      	cbz	r0, 80089c8 <_vfiprintf_r+0x18>
 80089c0:	6983      	ldr	r3, [r0, #24]
 80089c2:	b90b      	cbnz	r3, 80089c8 <_vfiprintf_r+0x18>
 80089c4:	f7ff fae4 	bl	8007f90 <__sinit>
 80089c8:	4b89      	ldr	r3, [pc, #548]	; (8008bf0 <_vfiprintf_r+0x240>)
 80089ca:	429d      	cmp	r5, r3
 80089cc:	d11b      	bne.n	8008a06 <_vfiprintf_r+0x56>
 80089ce:	6875      	ldr	r5, [r6, #4]
 80089d0:	6e6b      	ldr	r3, [r5, #100]	; 0x64
 80089d2:	07d9      	lsls	r1, r3, #31
 80089d4:	d405      	bmi.n	80089e2 <_vfiprintf_r+0x32>
 80089d6:	89ab      	ldrh	r3, [r5, #12]
 80089d8:	059a      	lsls	r2, r3, #22
 80089da:	d402      	bmi.n	80089e2 <_vfiprintf_r+0x32>
 80089dc:	6da8      	ldr	r0, [r5, #88]	; 0x58
 80089de:	f7ff fb7a 	bl	80080d6 <__retarget_lock_acquire_recursive>
 80089e2:	89ab      	ldrh	r3, [r5, #12]
 80089e4:	071b      	lsls	r3, r3, #28
 80089e6:	d501      	bpl.n	80089ec <_vfiprintf_r+0x3c>
 80089e8:	692b      	ldr	r3, [r5, #16]
 80089ea:	b9eb      	cbnz	r3, 8008a28 <_vfiprintf_r+0x78>
 80089ec:	4629      	mov	r1, r5
 80089ee:	4630      	mov	r0, r6
 80089f0:	f000 f9c6 	bl	8008d80 <__swsetup_r>
 80089f4:	b1c0      	cbz	r0, 8008a28 <_vfiprintf_r+0x78>
 80089f6:	6e6b      	ldr	r3, [r5, #100]	; 0x64
 80089f8:	07dc      	lsls	r4, r3, #31
 80089fa:	d50e      	bpl.n	8008a1a <_vfiprintf_r+0x6a>
 80089fc:	f04f 30ff 	mov.w	r0, #4294967295
 8008a00:	b01d      	add	sp, #116	; 0x74
 8008a02:	e8bd 8ff0 	ldmia.w	sp!, {r4, r5, r6, r7, r8, r9, sl, fp, pc}
 8008a06:	4b7b      	ldr	r3, [pc, #492]	; (8008bf4 <_vfiprintf_r+0x244>)
 8008a08:	429d      	cmp	r5, r3
 8008a0a:	d101      	bne.n	8008a10 <_vfiprintf_r+0x60>
 8008a0c:	68b5      	ldr	r5, [r6, #8]
 8008a0e:	e7df      	b.n	80089d0 <_vfiprintf_r+0x20>
 8008a10:	4b79      	ldr	r3, [pc, #484]	; (8008bf8 <_vfiprintf_r+0x248>)
 8008a12:	429d      	cmp	r5, r3
 8008a14:	bf08      	it	eq
 8008a16:	68f5      	ldreq	r5, [r6, #12]
 8008a18:	e7da      	b.n	80089d0 <_vfiprintf_r+0x20>
 8008a1a:	89ab      	ldrh	r3, [r5, #12]
 8008a1c:	0598      	lsls	r0, r3, #22
 8008a1e:	d4ed      	bmi.n	80089fc <_vfiprintf_r+0x4c>
 8008a20:	6da8      	ldr	r0, [r5, #88]	; 0x58
 8008a22:	f7ff fb59 	bl	80080d8 <__retarget_lock_release_recursive>
 8008a26:	e7e9      	b.n	80089fc <_vfiprintf_r+0x4c>
 8008a28:	2300      	movs	r3, #0
 8008a2a:	9309      	str	r3, [sp, #36]	; 0x24
 8008a2c:	2320      	movs	r3, #32
 8008a2e:	f88d 3029 	strb.w	r3, [sp, #41]	; 0x29
 8008a32:	f8cd 800c 	str.w	r8, [sp, #12]
 8008a36:	2330      	movs	r3, #48	; 0x30
 8008a38:	f8df 81c0 	ldr.w	r8, [pc, #448]	; 8008bfc <_vfiprintf_r+0x24c>
 8008a3c:	f88d 302a 	strb.w	r3, [sp, #42]	; 0x2a
 8008a40:	f04f 0901 	mov.w	r9, #1
 8008a44:	4623      	mov	r3, r4
 8008a46:	469a      	mov	sl, r3
 8008a48:	f813 2b01 	ldrb.w	r2, [r3], #1
 8008a4c:	b10a      	cbz	r2, 8008a52 <_vfiprintf_r+0xa2>
 8008a4e:	2a25      	cmp	r2, #37	; 0x25
 8008a50:	d1f9      	bne.n	8008a46 <_vfiprintf_r+0x96>
 8008a52:	ebba 0b04 	subs.w	fp, sl, r4
 8008a56:	d00b      	beq.n	8008a70 <_vfiprintf_r+0xc0>
 8008a58:	465b      	mov	r3, fp
 8008a5a:	4622      	mov	r2, r4
 8008a5c:	4629      	mov	r1, r5
 8008a5e:	4630      	mov	r0, r6
 8008a60:	f7ff ff93 	bl	800898a <__sfputs_r>
 8008a64:	3001      	adds	r0, #1
 8008a66:	f000 80aa 	beq.w	8008bbe <_vfiprintf_r+0x20e>
 8008a6a:	9a09      	ldr	r2, [sp, #36]	; 0x24
 8008a6c:	445a      	add	r2, fp
 8008a6e:	9209      	str	r2, [sp, #36]	; 0x24
 8008a70:	f89a 3000 	ldrb.w	r3, [sl]
 8008a74:	2b00      	cmp	r3, #0
 8008a76:	f000 80a2 	beq.w	8008bbe <_vfiprintf_r+0x20e>
 8008a7a:	2300      	movs	r3, #0
 8008a7c:	f04f 32ff 	mov.w	r2, #4294967295
 8008a80:	e9cd 2305 	strd	r2, r3, [sp, #20]
 8008a84:	f10a 0a01 	add.w	sl, sl, #1
 8008a88:	9304      	str	r3, [sp, #16]
 8008a8a:	9307      	str	r3, [sp, #28]
 8008a8c:	f88d 3053 	strb.w	r3, [sp, #83]	; 0x53
 8008a90:	931a      	str	r3, [sp, #104]	; 0x68
 8008a92:	4654      	mov	r4, sl
 8008a94:	2205      	movs	r2, #5
 8008a96:	f814 1b01 	ldrb.w	r1, [r4], #1
 8008a9a:	4858      	ldr	r0, [pc, #352]	; (8008bfc <_vfiprintf_r+0x24c>)
 8008a9c:	f7f7 fbc0 	bl	8000220 <memchr>
 8008aa0:	9a04      	ldr	r2, [sp, #16]
 8008aa2:	b9d8      	cbnz	r0, 8008adc <_vfiprintf_r+0x12c>
 8008aa4:	06d1      	lsls	r1, r2, #27
 8008aa6:	bf44      	itt	mi
 8008aa8:	2320      	movmi	r3, #32
 8008aaa:	f88d 3053 	strbmi.w	r3, [sp, #83]	; 0x53
 8008aae:	0713      	lsls	r3, r2, #28
 8008ab0:	bf44      	itt	mi
 8008ab2:	232b      	movmi	r3, #43	; 0x2b
 8008ab4:	f88d 3053 	strbmi.w	r3, [sp, #83]	; 0x53
 8008ab8:	f89a 3000 	ldrb.w	r3, [sl]
 8008abc:	2b2a      	cmp	r3, #42	; 0x2a
 8008abe:	d015      	beq.n	8008aec <_vfiprintf_r+0x13c>
 8008ac0:	9a07      	ldr	r2, [sp, #28]
 8008ac2:	4654      	mov	r4, sl
 8008ac4:	2000      	movs	r0, #0
 8008ac6:	f04f 0c0a 	mov.w	ip, #10
 8008aca:	4621      	mov	r1, r4
 8008acc:	f811 3b01 	ldrb.w	r3, [r1], #1
 8008ad0:	3b30      	subs	r3, #48	; 0x30
 8008ad2:	2b09      	cmp	r3, #9
 8008ad4:	d94e      	bls.n	8008b74 <_vfiprintf_r+0x1c4>
 8008ad6:	b1b0      	cbz	r0, 8008b06 <_vfiprintf_r+0x156>
 8008ad8:	9207      	str	r2, [sp, #28]
 8008ada:	e014      	b.n	8008b06 <_vfiprintf_r+0x156>
 8008adc:	eba0 0308 	sub.w	r3, r0, r8
 8008ae0:	fa09 f303 	lsl.w	r3, r9, r3
 8008ae4:	4313      	orrs	r3, r2
 8008ae6:	9304      	str	r3, [sp, #16]
 8008ae8:	46a2      	mov	sl, r4
 8008aea:	e7d2      	b.n	8008a92 <_vfiprintf_r+0xe2>
 8008aec:	9b03      	ldr	r3, [sp, #12]
 8008aee:	1d19      	adds	r1, r3, #4
 8008af0:	681b      	ldr	r3, [r3, #0]
 8008af2:	9103      	str	r1, [sp, #12]
 8008af4:	2b00      	cmp	r3, #0
 8008af6:	bfbb      	ittet	lt
 8008af8:	425b      	neglt	r3, r3
 8008afa:	f042 0202 	orrlt.w	r2, r2, #2
 8008afe:	9307      	strge	r3, [sp, #28]
 8008b00:	9307      	strlt	r3, [sp, #28]
 8008b02:	bfb8      	it	lt
 8008b04:	9204      	strlt	r2, [sp, #16]
 8008b06:	7823      	ldrb	r3, [r4, #0]
 8008b08:	2b2e      	cmp	r3, #46	; 0x2e
 8008b0a:	d10c      	bne.n	8008b26 <_vfiprintf_r+0x176>
 8008b0c:	7863      	ldrb	r3, [r4, #1]
 8008b0e:	2b2a      	cmp	r3, #42	; 0x2a
 8008b10:	d135      	bne.n	8008b7e <_vfiprintf_r+0x1ce>
 8008b12:	9b03      	ldr	r3, [sp, #12]
 8008b14:	1d1a      	adds	r2, r3, #4
 8008b16:	681b      	ldr	r3, [r3, #0]
 8008b18:	9203      	str	r2, [sp, #12]
 8008b1a:	2b00      	cmp	r3, #0
 8008b1c:	bfb8      	it	lt
 8008b1e:	f04f 33ff 	movlt.w	r3, #4294967295
 8008b22:	3402      	adds	r4, #2
 8008b24:	9305      	str	r3, [sp, #20]
 8008b26:	f8df a0e4 	ldr.w	sl, [pc, #228]	; 8008c0c <_vfiprintf_r+0x25c>
 8008b2a:	7821      	ldrb	r1, [r4, #0]
 8008b2c:	2203      	movs	r2, #3
 8008b2e:	4650      	mov	r0, sl
 8008b30:	f7f7 fb76 	bl	8000220 <memchr>
 8008b34:	b140      	cbz	r0, 8008b48 <_vfiprintf_r+0x198>
 8008b36:	2340      	movs	r3, #64	; 0x40
 8008b38:	eba0 000a 	sub.w	r0, r0, sl
 8008b3c:	fa03 f000 	lsl.w	r0, r3, r0
 8008b40:	9b04      	ldr	r3, [sp, #16]
 8008b42:	4303      	orrs	r3, r0
 8008b44:	3401      	adds	r4, #1
 8008b46:	9304      	str	r3, [sp, #16]
 8008b48:	f814 1b01 	ldrb.w	r1, [r4], #1
 8008b4c:	482c      	ldr	r0, [pc, #176]	; (8008c00 <_vfiprintf_r+0x250>)
 8008b4e:	f88d 1028 	strb.w	r1, [sp, #40]	; 0x28
 8008b52:	2206      	movs	r2, #6
 8008b54:	f7f7 fb64 	bl	8000220 <memchr>
 8008b58:	2800      	cmp	r0, #0
 8008b5a:	d03f      	beq.n	8008bdc <_vfiprintf_r+0x22c>
 8008b5c:	4b29      	ldr	r3, [pc, #164]	; (8008c04 <_vfiprintf_r+0x254>)
 8008b5e:	bb1b      	cbnz	r3, 8008ba8 <_vfiprintf_r+0x1f8>
 8008b60:	9b03      	ldr	r3, [sp, #12]
 8008b62:	3307      	adds	r3, #7
 8008b64:	f023 0307 	bic.w	r3, r3, #7
 8008b68:	3308      	adds	r3, #8
 8008b6a:	9303      	str	r3, [sp, #12]
 8008b6c:	9b09      	ldr	r3, [sp, #36]	; 0x24
 8008b6e:	443b      	add	r3, r7
 8008b70:	9309      	str	r3, [sp, #36]	; 0x24
 8008b72:	e767      	b.n	8008a44 <_vfiprintf_r+0x94>
 8008b74:	fb0c 3202 	mla	r2, ip, r2, r3
 8008b78:	460c      	mov	r4, r1
 8008b7a:	2001      	movs	r0, #1
 8008b7c:	e7a5      	b.n	8008aca <_vfiprintf_r+0x11a>
 8008b7e:	2300      	movs	r3, #0
 8008b80:	3401      	adds	r4, #1
 8008b82:	9305      	str	r3, [sp, #20]
 8008b84:	4619      	mov	r1, r3
 8008b86:	f04f 0c0a 	mov.w	ip, #10
 8008b8a:	4620      	mov	r0, r4
 8008b8c:	f810 2b01 	ldrb.w	r2, [r0], #1
 8008b90:	3a30      	subs	r2, #48	; 0x30
 8008b92:	2a09      	cmp	r2, #9
 8008b94:	d903      	bls.n	8008b9e <_vfiprintf_r+0x1ee>
 8008b96:	2b00      	cmp	r3, #0
 8008b98:	d0c5      	beq.n	8008b26 <_vfiprintf_r+0x176>
 8008b9a:	9105      	str	r1, [sp, #20]
 8008b9c:	e7c3      	b.n	8008b26 <_vfiprintf_r+0x176>
 8008b9e:	fb0c 2101 	mla	r1, ip, r1, r2
 8008ba2:	4604      	mov	r4, r0
 8008ba4:	2301      	movs	r3, #1
 8008ba6:	e7f0      	b.n	8008b8a <_vfiprintf_r+0x1da>
 8008ba8:	ab03      	add	r3, sp, #12
 8008baa:	9300      	str	r3, [sp, #0]
 8008bac:	462a      	mov	r2, r5
 8008bae:	4b16      	ldr	r3, [pc, #88]	; (8008c08 <_vfiprintf_r+0x258>)
 8008bb0:	a904      	add	r1, sp, #16
 8008bb2:	4630      	mov	r0, r6
 8008bb4:	f7fd ff38 	bl	8006a28 <_printf_float>
 8008bb8:	4607      	mov	r7, r0
 8008bba:	1c78      	adds	r0, r7, #1
 8008bbc:	d1d6      	bne.n	8008b6c <_vfiprintf_r+0x1bc>
 8008bbe:	6e6b      	ldr	r3, [r5, #100]	; 0x64
 8008bc0:	07d9      	lsls	r1, r3, #31
 8008bc2:	d405      	bmi.n	8008bd0 <_vfiprintf_r+0x220>
 8008bc4:	89ab      	ldrh	r3, [r5, #12]
 8008bc6:	059a      	lsls	r2, r3, #22
 8008bc8:	d402      	bmi.n	8008bd0 <_vfiprintf_r+0x220>
 8008bca:	6da8      	ldr	r0, [r5, #88]	; 0x58
 8008bcc:	f7ff fa84 	bl	80080d8 <__retarget_lock_release_recursive>
 8008bd0:	89ab      	ldrh	r3, [r5, #12]
 8008bd2:	065b      	lsls	r3, r3, #25
 8008bd4:	f53f af12 	bmi.w	80089fc <_vfiprintf_r+0x4c>
 8008bd8:	9809      	ldr	r0, [sp, #36]	; 0x24
 8008bda:	e711      	b.n	8008a00 <_vfiprintf_r+0x50>
 8008bdc:	ab03      	add	r3, sp, #12
 8008bde:	9300      	str	r3, [sp, #0]
 8008be0:	462a      	mov	r2, r5
 8008be2:	4b09      	ldr	r3, [pc, #36]	; (8008c08 <_vfiprintf_r+0x258>)
 8008be4:	a904      	add	r1, sp, #16
 8008be6:	4630      	mov	r0, r6
 8008be8:	f7fe f9c2 	bl	8006f70 <_printf_i>
 8008bec:	e7e4      	b.n	8008bb8 <_vfiprintf_r+0x208>
 8008bee:	bf00      	nop
 8008bf0:	08009754 	.word	0x08009754
 8008bf4:	08009774 	.word	0x08009774
 8008bf8:	08009734 	.word	0x08009734
 8008bfc:	080098f4 	.word	0x080098f4
 8008c00:	080098fe 	.word	0x080098fe
 8008c04:	08006a29 	.word	0x08006a29
 8008c08:	0800898b 	.word	0x0800898b
 8008c0c:	080098fa 	.word	0x080098fa

08008c10 <_sbrk_r>:
 8008c10:	b538      	push	{r3, r4, r5, lr}
 8008c12:	4d06      	ldr	r5, [pc, #24]	; (8008c2c <_sbrk_r+0x1c>)
 8008c14:	2300      	movs	r3, #0
 8008c16:	4604      	mov	r4, r0
 8008c18:	4608      	mov	r0, r1
 8008c1a:	602b      	str	r3, [r5, #0]
 8008c1c:	f7f9 f9d8 	bl	8001fd0 <_sbrk>
 8008c20:	1c43      	adds	r3, r0, #1
 8008c22:	d102      	bne.n	8008c2a <_sbrk_r+0x1a>
 8008c24:	682b      	ldr	r3, [r5, #0]
 8008c26:	b103      	cbz	r3, 8008c2a <_sbrk_r+0x1a>
 8008c28:	6023      	str	r3, [r4, #0]
 8008c2a:	bd38      	pop	{r3, r4, r5, pc}
 8008c2c:	20002248 	.word	0x20002248

08008c30 <__sread>:
 8008c30:	b510      	push	{r4, lr}
 8008c32:	460c      	mov	r4, r1
 8008c34:	f9b1 100e 	ldrsh.w	r1, [r1, #14]
 8008c38:	f000 faa6 	bl	8009188 <_read_r>
 8008c3c:	2800      	cmp	r0, #0
 8008c3e:	bfab      	itete	ge
 8008c40:	6d63      	ldrge	r3, [r4, #84]	; 0x54
 8008c42:	89a3      	ldrhlt	r3, [r4, #12]
 8008c44:	181b      	addge	r3, r3, r0
 8008c46:	f423 5380 	biclt.w	r3, r3, #4096	; 0x1000
 8008c4a:	bfac      	ite	ge
 8008c4c:	6563      	strge	r3, [r4, #84]	; 0x54
 8008c4e:	81a3      	strhlt	r3, [r4, #12]
 8008c50:	bd10      	pop	{r4, pc}

08008c52 <__swrite>:
 8008c52:	e92d 41f0 	stmdb	sp!, {r4, r5, r6, r7, r8, lr}
 8008c56:	461f      	mov	r7, r3
 8008c58:	898b      	ldrh	r3, [r1, #12]
 8008c5a:	05db      	lsls	r3, r3, #23
 8008c5c:	4605      	mov	r5, r0
 8008c5e:	460c      	mov	r4, r1
 8008c60:	4616      	mov	r6, r2
 8008c62:	d505      	bpl.n	8008c70 <__swrite+0x1e>
 8008c64:	f9b1 100e 	ldrsh.w	r1, [r1, #14]
 8008c68:	2302      	movs	r3, #2
 8008c6a:	2200      	movs	r2, #0
 8008c6c:	f000 f9f8 	bl	8009060 <_lseek_r>
 8008c70:	89a3      	ldrh	r3, [r4, #12]
 8008c72:	f9b4 100e 	ldrsh.w	r1, [r4, #14]
 8008c76:	f423 5380 	bic.w	r3, r3, #4096	; 0x1000
 8008c7a:	81a3      	strh	r3, [r4, #12]
 8008c7c:	4632      	mov	r2, r6
 8008c7e:	463b      	mov	r3, r7
 8008c80:	4628      	mov	r0, r5
 8008c82:	e8bd 41f0 	ldmia.w	sp!, {r4, r5, r6, r7, r8, lr}
 8008c86:	f000 b869 	b.w	8008d5c <_write_r>

08008c8a <__sseek>:
 8008c8a:	b510      	push	{r4, lr}
 8008c8c:	460c      	mov	r4, r1
 8008c8e:	f9b1 100e 	ldrsh.w	r1, [r1, #14]
 8008c92:	f000 f9e5 	bl	8009060 <_lseek_r>
 8008c96:	1c43      	adds	r3, r0, #1
 8008c98:	89a3      	ldrh	r3, [r4, #12]
 8008c9a:	bf15      	itete	ne
 8008c9c:	6560      	strne	r0, [r4, #84]	; 0x54
 8008c9e:	f423 5380 	biceq.w	r3, r3, #4096	; 0x1000
 8008ca2:	f443 5380 	orrne.w	r3, r3, #4096	; 0x1000
 8008ca6:	81a3      	strheq	r3, [r4, #12]
 8008ca8:	bf18      	it	ne
 8008caa:	81a3      	strhne	r3, [r4, #12]
 8008cac:	bd10      	pop	{r4, pc}

08008cae <__sclose>:
 8008cae:	f9b1 100e 	ldrsh.w	r1, [r1, #14]
 8008cb2:	f000 b8f1 	b.w	8008e98 <_close_r>
	...

08008cb8 <__swbuf_r>:
 8008cb8:	b5f8      	push	{r3, r4, r5, r6, r7, lr}
 8008cba:	460e      	mov	r6, r1
 8008cbc:	4614      	mov	r4, r2
 8008cbe:	4605      	mov	r5, r0
 8008cc0:	b118      	cbz	r0, 8008cca <__swbuf_r+0x12>
 8008cc2:	6983      	ldr	r3, [r0, #24]
 8008cc4:	b90b      	cbnz	r3, 8008cca <__swbuf_r+0x12>
 8008cc6:	f7ff f963 	bl	8007f90 <__sinit>
 8008cca:	4b21      	ldr	r3, [pc, #132]	; (8008d50 <__swbuf_r+0x98>)
 8008ccc:	429c      	cmp	r4, r3
 8008cce:	d12b      	bne.n	8008d28 <__swbuf_r+0x70>
 8008cd0:	686c      	ldr	r4, [r5, #4]
 8008cd2:	69a3      	ldr	r3, [r4, #24]
 8008cd4:	60a3      	str	r3, [r4, #8]
 8008cd6:	89a3      	ldrh	r3, [r4, #12]
 8008cd8:	071a      	lsls	r2, r3, #28
 8008cda:	d52f      	bpl.n	8008d3c <__swbuf_r+0x84>
 8008cdc:	6923      	ldr	r3, [r4, #16]
 8008cde:	b36b      	cbz	r3, 8008d3c <__swbuf_r+0x84>
 8008ce0:	6923      	ldr	r3, [r4, #16]
 8008ce2:	6820      	ldr	r0, [r4, #0]
 8008ce4:	1ac0      	subs	r0, r0, r3
 8008ce6:	6963      	ldr	r3, [r4, #20]
 8008ce8:	b2f6      	uxtb	r6, r6
 8008cea:	4283      	cmp	r3, r0
 8008cec:	4637      	mov	r7, r6
 8008cee:	dc04      	bgt.n	8008cfa <__swbuf_r+0x42>
 8008cf0:	4621      	mov	r1, r4
 8008cf2:	4628      	mov	r0, r5
 8008cf4:	f000 f966 	bl	8008fc4 <_fflush_r>
 8008cf8:	bb30      	cbnz	r0, 8008d48 <__swbuf_r+0x90>
 8008cfa:	68a3      	ldr	r3, [r4, #8]
 8008cfc:	3b01      	subs	r3, #1
 8008cfe:	60a3      	str	r3, [r4, #8]
 8008d00:	6823      	ldr	r3, [r4, #0]
 8008d02:	1c5a      	adds	r2, r3, #1
 8008d04:	6022      	str	r2, [r4, #0]
 8008d06:	701e      	strb	r6, [r3, #0]
 8008d08:	6963      	ldr	r3, [r4, #20]
 8008d0a:	3001      	adds	r0, #1
 8008d0c:	4283      	cmp	r3, r0
 8008d0e:	d004      	beq.n	8008d1a <__swbuf_r+0x62>
 8008d10:	89a3      	ldrh	r3, [r4, #12]
 8008d12:	07db      	lsls	r3, r3, #31
 8008d14:	d506      	bpl.n	8008d24 <__swbuf_r+0x6c>
 8008d16:	2e0a      	cmp	r6, #10
 8008d18:	d104      	bne.n	8008d24 <__swbuf_r+0x6c>
 8008d1a:	4621      	mov	r1, r4
 8008d1c:	4628      	mov	r0, r5
 8008d1e:	f000 f951 	bl	8008fc4 <_fflush_r>
 8008d22:	b988      	cbnz	r0, 8008d48 <__swbuf_r+0x90>
 8008d24:	4638      	mov	r0, r7
 8008d26:	bdf8      	pop	{r3, r4, r5, r6, r7, pc}
 8008d28:	4b0a      	ldr	r3, [pc, #40]	; (8008d54 <__swbuf_r+0x9c>)
 8008d2a:	429c      	cmp	r4, r3
 8008d2c:	d101      	bne.n	8008d32 <__swbuf_r+0x7a>
 8008d2e:	68ac      	ldr	r4, [r5, #8]
 8008d30:	e7cf      	b.n	8008cd2 <__swbuf_r+0x1a>
 8008d32:	4b09      	ldr	r3, [pc, #36]	; (8008d58 <__swbuf_r+0xa0>)
 8008d34:	429c      	cmp	r4, r3
 8008d36:	bf08      	it	eq
 8008d38:	68ec      	ldreq	r4, [r5, #12]
 8008d3a:	e7ca      	b.n	8008cd2 <__swbuf_r+0x1a>
 8008d3c:	4621      	mov	r1, r4
 8008d3e:	4628      	mov	r0, r5
 8008d40:	f000 f81e 	bl	8008d80 <__swsetup_r>
 8008d44:	2800      	cmp	r0, #0
 8008d46:	d0cb      	beq.n	8008ce0 <__swbuf_r+0x28>
 8008d48:	f04f 37ff 	mov.w	r7, #4294967295
 8008d4c:	e7ea      	b.n	8008d24 <__swbuf_r+0x6c>
 8008d4e:	bf00      	nop
 8008d50:	08009754 	.word	0x08009754
 8008d54:	08009774 	.word	0x08009774
 8008d58:	08009734 	.word	0x08009734

08008d5c <_write_r>:
 8008d5c:	b538      	push	{r3, r4, r5, lr}
 8008d5e:	4d07      	ldr	r5, [pc, #28]	; (8008d7c <_write_r+0x20>)
 8008d60:	4604      	mov	r4, r0
 8008d62:	4608      	mov	r0, r1
 8008d64:	4611      	mov	r1, r2
 8008d66:	2200      	movs	r2, #0
 8008d68:	602a      	str	r2, [r5, #0]
 8008d6a:	461a      	mov	r2, r3
 8008d6c:	f7f9 f917 	bl	8001f9e <_write>
 8008d70:	1c43      	adds	r3, r0, #1
 8008d72:	d102      	bne.n	8008d7a <_write_r+0x1e>
 8008d74:	682b      	ldr	r3, [r5, #0]
 8008d76:	b103      	cbz	r3, 8008d7a <_write_r+0x1e>
 8008d78:	6023      	str	r3, [r4, #0]
 8008d7a:	bd38      	pop	{r3, r4, r5, pc}
 8008d7c:	20002248 	.word	0x20002248

08008d80 <__swsetup_r>:
 8008d80:	4b32      	ldr	r3, [pc, #200]	; (8008e4c <__swsetup_r+0xcc>)
 8008d82:	b570      	push	{r4, r5, r6, lr}
 8008d84:	681d      	ldr	r5, [r3, #0]
 8008d86:	4606      	mov	r6, r0
 8008d88:	460c      	mov	r4, r1
 8008d8a:	b125      	cbz	r5, 8008d96 <__swsetup_r+0x16>
 8008d8c:	69ab      	ldr	r3, [r5, #24]
 8008d8e:	b913      	cbnz	r3, 8008d96 <__swsetup_r+0x16>
 8008d90:	4628      	mov	r0, r5
 8008d92:	f7ff f8fd 	bl	8007f90 <__sinit>
 8008d96:	4b2e      	ldr	r3, [pc, #184]	; (8008e50 <__swsetup_r+0xd0>)
 8008d98:	429c      	cmp	r4, r3
 8008d9a:	d10f      	bne.n	8008dbc <__swsetup_r+0x3c>
 8008d9c:	686c      	ldr	r4, [r5, #4]
 8008d9e:	89a3      	ldrh	r3, [r4, #12]
 8008da0:	f9b4 200c 	ldrsh.w	r2, [r4, #12]
 8008da4:	0719      	lsls	r1, r3, #28
 8008da6:	d42c      	bmi.n	8008e02 <__swsetup_r+0x82>
 8008da8:	06dd      	lsls	r5, r3, #27
 8008daa:	d411      	bmi.n	8008dd0 <__swsetup_r+0x50>
 8008dac:	2309      	movs	r3, #9
 8008dae:	6033      	str	r3, [r6, #0]
 8008db0:	f042 0340 	orr.w	r3, r2, #64	; 0x40
 8008db4:	81a3      	strh	r3, [r4, #12]
 8008db6:	f04f 30ff 	mov.w	r0, #4294967295
 8008dba:	e03e      	b.n	8008e3a <__swsetup_r+0xba>
 8008dbc:	4b25      	ldr	r3, [pc, #148]	; (8008e54 <__swsetup_r+0xd4>)
 8008dbe:	429c      	cmp	r4, r3
 8008dc0:	d101      	bne.n	8008dc6 <__swsetup_r+0x46>
 8008dc2:	68ac      	ldr	r4, [r5, #8]
 8008dc4:	e7eb      	b.n	8008d9e <__swsetup_r+0x1e>
 8008dc6:	4b24      	ldr	r3, [pc, #144]	; (8008e58 <__swsetup_r+0xd8>)
 8008dc8:	429c      	cmp	r4, r3
 8008dca:	bf08      	it	eq
 8008dcc:	68ec      	ldreq	r4, [r5, #12]
 8008dce:	e7e6      	b.n	8008d9e <__swsetup_r+0x1e>
 8008dd0:	0758      	lsls	r0, r3, #29
 8008dd2:	d512      	bpl.n	8008dfa <__swsetup_r+0x7a>
 8008dd4:	6b61      	ldr	r1, [r4, #52]	; 0x34
 8008dd6:	b141      	cbz	r1, 8008dea <__swsetup_r+0x6a>
 8008dd8:	f104 0344 	add.w	r3, r4, #68	; 0x44
 8008ddc:	4299      	cmp	r1, r3
 8008dde:	d002      	beq.n	8008de6 <__swsetup_r+0x66>
 8008de0:	4630      	mov	r0, r6
 8008de2:	f7ff fd11 	bl	8008808 <_free_r>
 8008de6:	2300      	movs	r3, #0
 8008de8:	6363      	str	r3, [r4, #52]	; 0x34
 8008dea:	89a3      	ldrh	r3, [r4, #12]
 8008dec:	f023 0324 	bic.w	r3, r3, #36	; 0x24
 8008df0:	81a3      	strh	r3, [r4, #12]
 8008df2:	2300      	movs	r3, #0
 8008df4:	6063      	str	r3, [r4, #4]
 8008df6:	6923      	ldr	r3, [r4, #16]
 8008df8:	6023      	str	r3, [r4, #0]
 8008dfa:	89a3      	ldrh	r3, [r4, #12]
 8008dfc:	f043 0308 	orr.w	r3, r3, #8
 8008e00:	81a3      	strh	r3, [r4, #12]
 8008e02:	6923      	ldr	r3, [r4, #16]
 8008e04:	b94b      	cbnz	r3, 8008e1a <__swsetup_r+0x9a>
 8008e06:	89a3      	ldrh	r3, [r4, #12]
 8008e08:	f403 7320 	and.w	r3, r3, #640	; 0x280
 8008e0c:	f5b3 7f00 	cmp.w	r3, #512	; 0x200
 8008e10:	d003      	beq.n	8008e1a <__swsetup_r+0x9a>
 8008e12:	4621      	mov	r1, r4
 8008e14:	4630      	mov	r0, r6
 8008e16:	f000 f959 	bl	80090cc <__smakebuf_r>
 8008e1a:	89a0      	ldrh	r0, [r4, #12]
 8008e1c:	f9b4 200c 	ldrsh.w	r2, [r4, #12]
 8008e20:	f010 0301 	ands.w	r3, r0, #1
 8008e24:	d00a      	beq.n	8008e3c <__swsetup_r+0xbc>
 8008e26:	2300      	movs	r3, #0
 8008e28:	60a3      	str	r3, [r4, #8]
 8008e2a:	6963      	ldr	r3, [r4, #20]
 8008e2c:	425b      	negs	r3, r3
 8008e2e:	61a3      	str	r3, [r4, #24]
 8008e30:	6923      	ldr	r3, [r4, #16]
 8008e32:	b943      	cbnz	r3, 8008e46 <__swsetup_r+0xc6>
 8008e34:	f010 0080 	ands.w	r0, r0, #128	; 0x80
 8008e38:	d1ba      	bne.n	8008db0 <__swsetup_r+0x30>
 8008e3a:	bd70      	pop	{r4, r5, r6, pc}
 8008e3c:	0781      	lsls	r1, r0, #30
 8008e3e:	bf58      	it	pl
 8008e40:	6963      	ldrpl	r3, [r4, #20]
 8008e42:	60a3      	str	r3, [r4, #8]
 8008e44:	e7f4      	b.n	8008e30 <__swsetup_r+0xb0>
 8008e46:	2000      	movs	r0, #0
 8008e48:	e7f7      	b.n	8008e3a <__swsetup_r+0xba>
 8008e4a:	bf00      	nop
 8008e4c:	20000190 	.word	0x20000190
 8008e50:	08009754 	.word	0x08009754
 8008e54:	08009774 	.word	0x08009774
 8008e58:	08009734 	.word	0x08009734

08008e5c <__assert_func>:
 8008e5c:	b51f      	push	{r0, r1, r2, r3, r4, lr}
 8008e5e:	4614      	mov	r4, r2
 8008e60:	461a      	mov	r2, r3
 8008e62:	4b09      	ldr	r3, [pc, #36]	; (8008e88 <__assert_func+0x2c>)
 8008e64:	681b      	ldr	r3, [r3, #0]
 8008e66:	4605      	mov	r5, r0
 8008e68:	68d8      	ldr	r0, [r3, #12]
 8008e6a:	b14c      	cbz	r4, 8008e80 <__assert_func+0x24>
 8008e6c:	4b07      	ldr	r3, [pc, #28]	; (8008e8c <__assert_func+0x30>)
 8008e6e:	9100      	str	r1, [sp, #0]
 8008e70:	e9cd 3401 	strd	r3, r4, [sp, #4]
 8008e74:	4906      	ldr	r1, [pc, #24]	; (8008e90 <__assert_func+0x34>)
 8008e76:	462b      	mov	r3, r5
 8008e78:	f000 f8e0 	bl	800903c <fiprintf>
 8008e7c:	f000 f9a3 	bl	80091c6 <abort>
 8008e80:	4b04      	ldr	r3, [pc, #16]	; (8008e94 <__assert_func+0x38>)
 8008e82:	461c      	mov	r4, r3
 8008e84:	e7f3      	b.n	8008e6e <__assert_func+0x12>
 8008e86:	bf00      	nop
 8008e88:	20000190 	.word	0x20000190
 8008e8c:	08009905 	.word	0x08009905
 8008e90:	08009912 	.word	0x08009912
 8008e94:	0800961d 	.word	0x0800961d

08008e98 <_close_r>:
 8008e98:	b538      	push	{r3, r4, r5, lr}
 8008e9a:	4d06      	ldr	r5, [pc, #24]	; (8008eb4 <_close_r+0x1c>)
 8008e9c:	2300      	movs	r3, #0
 8008e9e:	4604      	mov	r4, r0
 8008ea0:	4608      	mov	r0, r1
 8008ea2:	602b      	str	r3, [r5, #0]
 8008ea4:	f7f9 f888 	bl	8001fb8 <_close>
 8008ea8:	1c43      	adds	r3, r0, #1
 8008eaa:	d102      	bne.n	8008eb2 <_close_r+0x1a>
 8008eac:	682b      	ldr	r3, [r5, #0]
 8008eae:	b103      	cbz	r3, 8008eb2 <_close_r+0x1a>
 8008eb0:	6023      	str	r3, [r4, #0]
 8008eb2:	bd38      	pop	{r3, r4, r5, pc}
 8008eb4:	20002248 	.word	0x20002248

08008eb8 <__sflush_r>:
 8008eb8:	898a      	ldrh	r2, [r1, #12]
 8008eba:	e92d 41f0 	stmdb	sp!, {r4, r5, r6, r7, r8, lr}
 8008ebe:	4605      	mov	r5, r0
 8008ec0:	0710      	lsls	r0, r2, #28
 8008ec2:	460c      	mov	r4, r1
 8008ec4:	d458      	bmi.n	8008f78 <__sflush_r+0xc0>
 8008ec6:	684b      	ldr	r3, [r1, #4]
 8008ec8:	2b00      	cmp	r3, #0
 8008eca:	dc05      	bgt.n	8008ed8 <__sflush_r+0x20>
 8008ecc:	6c0b      	ldr	r3, [r1, #64]	; 0x40
 8008ece:	2b00      	cmp	r3, #0
 8008ed0:	dc02      	bgt.n	8008ed8 <__sflush_r+0x20>
 8008ed2:	2000      	movs	r0, #0
 8008ed4:	e8bd 81f0 	ldmia.w	sp!, {r4, r5, r6, r7, r8, pc}
 8008ed8:	6ae6      	ldr	r6, [r4, #44]	; 0x2c
 8008eda:	2e00      	cmp	r6, #0
 8008edc:	d0f9      	beq.n	8008ed2 <__sflush_r+0x1a>
 8008ede:	2300      	movs	r3, #0
 8008ee0:	f412 5280 	ands.w	r2, r2, #4096	; 0x1000
 8008ee4:	682f      	ldr	r7, [r5, #0]
 8008ee6:	602b      	str	r3, [r5, #0]
 8008ee8:	d032      	beq.n	8008f50 <__sflush_r+0x98>
 8008eea:	6d60      	ldr	r0, [r4, #84]	; 0x54
 8008eec:	89a3      	ldrh	r3, [r4, #12]
 8008eee:	075a      	lsls	r2, r3, #29
 8008ef0:	d505      	bpl.n	8008efe <__sflush_r+0x46>
 8008ef2:	6863      	ldr	r3, [r4, #4]
 8008ef4:	1ac0      	subs	r0, r0, r3
 8008ef6:	6b63      	ldr	r3, [r4, #52]	; 0x34
 8008ef8:	b10b      	cbz	r3, 8008efe <__sflush_r+0x46>
 8008efa:	6c23      	ldr	r3, [r4, #64]	; 0x40
 8008efc:	1ac0      	subs	r0, r0, r3
 8008efe:	2300      	movs	r3, #0
 8008f00:	4602      	mov	r2, r0
 8008f02:	6ae6      	ldr	r6, [r4, #44]	; 0x2c
 8008f04:	6a21      	ldr	r1, [r4, #32]
 8008f06:	4628      	mov	r0, r5
 8008f08:	47b0      	blx	r6
 8008f0a:	1c43      	adds	r3, r0, #1
 8008f0c:	89a3      	ldrh	r3, [r4, #12]
 8008f0e:	d106      	bne.n	8008f1e <__sflush_r+0x66>
 8008f10:	6829      	ldr	r1, [r5, #0]
 8008f12:	291d      	cmp	r1, #29
 8008f14:	d82c      	bhi.n	8008f70 <__sflush_r+0xb8>
 8008f16:	4a2a      	ldr	r2, [pc, #168]	; (8008fc0 <__sflush_r+0x108>)
 8008f18:	40ca      	lsrs	r2, r1
 8008f1a:	07d6      	lsls	r6, r2, #31
 8008f1c:	d528      	bpl.n	8008f70 <__sflush_r+0xb8>
 8008f1e:	2200      	movs	r2, #0
 8008f20:	6062      	str	r2, [r4, #4]
 8008f22:	04d9      	lsls	r1, r3, #19
 8008f24:	6922      	ldr	r2, [r4, #16]
 8008f26:	6022      	str	r2, [r4, #0]
 8008f28:	d504      	bpl.n	8008f34 <__sflush_r+0x7c>
 8008f2a:	1c42      	adds	r2, r0, #1
 8008f2c:	d101      	bne.n	8008f32 <__sflush_r+0x7a>
 8008f2e:	682b      	ldr	r3, [r5, #0]
 8008f30:	b903      	cbnz	r3, 8008f34 <__sflush_r+0x7c>
 8008f32:	6560      	str	r0, [r4, #84]	; 0x54
 8008f34:	6b61      	ldr	r1, [r4, #52]	; 0x34
 8008f36:	602f      	str	r7, [r5, #0]
 8008f38:	2900      	cmp	r1, #0
 8008f3a:	d0ca      	beq.n	8008ed2 <__sflush_r+0x1a>
 8008f3c:	f104 0344 	add.w	r3, r4, #68	; 0x44
 8008f40:	4299      	cmp	r1, r3
 8008f42:	d002      	beq.n	8008f4a <__sflush_r+0x92>
 8008f44:	4628      	mov	r0, r5
 8008f46:	f7ff fc5f 	bl	8008808 <_free_r>
 8008f4a:	2000      	movs	r0, #0
 8008f4c:	6360      	str	r0, [r4, #52]	; 0x34
 8008f4e:	e7c1      	b.n	8008ed4 <__sflush_r+0x1c>
 8008f50:	6a21      	ldr	r1, [r4, #32]
 8008f52:	2301      	movs	r3, #1
 8008f54:	4628      	mov	r0, r5
 8008f56:	47b0      	blx	r6
 8008f58:	1c41      	adds	r1, r0, #1
 8008f5a:	d1c7      	bne.n	8008eec <__sflush_r+0x34>
 8008f5c:	682b      	ldr	r3, [r5, #0]
 8008f5e:	2b00      	cmp	r3, #0
 8008f60:	d0c4      	beq.n	8008eec <__sflush_r+0x34>
 8008f62:	2b1d      	cmp	r3, #29
 8008f64:	d001      	beq.n	8008f6a <__sflush_r+0xb2>
 8008f66:	2b16      	cmp	r3, #22
 8008f68:	d101      	bne.n	8008f6e <__sflush_r+0xb6>
 8008f6a:	602f      	str	r7, [r5, #0]
 8008f6c:	e7b1      	b.n	8008ed2 <__sflush_r+0x1a>
 8008f6e:	89a3      	ldrh	r3, [r4, #12]
 8008f70:	f043 0340 	orr.w	r3, r3, #64	; 0x40
 8008f74:	81a3      	strh	r3, [r4, #12]
 8008f76:	e7ad      	b.n	8008ed4 <__sflush_r+0x1c>
 8008f78:	690f      	ldr	r7, [r1, #16]
 8008f7a:	2f00      	cmp	r7, #0
 8008f7c:	d0a9      	beq.n	8008ed2 <__sflush_r+0x1a>
 8008f7e:	0793      	lsls	r3, r2, #30
 8008f80:	680e      	ldr	r6, [r1, #0]
 8008f82:	bf08      	it	eq
 8008f84:	694b      	ldreq	r3, [r1, #20]
 8008f86:	600f      	str	r7, [r1, #0]
 8008f88:	bf18      	it	ne
 8008f8a:	2300      	movne	r3, #0
 8008f8c:	eba6 0807 	sub.w	r8, r6, r7
 8008f90:	608b      	str	r3, [r1, #8]
 8008f92:	f1b8 0f00 	cmp.w	r8, #0
 8008f96:	dd9c      	ble.n	8008ed2 <__sflush_r+0x1a>
 8008f98:	6a21      	ldr	r1, [r4, #32]
 8008f9a:	6aa6      	ldr	r6, [r4, #40]	; 0x28
 8008f9c:	4643      	mov	r3, r8
 8008f9e:	463a      	mov	r2, r7
 8008fa0:	4628      	mov	r0, r5
 8008fa2:	47b0      	blx	r6
 8008fa4:	2800      	cmp	r0, #0
 8008fa6:	dc06      	bgt.n	8008fb6 <__sflush_r+0xfe>
 8008fa8:	89a3      	ldrh	r3, [r4, #12]
 8008faa:	f043 0340 	orr.w	r3, r3, #64	; 0x40
 8008fae:	81a3      	strh	r3, [r4, #12]
 8008fb0:	f04f 30ff 	mov.w	r0, #4294967295
 8008fb4:	e78e      	b.n	8008ed4 <__sflush_r+0x1c>
 8008fb6:	4407      	add	r7, r0
 8008fb8:	eba8 0800 	sub.w	r8, r8, r0
 8008fbc:	e7e9      	b.n	8008f92 <__sflush_r+0xda>
 8008fbe:	bf00      	nop
 8008fc0:	20400001 	.word	0x20400001

08008fc4 <_fflush_r>:
 8008fc4:	b538      	push	{r3, r4, r5, lr}
 8008fc6:	690b      	ldr	r3, [r1, #16]
 8008fc8:	4605      	mov	r5, r0
 8008fca:	460c      	mov	r4, r1
 8008fcc:	b913      	cbnz	r3, 8008fd4 <_fflush_r+0x10>
 8008fce:	2500      	movs	r5, #0
 8008fd0:	4628      	mov	r0, r5
 8008fd2:	bd38      	pop	{r3, r4, r5, pc}
 8008fd4:	b118      	cbz	r0, 8008fde <_fflush_r+0x1a>
 8008fd6:	6983      	ldr	r3, [r0, #24]
 8008fd8:	b90b      	cbnz	r3, 8008fde <_fflush_r+0x1a>
 8008fda:	f7fe ffd9 	bl	8007f90 <__sinit>
 8008fde:	4b14      	ldr	r3, [pc, #80]	; (8009030 <_fflush_r+0x6c>)
 8008fe0:	429c      	cmp	r4, r3
 8008fe2:	d11b      	bne.n	800901c <_fflush_r+0x58>
 8008fe4:	686c      	ldr	r4, [r5, #4]
 8008fe6:	f9b4 300c 	ldrsh.w	r3, [r4, #12]
 8008fea:	2b00      	cmp	r3, #0
 8008fec:	d0ef      	beq.n	8008fce <_fflush_r+0xa>
 8008fee:	6e62      	ldr	r2, [r4, #100]	; 0x64
 8008ff0:	07d0      	lsls	r0, r2, #31
 8008ff2:	d404      	bmi.n	8008ffe <_fflush_r+0x3a>
 8008ff4:	0599      	lsls	r1, r3, #22
 8008ff6:	d402      	bmi.n	8008ffe <_fflush_r+0x3a>
 8008ff8:	6da0      	ldr	r0, [r4, #88]	; 0x58
 8008ffa:	f7ff f86c 	bl	80080d6 <__retarget_lock_acquire_recursive>
 8008ffe:	4628      	mov	r0, r5
 8009000:	4621      	mov	r1, r4
 8009002:	f7ff ff59 	bl	8008eb8 <__sflush_r>
 8009006:	6e63      	ldr	r3, [r4, #100]	; 0x64
 8009008:	07da      	lsls	r2, r3, #31
 800900a:	4605      	mov	r5, r0
 800900c:	d4e0      	bmi.n	8008fd0 <_fflush_r+0xc>
 800900e:	89a3      	ldrh	r3, [r4, #12]
 8009010:	059b      	lsls	r3, r3, #22
 8009012:	d4dd      	bmi.n	8008fd0 <_fflush_r+0xc>
 8009014:	6da0      	ldr	r0, [r4, #88]	; 0x58
 8009016:	f7ff f85f 	bl	80080d8 <__retarget_lock_release_recursive>
 800901a:	e7d9      	b.n	8008fd0 <_fflush_r+0xc>
 800901c:	4b05      	ldr	r3, [pc, #20]	; (8009034 <_fflush_r+0x70>)
 800901e:	429c      	cmp	r4, r3
 8009020:	d101      	bne.n	8009026 <_fflush_r+0x62>
 8009022:	68ac      	ldr	r4, [r5, #8]
 8009024:	e7df      	b.n	8008fe6 <_fflush_r+0x22>
 8009026:	4b04      	ldr	r3, [pc, #16]	; (8009038 <_fflush_r+0x74>)
 8009028:	429c      	cmp	r4, r3
 800902a:	bf08      	it	eq
 800902c:	68ec      	ldreq	r4, [r5, #12]
 800902e:	e7da      	b.n	8008fe6 <_fflush_r+0x22>
 8009030:	08009754 	.word	0x08009754
 8009034:	08009774 	.word	0x08009774
 8009038:	08009734 	.word	0x08009734

0800903c <fiprintf>:
 800903c:	b40e      	push	{r1, r2, r3}
 800903e:	b503      	push	{r0, r1, lr}
 8009040:	4601      	mov	r1, r0
 8009042:	ab03      	add	r3, sp, #12
 8009044:	4805      	ldr	r0, [pc, #20]	; (800905c <fiprintf+0x20>)
 8009046:	f853 2b04 	ldr.w	r2, [r3], #4
 800904a:	6800      	ldr	r0, [r0, #0]
 800904c:	9301      	str	r3, [sp, #4]
 800904e:	f7ff fcaf 	bl	80089b0 <_vfiprintf_r>
 8009052:	b002      	add	sp, #8
 8009054:	f85d eb04 	ldr.w	lr, [sp], #4
 8009058:	b003      	add	sp, #12
 800905a:	4770      	bx	lr
 800905c:	20000190 	.word	0x20000190

08009060 <_lseek_r>:
 8009060:	b538      	push	{r3, r4, r5, lr}
 8009062:	4d07      	ldr	r5, [pc, #28]	; (8009080 <_lseek_r+0x20>)
 8009064:	4604      	mov	r4, r0
 8009066:	4608      	mov	r0, r1
 8009068:	4611      	mov	r1, r2
 800906a:	2200      	movs	r2, #0
 800906c:	602a      	str	r2, [r5, #0]
 800906e:	461a      	mov	r2, r3
 8009070:	f7f8 ffac 	bl	8001fcc <_lseek>
 8009074:	1c43      	adds	r3, r0, #1
 8009076:	d102      	bne.n	800907e <_lseek_r+0x1e>
 8009078:	682b      	ldr	r3, [r5, #0]
 800907a:	b103      	cbz	r3, 800907e <_lseek_r+0x1e>
 800907c:	6023      	str	r3, [r4, #0]
 800907e:	bd38      	pop	{r3, r4, r5, pc}
 8009080:	20002248 	.word	0x20002248

08009084 <__swhatbuf_r>:
 8009084:	b570      	push	{r4, r5, r6, lr}
 8009086:	460e      	mov	r6, r1
 8009088:	f9b1 100e 	ldrsh.w	r1, [r1, #14]
 800908c:	2900      	cmp	r1, #0
 800908e:	b096      	sub	sp, #88	; 0x58
 8009090:	4614      	mov	r4, r2
 8009092:	461d      	mov	r5, r3
 8009094:	da07      	bge.n	80090a6 <__swhatbuf_r+0x22>
 8009096:	2300      	movs	r3, #0
 8009098:	602b      	str	r3, [r5, #0]
 800909a:	89b3      	ldrh	r3, [r6, #12]
 800909c:	061a      	lsls	r2, r3, #24
 800909e:	d410      	bmi.n	80090c2 <__swhatbuf_r+0x3e>
 80090a0:	f44f 6380 	mov.w	r3, #1024	; 0x400
 80090a4:	e00e      	b.n	80090c4 <__swhatbuf_r+0x40>
 80090a6:	466a      	mov	r2, sp
 80090a8:	f000 f894 	bl	80091d4 <_fstat_r>
 80090ac:	2800      	cmp	r0, #0
 80090ae:	dbf2      	blt.n	8009096 <__swhatbuf_r+0x12>
 80090b0:	9a01      	ldr	r2, [sp, #4]
 80090b2:	f402 4270 	and.w	r2, r2, #61440	; 0xf000
 80090b6:	f5a2 5300 	sub.w	r3, r2, #8192	; 0x2000
 80090ba:	425a      	negs	r2, r3
 80090bc:	415a      	adcs	r2, r3
 80090be:	602a      	str	r2, [r5, #0]
 80090c0:	e7ee      	b.n	80090a0 <__swhatbuf_r+0x1c>
 80090c2:	2340      	movs	r3, #64	; 0x40
 80090c4:	2000      	movs	r0, #0
 80090c6:	6023      	str	r3, [r4, #0]
 80090c8:	b016      	add	sp, #88	; 0x58
 80090ca:	bd70      	pop	{r4, r5, r6, pc}

080090cc <__smakebuf_r>:
 80090cc:	898b      	ldrh	r3, [r1, #12]
 80090ce:	b573      	push	{r0, r1, r4, r5, r6, lr}
 80090d0:	079d      	lsls	r5, r3, #30
 80090d2:	4606      	mov	r6, r0
 80090d4:	460c      	mov	r4, r1
 80090d6:	d507      	bpl.n	80090e8 <__smakebuf_r+0x1c>
 80090d8:	f104 0347 	add.w	r3, r4, #71	; 0x47
 80090dc:	6023      	str	r3, [r4, #0]
 80090de:	6123      	str	r3, [r4, #16]
 80090e0:	2301      	movs	r3, #1
 80090e2:	6163      	str	r3, [r4, #20]
 80090e4:	b002      	add	sp, #8
 80090e6:	bd70      	pop	{r4, r5, r6, pc}
 80090e8:	ab01      	add	r3, sp, #4
 80090ea:	466a      	mov	r2, sp
 80090ec:	f7ff ffca 	bl	8009084 <__swhatbuf_r>
 80090f0:	9900      	ldr	r1, [sp, #0]
 80090f2:	4605      	mov	r5, r0
 80090f4:	4630      	mov	r0, r6
 80090f6:	f7ff fbd7 	bl	80088a8 <_malloc_r>
 80090fa:	b948      	cbnz	r0, 8009110 <__smakebuf_r+0x44>
 80090fc:	f9b4 300c 	ldrsh.w	r3, [r4, #12]
 8009100:	059a      	lsls	r2, r3, #22
 8009102:	d4ef      	bmi.n	80090e4 <__smakebuf_r+0x18>
 8009104:	f023 0303 	bic.w	r3, r3, #3
 8009108:	f043 0302 	orr.w	r3, r3, #2
 800910c:	81a3      	strh	r3, [r4, #12]
 800910e:	e7e3      	b.n	80090d8 <__smakebuf_r+0xc>
 8009110:	4b0d      	ldr	r3, [pc, #52]	; (8009148 <__smakebuf_r+0x7c>)
 8009112:	62b3      	str	r3, [r6, #40]	; 0x28
 8009114:	89a3      	ldrh	r3, [r4, #12]
 8009116:	6020      	str	r0, [r4, #0]
 8009118:	f043 0380 	orr.w	r3, r3, #128	; 0x80
 800911c:	81a3      	strh	r3, [r4, #12]
 800911e:	9b00      	ldr	r3, [sp, #0]
 8009120:	6163      	str	r3, [r4, #20]
 8009122:	9b01      	ldr	r3, [sp, #4]
 8009124:	6120      	str	r0, [r4, #16]
 8009126:	b15b      	cbz	r3, 8009140 <__smakebuf_r+0x74>
 8009128:	f9b4 100e 	ldrsh.w	r1, [r4, #14]
 800912c:	4630      	mov	r0, r6
 800912e:	f000 f863 	bl	80091f8 <_isatty_r>
 8009132:	b128      	cbz	r0, 8009140 <__smakebuf_r+0x74>
 8009134:	89a3      	ldrh	r3, [r4, #12]
 8009136:	f023 0303 	bic.w	r3, r3, #3
 800913a:	f043 0301 	orr.w	r3, r3, #1
 800913e:	81a3      	strh	r3, [r4, #12]
 8009140:	89a0      	ldrh	r0, [r4, #12]
 8009142:	4305      	orrs	r5, r0
 8009144:	81a5      	strh	r5, [r4, #12]
 8009146:	e7cd      	b.n	80090e4 <__smakebuf_r+0x18>
 8009148:	08007f29 	.word	0x08007f29

0800914c <__ascii_mbtowc>:
 800914c:	b082      	sub	sp, #8
 800914e:	b901      	cbnz	r1, 8009152 <__ascii_mbtowc+0x6>
 8009150:	a901      	add	r1, sp, #4
 8009152:	b142      	cbz	r2, 8009166 <__ascii_mbtowc+0x1a>
 8009154:	b14b      	cbz	r3, 800916a <__ascii_mbtowc+0x1e>
 8009156:	7813      	ldrb	r3, [r2, #0]
 8009158:	600b      	str	r3, [r1, #0]
 800915a:	7812      	ldrb	r2, [r2, #0]
 800915c:	1e10      	subs	r0, r2, #0
 800915e:	bf18      	it	ne
 8009160:	2001      	movne	r0, #1
 8009162:	b002      	add	sp, #8
 8009164:	4770      	bx	lr
 8009166:	4610      	mov	r0, r2
 8009168:	e7fb      	b.n	8009162 <__ascii_mbtowc+0x16>
 800916a:	f06f 0001 	mvn.w	r0, #1
 800916e:	e7f8      	b.n	8009162 <__ascii_mbtowc+0x16>

08009170 <__malloc_lock>:
 8009170:	4801      	ldr	r0, [pc, #4]	; (8009178 <__malloc_lock+0x8>)
 8009172:	f7fe bfb0 	b.w	80080d6 <__retarget_lock_acquire_recursive>
 8009176:	bf00      	nop
 8009178:	20002240 	.word	0x20002240

0800917c <__malloc_unlock>:
 800917c:	4801      	ldr	r0, [pc, #4]	; (8009184 <__malloc_unlock+0x8>)
 800917e:	f7fe bfab 	b.w	80080d8 <__retarget_lock_release_recursive>
 8009182:	bf00      	nop
 8009184:	20002240 	.word	0x20002240

08009188 <_read_r>:
 8009188:	b538      	push	{r3, r4, r5, lr}
 800918a:	4d07      	ldr	r5, [pc, #28]	; (80091a8 <_read_r+0x20>)
 800918c:	4604      	mov	r4, r0
 800918e:	4608      	mov	r0, r1
 8009190:	4611      	mov	r1, r2
 8009192:	2200      	movs	r2, #0
 8009194:	602a      	str	r2, [r5, #0]
 8009196:	461a      	mov	r2, r3
 8009198:	f7f8 fef4 	bl	8001f84 <_read>
 800919c:	1c43      	adds	r3, r0, #1
 800919e:	d102      	bne.n	80091a6 <_read_r+0x1e>
 80091a0:	682b      	ldr	r3, [r5, #0]
 80091a2:	b103      	cbz	r3, 80091a6 <_read_r+0x1e>
 80091a4:	6023      	str	r3, [r4, #0]
 80091a6:	bd38      	pop	{r3, r4, r5, pc}
 80091a8:	20002248 	.word	0x20002248

080091ac <__ascii_wctomb>:
 80091ac:	b149      	cbz	r1, 80091c2 <__ascii_wctomb+0x16>
 80091ae:	2aff      	cmp	r2, #255	; 0xff
 80091b0:	bf85      	ittet	hi
 80091b2:	238a      	movhi	r3, #138	; 0x8a
 80091b4:	6003      	strhi	r3, [r0, #0]
 80091b6:	700a      	strbls	r2, [r1, #0]
 80091b8:	f04f 30ff 	movhi.w	r0, #4294967295
 80091bc:	bf98      	it	ls
 80091be:	2001      	movls	r0, #1
 80091c0:	4770      	bx	lr
 80091c2:	4608      	mov	r0, r1
 80091c4:	4770      	bx	lr

080091c6 <abort>:
 80091c6:	b508      	push	{r3, lr}
 80091c8:	2006      	movs	r0, #6
 80091ca:	f000 f84d 	bl	8009268 <raise>
 80091ce:	2001      	movs	r0, #1
 80091d0:	f7f8 fed2 	bl	8001f78 <_exit>

080091d4 <_fstat_r>:
 80091d4:	b538      	push	{r3, r4, r5, lr}
 80091d6:	4d07      	ldr	r5, [pc, #28]	; (80091f4 <_fstat_r+0x20>)
 80091d8:	2300      	movs	r3, #0
 80091da:	4604      	mov	r4, r0
 80091dc:	4608      	mov	r0, r1
 80091de:	4611      	mov	r1, r2
 80091e0:	602b      	str	r3, [r5, #0]
 80091e2:	f7f8 feec 	bl	8001fbe <_fstat>
 80091e6:	1c43      	adds	r3, r0, #1
 80091e8:	d102      	bne.n	80091f0 <_fstat_r+0x1c>
 80091ea:	682b      	ldr	r3, [r5, #0]
 80091ec:	b103      	cbz	r3, 80091f0 <_fstat_r+0x1c>
 80091ee:	6023      	str	r3, [r4, #0]
 80091f0:	bd38      	pop	{r3, r4, r5, pc}
 80091f2:	bf00      	nop
 80091f4:	20002248 	.word	0x20002248

080091f8 <_isatty_r>:
 80091f8:	b538      	push	{r3, r4, r5, lr}
 80091fa:	4d06      	ldr	r5, [pc, #24]	; (8009214 <_isatty_r+0x1c>)
 80091fc:	2300      	movs	r3, #0
 80091fe:	4604      	mov	r4, r0
 8009200:	4608      	mov	r0, r1
 8009202:	602b      	str	r3, [r5, #0]
 8009204:	f7f8 fee0 	bl	8001fc8 <_isatty>
 8009208:	1c43      	adds	r3, r0, #1
 800920a:	d102      	bne.n	8009212 <_isatty_r+0x1a>
 800920c:	682b      	ldr	r3, [r5, #0]
 800920e:	b103      	cbz	r3, 8009212 <_isatty_r+0x1a>
 8009210:	6023      	str	r3, [r4, #0]
 8009212:	bd38      	pop	{r3, r4, r5, pc}
 8009214:	20002248 	.word	0x20002248

08009218 <_raise_r>:
 8009218:	291f      	cmp	r1, #31
 800921a:	b538      	push	{r3, r4, r5, lr}
 800921c:	4604      	mov	r4, r0
 800921e:	460d      	mov	r5, r1
 8009220:	d904      	bls.n	800922c <_raise_r+0x14>
 8009222:	2316      	movs	r3, #22
 8009224:	6003      	str	r3, [r0, #0]
 8009226:	f04f 30ff 	mov.w	r0, #4294967295
 800922a:	bd38      	pop	{r3, r4, r5, pc}
 800922c:	6c42      	ldr	r2, [r0, #68]	; 0x44
 800922e:	b112      	cbz	r2, 8009236 <_raise_r+0x1e>
 8009230:	f852 3021 	ldr.w	r3, [r2, r1, lsl #2]
 8009234:	b94b      	cbnz	r3, 800924a <_raise_r+0x32>
 8009236:	4620      	mov	r0, r4
 8009238:	f000 f830 	bl	800929c <_getpid_r>
 800923c:	462a      	mov	r2, r5
 800923e:	4601      	mov	r1, r0
 8009240:	4620      	mov	r0, r4
 8009242:	e8bd 4038 	ldmia.w	sp!, {r3, r4, r5, lr}
 8009246:	f000 b817 	b.w	8009278 <_kill_r>
 800924a:	2b01      	cmp	r3, #1
 800924c:	d00a      	beq.n	8009264 <_raise_r+0x4c>
 800924e:	1c59      	adds	r1, r3, #1
 8009250:	d103      	bne.n	800925a <_raise_r+0x42>
 8009252:	2316      	movs	r3, #22
 8009254:	6003      	str	r3, [r0, #0]
 8009256:	2001      	movs	r0, #1
 8009258:	e7e7      	b.n	800922a <_raise_r+0x12>
 800925a:	2400      	movs	r4, #0
 800925c:	f842 4025 	str.w	r4, [r2, r5, lsl #2]
 8009260:	4628      	mov	r0, r5
 8009262:	4798      	blx	r3
 8009264:	2000      	movs	r0, #0
 8009266:	e7e0      	b.n	800922a <_raise_r+0x12>

08009268 <raise>:
 8009268:	4b02      	ldr	r3, [pc, #8]	; (8009274 <raise+0xc>)
 800926a:	4601      	mov	r1, r0
 800926c:	6818      	ldr	r0, [r3, #0]
 800926e:	f7ff bfd3 	b.w	8009218 <_raise_r>
 8009272:	bf00      	nop
 8009274:	20000190 	.word	0x20000190

08009278 <_kill_r>:
 8009278:	b538      	push	{r3, r4, r5, lr}
 800927a:	4d07      	ldr	r5, [pc, #28]	; (8009298 <_kill_r+0x20>)
 800927c:	2300      	movs	r3, #0
 800927e:	4604      	mov	r4, r0
 8009280:	4608      	mov	r0, r1
 8009282:	4611      	mov	r1, r2
 8009284:	602b      	str	r3, [r5, #0]
 8009286:	f7f8 fe6f 	bl	8001f68 <_kill>
 800928a:	1c43      	adds	r3, r0, #1
 800928c:	d102      	bne.n	8009294 <_kill_r+0x1c>
 800928e:	682b      	ldr	r3, [r5, #0]
 8009290:	b103      	cbz	r3, 8009294 <_kill_r+0x1c>
 8009292:	6023      	str	r3, [r4, #0]
 8009294:	bd38      	pop	{r3, r4, r5, pc}
 8009296:	bf00      	nop
 8009298:	20002248 	.word	0x20002248

0800929c <_getpid_r>:
 800929c:	f7f8 be62 	b.w	8001f64 <_getpid>

080092a0 <fmaxf>:
 80092a0:	b508      	push	{r3, lr}
 80092a2:	ed2d 8b02 	vpush	{d8}
 80092a6:	eeb0 8a40 	vmov.f32	s16, s0
 80092aa:	eef0 8a60 	vmov.f32	s17, s1
 80092ae:	f000 f82d 	bl	800930c <__fpclassifyf>
 80092b2:	b148      	cbz	r0, 80092c8 <fmaxf+0x28>
 80092b4:	eeb0 0a68 	vmov.f32	s0, s17
 80092b8:	f000 f828 	bl	800930c <__fpclassifyf>
 80092bc:	b130      	cbz	r0, 80092cc <fmaxf+0x2c>
 80092be:	eeb4 8ae8 	vcmpe.f32	s16, s17
 80092c2:	eef1 fa10 	vmrs	APSR_nzcv, fpscr
 80092c6:	dc01      	bgt.n	80092cc <fmaxf+0x2c>
 80092c8:	eeb0 8a68 	vmov.f32	s16, s17
 80092cc:	eeb0 0a48 	vmov.f32	s0, s16
 80092d0:	ecbd 8b02 	vpop	{d8}
 80092d4:	bd08      	pop	{r3, pc}

080092d6 <fminf>:
 80092d6:	b508      	push	{r3, lr}
 80092d8:	ed2d 8b02 	vpush	{d8}
 80092dc:	eeb0 8a40 	vmov.f32	s16, s0
 80092e0:	eef0 8a60 	vmov.f32	s17, s1
 80092e4:	f000 f812 	bl	800930c <__fpclassifyf>
 80092e8:	b148      	cbz	r0, 80092fe <fminf+0x28>
 80092ea:	eeb0 0a68 	vmov.f32	s0, s17
 80092ee:	f000 f80d 	bl	800930c <__fpclassifyf>
 80092f2:	b130      	cbz	r0, 8009302 <fminf+0x2c>
 80092f4:	eeb4 8ae8 	vcmpe.f32	s16, s17
 80092f8:	eef1 fa10 	vmrs	APSR_nzcv, fpscr
 80092fc:	d401      	bmi.n	8009302 <fminf+0x2c>
 80092fe:	eeb0 8a68 	vmov.f32	s16, s17
 8009302:	eeb0 0a48 	vmov.f32	s0, s16
 8009306:	ecbd 8b02 	vpop	{d8}
 800930a:	bd08      	pop	{r3, pc}

0800930c <__fpclassifyf>:
 800930c:	ee10 3a10 	vmov	r3, s0
 8009310:	f033 4000 	bics.w	r0, r3, #2147483648	; 0x80000000
 8009314:	d00d      	beq.n	8009332 <__fpclassifyf+0x26>
 8009316:	f5a0 0300 	sub.w	r3, r0, #8388608	; 0x800000
 800931a:	f1b3 4ffe 	cmp.w	r3, #2130706432	; 0x7f000000
 800931e:	d30a      	bcc.n	8009336 <__fpclassifyf+0x2a>
 8009320:	4b07      	ldr	r3, [pc, #28]	; (8009340 <__fpclassifyf+0x34>)
 8009322:	1e42      	subs	r2, r0, #1
 8009324:	429a      	cmp	r2, r3
 8009326:	d908      	bls.n	800933a <__fpclassifyf+0x2e>
 8009328:	f1a0 43ff 	sub.w	r3, r0, #2139095040	; 0x7f800000
 800932c:	4258      	negs	r0, r3
 800932e:	4158      	adcs	r0, r3
 8009330:	4770      	bx	lr
 8009332:	2002      	movs	r0, #2
 8009334:	4770      	bx	lr
 8009336:	2004      	movs	r0, #4
 8009338:	4770      	bx	lr
 800933a:	2003      	movs	r0, #3
 800933c:	4770      	bx	lr
 800933e:	bf00      	nop
 8009340:	007ffffe 	.word	0x007ffffe

08009344 <logf>:
 8009344:	b508      	push	{r3, lr}
 8009346:	ed2d 8b02 	vpush	{d8}
 800934a:	eeb0 8a40 	vmov.f32	s16, s0
 800934e:	f000 f855 	bl	80093fc <__ieee754_logf>
 8009352:	4b14      	ldr	r3, [pc, #80]	; (80093a4 <logf+0x60>)
 8009354:	f993 3000 	ldrsb.w	r3, [r3]
 8009358:	3301      	adds	r3, #1
 800935a:	d014      	beq.n	8009386 <logf+0x42>
 800935c:	eeb4 8a48 	vcmp.f32	s16, s16
 8009360:	eef1 fa10 	vmrs	APSR_nzcv, fpscr
 8009364:	d60f      	bvs.n	8009386 <logf+0x42>
 8009366:	eeb5 8ac0 	vcmpe.f32	s16, #0.0
 800936a:	eef1 fa10 	vmrs	APSR_nzcv, fpscr
 800936e:	dc0a      	bgt.n	8009386 <logf+0x42>
 8009370:	eeb5 8a40 	vcmp.f32	s16, #0.0
 8009374:	eef1 fa10 	vmrs	APSR_nzcv, fpscr
 8009378:	d108      	bne.n	800938c <logf+0x48>
 800937a:	f7fd fa75 	bl	8006868 <__errno>
 800937e:	2322      	movs	r3, #34	; 0x22
 8009380:	ed9f 0a09 	vldr	s0, [pc, #36]	; 80093a8 <logf+0x64>
 8009384:	6003      	str	r3, [r0, #0]
 8009386:	ecbd 8b02 	vpop	{d8}
 800938a:	bd08      	pop	{r3, pc}
 800938c:	f7fd fa6c 	bl	8006868 <__errno>
 8009390:	ecbd 8b02 	vpop	{d8}
 8009394:	2321      	movs	r3, #33	; 0x21
 8009396:	6003      	str	r3, [r0, #0]
 8009398:	e8bd 4008 	ldmia.w	sp!, {r3, lr}
 800939c:	4803      	ldr	r0, [pc, #12]	; (80093ac <logf+0x68>)
 800939e:	f000 b921 	b.w	80095e4 <nanf>
 80093a2:	bf00      	nop
 80093a4:	20000360 	.word	0x20000360
 80093a8:	ff800000 	.word	0xff800000
 80093ac:	0800961d 	.word	0x0800961d

080093b0 <sqrtf>:
 80093b0:	b508      	push	{r3, lr}
 80093b2:	ed2d 8b02 	vpush	{d8}
 80093b6:	eeb0 8a40 	vmov.f32	s16, s0
 80093ba:	f000 f90f 	bl	80095dc <__ieee754_sqrtf>
 80093be:	4b0d      	ldr	r3, [pc, #52]	; (80093f4 <sqrtf+0x44>)
 80093c0:	f993 3000 	ldrsb.w	r3, [r3]
 80093c4:	3301      	adds	r3, #1
 80093c6:	d011      	beq.n	80093ec <sqrtf+0x3c>
 80093c8:	eeb4 8a48 	vcmp.f32	s16, s16
 80093cc:	eef1 fa10 	vmrs	APSR_nzcv, fpscr
 80093d0:	d60c      	bvs.n	80093ec <sqrtf+0x3c>
 80093d2:	eddf 8a09 	vldr	s17, [pc, #36]	; 80093f8 <sqrtf+0x48>
 80093d6:	eeb4 8ae8 	vcmpe.f32	s16, s17
 80093da:	eef1 fa10 	vmrs	APSR_nzcv, fpscr
 80093de:	d505      	bpl.n	80093ec <sqrtf+0x3c>
 80093e0:	f7fd fa42 	bl	8006868 <__errno>
 80093e4:	ee88 0aa8 	vdiv.f32	s0, s17, s17
 80093e8:	2321      	movs	r3, #33	; 0x21
 80093ea:	6003      	str	r3, [r0, #0]
 80093ec:	ecbd 8b02 	vpop	{d8}
 80093f0:	bd08      	pop	{r3, pc}
 80093f2:	bf00      	nop
 80093f4:	20000360 	.word	0x20000360
 80093f8:	00000000 	.word	0x00000000

080093fc <__ieee754_logf>:
 80093fc:	ee10 3a10 	vmov	r3, s0
 8009400:	f033 4200 	bics.w	r2, r3, #2147483648	; 0x80000000
 8009404:	d106      	bne.n	8009414 <__ieee754_logf+0x18>
 8009406:	ed9f 7a65 	vldr	s14, [pc, #404]	; 800959c <__ieee754_logf+0x1a0>
 800940a:	eddf 7a65 	vldr	s15, [pc, #404]	; 80095a0 <__ieee754_logf+0x1a4>
 800940e:	ee87 0a27 	vdiv.f32	s0, s14, s15
 8009412:	4770      	bx	lr
 8009414:	2b00      	cmp	r3, #0
 8009416:	da02      	bge.n	800941e <__ieee754_logf+0x22>
 8009418:	ee30 7a40 	vsub.f32	s14, s0, s0
 800941c:	e7f5      	b.n	800940a <__ieee754_logf+0xe>
 800941e:	f1b3 4fff 	cmp.w	r3, #2139095040	; 0x7f800000
 8009422:	db02      	blt.n	800942a <__ieee754_logf+0x2e>
 8009424:	ee30 0a00 	vadd.f32	s0, s0, s0
 8009428:	4770      	bx	lr
 800942a:	f5b3 0f00 	cmp.w	r3, #8388608	; 0x800000
 800942e:	bfb8      	it	lt
 8009430:	eddf 7a5c 	vldrlt	s15, [pc, #368]	; 80095a4 <__ieee754_logf+0x1a8>
 8009434:	485c      	ldr	r0, [pc, #368]	; (80095a8 <__ieee754_logf+0x1ac>)
 8009436:	bfbe      	ittt	lt
 8009438:	ee60 7a27 	vmullt.f32	s15, s0, s15
 800943c:	f06f 0118 	mvnlt.w	r1, #24
 8009440:	ee17 3a90 	vmovlt	r3, s15
 8009444:	ea4f 52e3 	mov.w	r2, r3, asr #23
 8009448:	f3c3 0316 	ubfx	r3, r3, #0, #23
 800944c:	4418      	add	r0, r3
 800944e:	bfa8      	it	ge
 8009450:	2100      	movge	r1, #0
 8009452:	3a7f      	subs	r2, #127	; 0x7f
 8009454:	440a      	add	r2, r1
 8009456:	f400 0100 	and.w	r1, r0, #8388608	; 0x800000
 800945a:	f081 517e 	eor.w	r1, r1, #1065353216	; 0x3f800000
 800945e:	4319      	orrs	r1, r3
 8009460:	ee00 1a10 	vmov	s0, r1
 8009464:	4951      	ldr	r1, [pc, #324]	; (80095ac <__ieee754_logf+0x1b0>)
 8009466:	eb02 52d0 	add.w	r2, r2, r0, lsr #23
 800946a:	f103 000f 	add.w	r0, r3, #15
 800946e:	eef7 7a00 	vmov.f32	s15, #112	; 0x3f800000  1.0
 8009472:	4001      	ands	r1, r0
 8009474:	ee30 0a67 	vsub.f32	s0, s0, s15
 8009478:	bb89      	cbnz	r1, 80094de <__ieee754_logf+0xe2>
 800947a:	eeb5 0a40 	vcmp.f32	s0, #0.0
 800947e:	eef1 fa10 	vmrs	APSR_nzcv, fpscr
 8009482:	d10f      	bne.n	80094a4 <__ieee754_logf+0xa8>
 8009484:	2a00      	cmp	r2, #0
 8009486:	f000 8085 	beq.w	8009594 <__ieee754_logf+0x198>
 800948a:	ee07 2a90 	vmov	s15, r2
 800948e:	ed9f 0a48 	vldr	s0, [pc, #288]	; 80095b0 <__ieee754_logf+0x1b4>
 8009492:	ed9f 7a48 	vldr	s14, [pc, #288]	; 80095b4 <__ieee754_logf+0x1b8>
 8009496:	eef8 7ae7 	vcvt.f32.s32	s15, s15
 800949a:	ee27 0a80 	vmul.f32	s0, s15, s0
 800949e:	eea7 0a87 	vfma.f32	s0, s15, s14
 80094a2:	4770      	bx	lr
 80094a4:	eddf 6a44 	vldr	s13, [pc, #272]	; 80095b8 <__ieee754_logf+0x1bc>
 80094a8:	eef6 7a00 	vmov.f32	s15, #96	; 0x3f000000  0.5
 80094ac:	eee0 7a66 	vfms.f32	s15, s0, s13
 80094b0:	ee20 7a00 	vmul.f32	s14, s0, s0
 80094b4:	ee27 7a27 	vmul.f32	s14, s14, s15
 80094b8:	b912      	cbnz	r2, 80094c0 <__ieee754_logf+0xc4>
 80094ba:	ee30 0a47 	vsub.f32	s0, s0, s14
 80094be:	4770      	bx	lr
 80094c0:	ee07 2a90 	vmov	s15, r2
 80094c4:	eddf 6a3a 	vldr	s13, [pc, #232]	; 80095b0 <__ieee754_logf+0x1b4>
 80094c8:	eef8 7ae7 	vcvt.f32.s32	s15, s15
 80094cc:	eea7 7ae6 	vfms.f32	s14, s15, s13
 80094d0:	ee37 0a40 	vsub.f32	s0, s14, s0
 80094d4:	ed9f 7a37 	vldr	s14, [pc, #220]	; 80095b4 <__ieee754_logf+0x1b8>
 80094d8:	ee97 0a87 	vfnms.f32	s0, s15, s14
 80094dc:	4770      	bx	lr
 80094de:	eef0 7a00 	vmov.f32	s15, #0	; 0x40000000  2.0
 80094e2:	ee70 7a27 	vadd.f32	s15, s0, s15
 80094e6:	eddf 5a35 	vldr	s11, [pc, #212]	; 80095bc <__ieee754_logf+0x1c0>
 80094ea:	eddf 4a35 	vldr	s9, [pc, #212]	; 80095c0 <__ieee754_logf+0x1c4>
 80094ee:	4935      	ldr	r1, [pc, #212]	; (80095c4 <__ieee754_logf+0x1c8>)
 80094f0:	ee80 6a27 	vdiv.f32	s12, s0, s15
 80094f4:	4419      	add	r1, r3
 80094f6:	f5c3 1357 	rsb	r3, r3, #3522560	; 0x35c000
 80094fa:	f503 7322 	add.w	r3, r3, #648	; 0x288
 80094fe:	430b      	orrs	r3, r1
 8009500:	2b00      	cmp	r3, #0
 8009502:	ee07 2a90 	vmov	s15, r2
 8009506:	ee26 5a06 	vmul.f32	s10, s12, s12
 800950a:	eef8 6ae7 	vcvt.f32.s32	s13, s15
 800950e:	ee25 7a05 	vmul.f32	s14, s10, s10
 8009512:	eddf 7a2d 	vldr	s15, [pc, #180]	; 80095c8 <__ieee754_logf+0x1cc>
 8009516:	eee7 7a25 	vfma.f32	s15, s14, s11
 800951a:	eddf 5a2c 	vldr	s11, [pc, #176]	; 80095cc <__ieee754_logf+0x1d0>
 800951e:	eee7 5a87 	vfma.f32	s11, s15, s14
 8009522:	eddf 7a2b 	vldr	s15, [pc, #172]	; 80095d0 <__ieee754_logf+0x1d4>
 8009526:	eee7 7a24 	vfma.f32	s15, s14, s9
 800952a:	eddf 4a2a 	vldr	s9, [pc, #168]	; 80095d4 <__ieee754_logf+0x1d8>
 800952e:	eee7 4a87 	vfma.f32	s9, s15, s14
 8009532:	eddf 7a29 	vldr	s15, [pc, #164]	; 80095d8 <__ieee754_logf+0x1dc>
 8009536:	eee4 7a87 	vfma.f32	s15, s9, s14
 800953a:	ee67 7a85 	vmul.f32	s15, s15, s10
 800953e:	eee5 7a87 	vfma.f32	s15, s11, s14
 8009542:	dd1c      	ble.n	800957e <__ieee754_logf+0x182>
 8009544:	eeb6 7a00 	vmov.f32	s14, #96	; 0x3f000000  0.5
 8009548:	ee20 7a07 	vmul.f32	s14, s0, s14
 800954c:	ee27 7a00 	vmul.f32	s14, s14, s0
 8009550:	ee77 7a87 	vadd.f32	s15, s15, s14
 8009554:	ee67 7a86 	vmul.f32	s15, s15, s12
 8009558:	b922      	cbnz	r2, 8009564 <__ieee754_logf+0x168>
 800955a:	ee77 7a67 	vsub.f32	s15, s14, s15
 800955e:	ee30 0a67 	vsub.f32	s0, s0, s15
 8009562:	4770      	bx	lr
 8009564:	ed9f 6a12 	vldr	s12, [pc, #72]	; 80095b0 <__ieee754_logf+0x1b4>
 8009568:	eee6 7a86 	vfma.f32	s15, s13, s12
 800956c:	ee77 7a67 	vsub.f32	s15, s14, s15
 8009570:	ee37 0ac0 	vsub.f32	s0, s15, s0
 8009574:	eddf 7a0f 	vldr	s15, [pc, #60]	; 80095b4 <__ieee754_logf+0x1b8>
 8009578:	ee96 0aa7 	vfnms.f32	s0, s13, s15
 800957c:	4770      	bx	lr
 800957e:	ee70 7a67 	vsub.f32	s15, s0, s15
 8009582:	ee67 7a86 	vmul.f32	s15, s15, s12
 8009586:	2a00      	cmp	r2, #0
 8009588:	d0e9      	beq.n	800955e <__ieee754_logf+0x162>
 800958a:	ed9f 7a09 	vldr	s14, [pc, #36]	; 80095b0 <__ieee754_logf+0x1b4>
 800958e:	eee6 7ac7 	vfms.f32	s15, s13, s14
 8009592:	e7ed      	b.n	8009570 <__ieee754_logf+0x174>
 8009594:	ed9f 0a02 	vldr	s0, [pc, #8]	; 80095a0 <__ieee754_logf+0x1a4>
 8009598:	4770      	bx	lr
 800959a:	bf00      	nop
 800959c:	cc000000 	.word	0xcc000000
 80095a0:	00000000 	.word	0x00000000
 80095a4:	4c000000 	.word	0x4c000000
 80095a8:	004afb20 	.word	0x004afb20
 80095ac:	007ffff0 	.word	0x007ffff0
 80095b0:	3717f7d1 	.word	0x3717f7d1
 80095b4:	3f317180 	.word	0x3f317180
 80095b8:	3eaaaaab 	.word	0x3eaaaaab
 80095bc:	3e1cd04f 	.word	0x3e1cd04f
 80095c0:	3e178897 	.word	0x3e178897
 80095c4:	ffcf5c30 	.word	0xffcf5c30
 80095c8:	3e638e29 	.word	0x3e638e29
 80095cc:	3ecccccd 	.word	0x3ecccccd
 80095d0:	3e3a3325 	.word	0x3e3a3325
 80095d4:	3e924925 	.word	0x3e924925
 80095d8:	3f2aaaab 	.word	0x3f2aaaab

080095dc <__ieee754_sqrtf>:
 80095dc:	eeb1 0ac0 	vsqrt.f32	s0, s0
 80095e0:	4770      	bx	lr
	...

080095e4 <nanf>:
 80095e4:	ed9f 0a01 	vldr	s0, [pc, #4]	; 80095ec <nanf+0x8>
 80095e8:	4770      	bx	lr
 80095ea:	bf00      	nop
 80095ec:	7fc00000 	.word	0x7fc00000

080095f0 <_init>:
 80095f0:	b5f8      	push	{r3, r4, r5, r6, r7, lr}
 80095f2:	bf00      	nop
 80095f4:	bcf8      	pop	{r3, r4, r5, r6, r7}
 80095f6:	bc08      	pop	{r3}
 80095f8:	469e      	mov	lr, r3
 80095fa:	4770      	bx	lr

080095fc <_fini>:
 80095fc:	b5f8      	push	{r3, r4, r5, r6, r7, lr}
 80095fe:	bf00      	nop
 8009600:	bcf8      	pop	{r3, r4, r5, r6, r7}
 8009602:	bc08      	pop	{r3}
 8009604:	469e      	mov	lr, r3
 8009606:	4770      	bx	lr
